MODULE windows x86_64 0C73B09BD39E4944922532441DA5C5CE3 CppConsoleApp.pdb
INFO CODE_ID 5C51C78F89000 CppConsoleApp.exe
FUNC 6bb0 b 0 plus_one(int)
FUNC 6bd0 1b 0 main
FUNC 6bfc b7 0 pre_c_initialization
FUNC 6ce0 10 0 post_pgo_initialization
FUNC 6cf4 19 0 pre_cpp_initialization
FUNC 6d14 12 0 __scrt_common_main
FUNC 6d2c 17c 0 __scrt_common_main_seh
FUNC 6f08 14 0 __scrt_narrow_argv_policy::configure_argv()
FUNC 6f24 5 0 __scrt_narrow_environment_policy::initialize_environment()
FUNC 6f2c 36 0 invoke_main
FUNC 6f70 a 0 __scrt_main_policy::set_app_type()
FUNC 6f7c 1b 0 __scrt_file_policy::set_commode()
FUNC 6fa0 14 0 __scrt_file_policy::set_fmode()
FUNC 6fbc 12 0 mainCRTStartup
FUNC 6fd4 16 0 __crt_fast_decode_pointer<void (__cdecl**)(void)>
FUNC 6ff0 1e 0 __crt_fast_encode_pointer<void (__cdecl**)(void)>
FUNC 7018 9 0 __crt_rotate_pointer_value(unsigned __int64,int)
FUNC 7024 49 0 find_pe_section
FUNC 7080 2f 0 is_potentially_valid_image_base
FUNC 70bc a 0 NtCurrentTeb
FUNC 70c8 39 0 _scrt_acquire_startup_lock
FUNC 7110 34 0 _scrt_dllmain_after_initialize_c
FUNC 7154 15 0 _scrt_dllmain_before_initialize_c
FUNC 7170 28 0 _scrt_dllmain_crt_thread_attach
FUNC 71a4 15 0 _scrt_dllmain_crt_thread_detach
FUNC 71c0 60 0 _scrt_dllmain_exception_filter
FUNC 7238 30 0 _scrt_dllmain_uninitialize_c
FUNC 7274 14 0 _scrt_dllmain_uninitialize_critical
FUNC 7290 49 0 _scrt_initialize_crt
FUNC 72ec d8 0 _scrt_initialize_onexit_tables
FUNC 73fc 99 0 _scrt_is_nonwritable_in_current_image
FUNC 74bc 24 0 _scrt_release_startup_lock
FUNC 74ec 2b 0 _scrt_uninitialize_crt
FUNC 7524 4f 0 onexit
FUNC 7588 36 0 at_quick_exit
FUNC 75cc 17 0 atexit
FUNC 75e8 6b 0 __get_entropy
FUNC 7670 ac 0 _security_init_cookie
FUNC 7748 3 0 matherr
FUNC 774c 6 0 get_startup_argv_mode
FUNC 7754 3 0 get_startup_commit_mode
FUNC 7758 6 0 get_startup_file_mode
FUNC 7760 3 0 get_startup_new_mode
FUNC 7764 3 0 get_startup_thread_locale_mode
FUNC 7768 e 0 __scrt_initialize_type_info()
FUNC 777c c 0 __scrt_uninitialize_type_info()
FUNC 778c 3 0 should_initialize_environment
FUNC 7790 3 0 initialize_invalid_parameter_handler
FUNC 7794 3 0 initialize_denormal_control
FUNC 7798 8 0 _local_stdio_printf_options
FUNC 77a4 8 0 _local_stdio_scanf_options
FUNC 77b0 1b 0 _scrt_initialize_default_local_stdio_options
FUNC 77d4 c 0 _scrt_is_user_matherr_present
FUNC 77e4 8 0 _scrt_get_dyn_tls_init_callback
FUNC 77f0 8 0 _scrt_get_dyn_tls_dtor_callback
FUNC 77fc 8 0 _crt_debugger_hook
FUNC 7808 14a 0 _scrt_fastfail
FUNC 79a4 3a 0 _scrt_get_show_window_mode
FUNC 79ec 5 0 _scrt_initialize_mta
FUNC 79f4 3 0 _scrt_initialize_winrt
FUNC 79f8 52 0 _scrt_is_managed_app
FUNC 7a60 e 0 _scrt_set_unhandled_exception_filter
FUNC 7a74 3 0 _scrt_stub_for_initialize_mta
FUNC 7a78 38 0 _scrt_unhandled_exception_filter
FUNC 7ac0 3c 0 RTC_Initialize
FUNC 7b0c 3c 0 RTC_Terminate
FUNC 7b58 3 0 guard_check_icall_nop
FUNC 7b5c 4 0 ReadNoFence64
FUNC 7b60 4 0 ReadPointerNoFence
FUNC 7b64 17 0 guard_icall_checks_enforced
FUNC 7b80 3 0 guard_rf_checks_enforced
FUNC 7b84 1b9 0 _isa_available_init
FUNC 7dac c 0 _scrt_is_ucrt_dll_in_use
PUBLIC 7dc0 0 QueryPerformanceCounter
PUBLIC 7dc6 0 GetCurrentProcessId
PUBLIC 7dcc 0 GetCurrentThreadId
PUBLIC 7dd2 0 GetSystemTimeAsFileTime
PUBLIC 7dd8 0 InitializeSListHead
PUBLIC 7dde 0 RtlCaptureContext
PUBLIC 7de4 0 RtlLookupFunctionEntry
PUBLIC 7dea 0 RtlVirtualUnwind
PUBLIC 7df0 0 IsDebuggerPresent
PUBLIC 7df6 0 UnhandledExceptionFilter
PUBLIC 7dfc 0 SetUnhandledExceptionFilter
PUBLIC 7e02 0 GetStartupInfoW
PUBLIC 7e08 0 IsProcessorFeaturePresent
PUBLIC 7e0e 0 GetModuleHandleW
FUNC 7e14 20b 0 _C_specific_handler
FUNC 80a4 32 0 _vcrt_initialize
FUNC 80e4 14 0 _vcrt_thread_attach
FUNC 8100 12 0 _vcrt_thread_detach
FUNC 8118 20 0 _vcrt_uninitialize
FUNC 8140 10 0 _vcrt_uninitialize_critical
FUNC 8154 3 0 init_memcpy_functions
FUNC 8158 5 0 <lambda_02a71323d951a238fa4826e9f186893b>::<lambda_invoker_cdecl>
FUNC 8160 5 0 <lambda_ab747d7d039e86ead2ea2c584b0f6318>::<lambda_invoker_cdecl>
FUNC 8168 8 0 __crt_internal_free_policy::operator()<char>(char const * const)
FUNC 8174 8 0 __crt_internal_free_policy::operator()<void>(void const * const)
FUNC 8180 9 0 __crt_interlocked_compare_exchange_pointer<char const ,char *,std::nullptr_t>
FUNC 818c 4 0 __crt_interlocked_read_pointer<char const >(char const * const volatile *)
FUNC 8190 7 0 __crt_unique_heap_ptr<char,__crt_internal_free_policy>::__crt_unique_heap_ptr<char,__crt_internal_free_policy>(char * const)
FUNC 8198 7 0 __crt_unique_heap_ptr<void,__crt_internal_free_policy>::__crt_unique_heap_ptr<void,__crt_internal_free_policy>(void * const)
FUNC 81a0 1b 0 __crt_unique_heap_ptr<char,__crt_internal_free_policy>::~__crt_unique_heap_ptr<char,__crt_internal_free_policy>()
FUNC 81c4 1b 0 __crt_unique_heap_ptr<void,__crt_internal_free_policy>::~__crt_unique_heap_ptr<void,__crt_internal_free_policy>()
FUNC 81e8 8 0 <lambda_02a71323d951a238fa4826e9f186893b>::operator void (__cdecl*)(void * const)
FUNC 81f4 8 0 <lambda_ab747d7d039e86ead2ea2c584b0f6318>::operator void * (__cdecl*)(unsigned __int64)
FUNC 8200 8 0 __crt_unique_heap_ptr<char,__crt_internal_free_policy>::operator bool()
FUNC 820c 8 0 __crt_unique_heap_ptr<void,__crt_internal_free_policy>::operator bool()
FUNC 8218 8 0 <lambda_02a71323d951a238fa4826e9f186893b>::operator()
FUNC 8224 8 0 <lambda_ab747d7d039e86ead2ea2c584b0f6318>::operator()
FUNC 8230 4 0 __crt_interlocked_read_64(__int64 const volatile *)
FUNC 8234 8 0 __crt_unique_heap_ptr<void,__crt_internal_free_policy>::detach()
FUNC 8240 4 0 __crt_unique_heap_ptr<char,__crt_internal_free_policy>::get()
FUNC 8244 4 0 __crt_unique_heap_ptr<void,__crt_internal_free_policy>::get()
FUNC 8248 8 0 __crt_unique_heap_ptr<char,__crt_internal_free_policy>::is_valid()
FUNC 8254 8 0 __crt_unique_heap_ptr<void,__crt_internal_free_policy>::is_valid()
FUNC 8260 1b 0 __crt_unique_heap_ptr<char,__crt_internal_free_policy>::release()
FUNC 8284 1b 0 __crt_unique_heap_ptr<void,__crt_internal_free_policy>::release()
FUNC 82a8 27 0 _std_type_info_compare
FUNC 82d8 2a 0 _std_type_info_destroy_list
FUNC 830c 3b 0 _std_type_info_hash
FUNC 8358 11c 0 _std_type_info_name
FUNC 84d0 10 0 memset_repmovs
FUNC 84f0 190 0 memset
FUNC 8700 18 0 NLG_Notify
FUNC 8720 1 0 _NLG_Dispatch2
FUNC 8730 1 0 _NLG_Return2
FUNC 8744 5 0 __except_get_jumpbuf_sp
FUNC 874c 37 0 _except_validate_context_record
FUNC 8790 3f 0 _except_validate_jump_buffer
FUNC 87e0 5b 0 _except_validate_jump_buffer_common
FUNC 8854 71 0 _DestructExceptionObject
FUNC 88e4 3 0 _CallMemberFunction0(void * const,void * const)
FUNC 88e8 5 0 type_info::raw_name()
FUNC 88f0 2f 0 IsExceptionObjectToBeDestroyed
FUNC 892c 8 0 SetWinRTOutOfMemoryExceptionCallback
FUNC 8938 23 0 _AdjustPointer
FUNC 8964 4a 0 _FrameUnwindFilter
FUNC 89c0 5b 0 _GetPlatformExceptionInfo
FUNC 8a34 12 0 _current_exception
FUNC 8a4c 12 0 _current_exception_context
FUNC 8a64 12 0 _processing_throw
FUNC 8a7c a 0 _std_terminate
FUNC 8a88 a5 0 is_exception_typeof
FUNC 8b58 8 0 __crt_internal_free_policy::operator()<__vcrt_ptd>(__vcrt_ptd const * const)
FUNC 8b64 7 0 __crt_unique_heap_ptr<__vcrt_ptd,__crt_internal_free_policy>::__crt_unique_heap_ptr<__vcrt_ptd,__crt_internal_free_policy>(__vcrt_ptd * const)
FUNC 8b6c 1a 0 `anonymous namespace'::scoped_get_last_error_reset::scoped_get_last_error_reset
FUNC 8b8c 1b 0 __crt_unique_heap_ptr<__vcrt_ptd,__crt_internal_free_policy>::~__crt_unique_heap_ptr<__vcrt_ptd,__crt_internal_free_policy>()
FUNC 8bb0 9 0 `anonymous namespace'::scoped_get_last_error_reset::~scoped_get_last_error_reset
FUNC 8bbc 8 0 __crt_unique_heap_ptr<__vcrt_ptd,__crt_internal_free_policy>::operator bool()
FUNC 8bc8 8 0 __crt_unique_heap_ptr<__vcrt_ptd,__crt_internal_free_policy>::detach()
FUNC 8bd4 4 0 __crt_unique_heap_ptr<__vcrt_ptd,__crt_internal_free_policy>::get()
FUNC 8bd8 8 0 __crt_unique_heap_ptr<__vcrt_ptd,__crt_internal_free_policy>::is_valid()
FUNC 8be4 1b 0 __crt_unique_heap_ptr<__vcrt_ptd,__crt_internal_free_policy>::release()
FUNC 8c08 34 0 store_and_initialize_ptd
FUNC 8c4c 1f 0 _vcrt_freefls
FUNC 8c74 4d 0 _vcrt_freeptd
FUNC 8cd4 19 0 _vcrt_getptd
FUNC 8cf4 cb 0 _vcrt_getptd_noexit
FUNC 8df4 4d 0 _vcrt_getptd_noinit
FUNC 8e54 51 0 _vcrt_initialize_ptd
FUNC 8ebc 22 0 _vcrt_uninitialize_ptd
FUNC 8ee8 46 0 _vcrt_initialize_locks
FUNC 8f40 19 0 _vcrt_lock
FUNC 8f60 37 0 _vcrt_uninitialize_locks
FUNC 8fa4 19 0 _vcrt_unlock
FUNC 8fc4 8 0 __crt_fast_encoded_nullptr_t::operator<void> void *
FUNC 8fd0 16 0 __crt_fast_decode_pointer<void *>
FUNC 8fec 1e 0 __crt_fast_encode_pointer<void *>
FUNC 9014 7 0 __crt_interlocked_exchange_pointer<HINSTANCE__,HINSTANCE__ *>
FUNC 901c 7 0 __crt_interlocked_exchange_pointer<HINSTANCE__,void *>
FUNC 9024 7 0 __crt_interlocked_exchange_pointer<void,void *>
FUNC 902c 4 0 __crt_interlocked_read_pointer<HINSTANCE__>(HINSTANCE__ * const volatile *)
FUNC 9030 4 0 __crt_interlocked_read_pointer<void>(void * const volatile *)
FUNC 9034 5 0 __crt_fast_encode_pointer(std::nullptr_t)
FUNC 903c 5 0 invalid_function_sentinel
FUNC 9044 1c 0 try_get_FlsAlloc
FUNC 9068 1f 0 try_get_FlsFree
FUNC 9090 1f 0 try_get_FlsGetValue
FUNC 90b8 1f 0 try_get_FlsSetValue
FUNC 90e0 1f 0 try_get_InitializeCriticalSectionEx
FUNC 9108 119 0 try_get_first_available_module
FUNC 9268 1d6 0 try_get_function
FUNC 94b4 fe 0 try_get_module
FUNC 95f4 137 0 try_get_proc_address_from_first_available_module
FUNC 9778 73 0 try_load_library_from_system_directory
FUNC 9808 45 0 _vcrt_FlsAlloc
FUNC 9860 46 0 _vcrt_FlsFree
FUNC 98b8 46 0 _vcrt_FlsGetValue
FUNC 9910 51 0 _vcrt_FlsSetValue
FUNC 9978 61 0 _vcrt_InitializeCriticalSectionEx
FUNC 99f4 2f 0 _vcrt_initialize_winapi_thunks
FUNC 9a30 3e 0 _vcrt_uninitialize_winapi_thunks
FUNC 9a80 8 0 __crt_fast_encoded_nullptr_t::operator<void > void (*)(void)()
FUNC 9a8c 1e 0 __crt_fast_encode_pointer<void (*)(void)>(void (*const)(void))
FUNC 9ab4 f 0 _vcrt_initialize_pure_virtual_call_handler
FUNC 9ac8 8 0 _HeapManager::Block::Block()
FUNC 9ad4 cc 0 DName::DName(char const * &,char)
FUNC 9bd4 10 0 DName::DName(DName const &)
FUNC 9be8 31 0 DName::DName(char)
FUNC 9c28 84 0 DName::DName(DName *)
FUNC 9cd0 40 0 DName::DName(char const *)
FUNC 9d20 2d 0 DName::DName(DNameStatus)
FUNC 9d58 c 0 DName::DName()
FUNC 9d68 a6 0 DName::DName(__int64)
FUNC 9e38 88 0 DName::DName(unsigned __int64)
FUNC 9ee4 e 0 DNameNode::DNameNode()
FUNC 9ef8 7 0 Replicator::Replicator()
FUNC 9f00 a 0 `UnDecorator::getDecoratedName'::`2'::TrackRecursion::TrackRecursion
FUNC 9f0c 50 0 UnDecorator::UnDecorator(char const *,char * (*)(long),unsigned long)
FUNC 9f70 11 0 charNode::charNode(char)
FUNC 9f88 26 0 pDNameNode::pDNameNode(DName *)
FUNC 9fb8 1a 0 pairNode::pairNode(DNameNode const *,DNameNode const *)
FUNC 9fd8 88 0 pcharNode::pcharNode(char const *,int)
FUNC a084 7 0 `UnDecorator::getDecoratedName'::`2'::TrackRecursion::~TrackRecursion
FUNC a08c f 0 operator new(unsigned __int64,_HeapManager &,int)
FUNC a0a0 10 0 DName::operator=(DName const &)
FUNC a0b4 31 0 DName::operator=(char)
FUNC a0f4 7e 0 DName::operator=(DName *)
FUNC a194 36 0 DName::operator=(char const *)
FUNC a1d8 1f 0 DName::operator=(DNameStatus)
FUNC a200 40 0 Replicator::operator[](int)
FUNC a250 36 0 operator+(char,DName const &)
FUNC a294 36 0 operator+(char const *,DName const &)
FUNC a2d8 49 0 operator+(DNameStatus,DName const &)
FUNC a334 29 0 DName::operator+(DName const &)
FUNC a368 29 0 DName::operator+(char)
FUNC a39c 29 0 DName::operator+(DName *)
FUNC a3d0 29 0 DName::operator+(char const *)
FUNC a404 29 0 DName::operator+(DNameStatus)
FUNC a438 44 0 DName::operator+=(DName const &)
FUNC a490 7d 0 DName::operator+=(char)
FUNC a52c 95 0 DName::operator+=(DName *)
FUNC a5e8 8a 0 DName::operator+=(char const *)
FUNC a694 6b 0 DName::operator+=(DNameStatus)
FUNC a71c 67 0 Replicator::operator+=(DName const &)
FUNC a79c 14 0 DName::operator|=(DName const &)
FUNC a7b8 16 0 _HeapManager::Constructor(void * (*)(unsigned __int64),void (*)(void *))
FUNC a7d4 42 0 _HeapManager::Destructor()
FUNC a828 20 0 UnDecorator::UScore(Tokens)
FUNC a850 63 0 DName::append(DNameNode const *)
FUNC a8cc db3 0 UnDecorator::composeDeclaration(DName const &)
FUNC b9ec f 0 UnDecorator::doAccessSpecifiers()
FUNC ba00 f 0 UnDecorator::doAllocationLanguage()
FUNC ba14 f 0 UnDecorator::doAllocationModel()
FUNC ba28 f 0 UnDecorator::doEcsu()
FUNC ba3c f 0 UnDecorator::doEllipsis()
FUNC ba50 f 0 UnDecorator::doFunctionReturns()
FUNC ba64 e 0 UnDecorator::doMSKeywords()
FUNC ba78 f 0 UnDecorator::doMemberTypes()
FUNC ba8c c 0 UnDecorator::doNameOnly()
FUNC ba9c c 0 UnDecorator::doNoIdentCharCheck()
FUNC baac a6 0 DName::doPchar(char const *,int)
FUNC bb7c f 0 UnDecorator::doPtr64()
FUNC bb90 f 0 UnDecorator::doRestrictionSpec()
FUNC bba4 12 0 UnDecorator::doThisTypes()
FUNC bbbc f 0 UnDecorator::doThrowTypes()
FUNC bbd0 c 0 UnDecorator::doTypeOnly()
FUNC bbe0 c 0 UnDecorator::doUnderScore()
FUNC bbf0 12b 0 UnDecorator::getArgumentList()
FUNC bd68 f3 0 UnDecorator::getArgumentTypes()
FUNC be98 253 0 UnDecorator::getArrayType(DName const &)
FUNC c180 c8 0 UnDecorator::getBasedType()
FUNC c27c 468 0 UnDecorator::getBasicDataType(DName const &)
FUNC c800 11d 0 UnDecorator::getCHPEName(char *,int)
FUNC c964 19 0 UnDecorator::getCallIndex()
FUNC c984 13e 0 UnDecorator::getCallingConvention()
FUNC cb14 7b8 0 UnDecorator::getDataIndirectType(DName const &,char const *,DName const &,int)
FUNC d4bc 3e 0 UnDecorator::getDataIndirectType()
FUNC d50c e6 0 UnDecorator::getDataType(DName *)
FUNC d62c 2a8 0 UnDecorator::getDecoratedName()
FUNC d980 179 0 UnDecorator::getDimension(bool)
FUNC db58 4c 0 UnDecorator::getDispatchTarget()
FUNC dbb8 19 0 UnDecorator::getDisplacement()
FUNC dbd8 160 0 UnDecorator::getECSUDataType()
FUNC dd90 17 0 UnDecorator::getECSUName()
FUNC ddac fc 0 UnDecorator::getEnumType()
FUNC dee8 214 0 UnDecorator::getExtendedDataIndirectType(char const * &,bool &,int)
FUNC e184 c6 0 UnDecorator::getExternalDataType(DName const &)
FUNC e27c 556 0 UnDecorator::getFunctionIndirectType(DName const &)
FUNC e928 19 0 UnDecorator::getGuardNumber()
FUNC e948 19 0 DName::getLastChar()
FUNC e968 c 0 DNameStatusNode::getLastChar()
FUNC e978 4 0 charNode::getLastChar()
FUNC e97c 29 0 pDNameNode::getLastChar()
FUNC e9b0 35 0 pairNode::getLastChar()
FUNC e9f4 14 0 pcharNode::getLastChar()
FUNC ea10 71 0 UnDecorator::getLexicalFrame()
FUNC eaa0 a9 0 _HeapManager::getMemory(unsigned __int64,int)
FUNC eb74 45 0 UnDecorator::getNoexcept()
FUNC ebcc 73 0 UnDecorator::getNumberOfDimensions()
FUNC ec5c 76d 0 UnDecorator::getOperatorName(bool,bool *)
FUNC f5a4 1e 0 UnDecorator::getPointerType(DName const &,DName const &)
FUNC f5cc 1e 0 UnDecorator::getPointerTypeArray(DName const &,DName const &)
FUNC f5f4 24d 0 UnDecorator::getPrimaryDataType(DName const &)
FUNC f8d4 162 0 UnDecorator::getPtrRefDataType(DName const &,int)
FUNC fa90 136 0 UnDecorator::getPtrRefType(DName const &,DName const &,char const *)
FUNC fc14 17 0 UnDecorator::getReferenceType(DName const &,DName const &,char const *)
FUNC fc30 13d 0 UnDecorator::getRestrictionSpec()
FUNC fdbc 34 0 UnDecorator::getReturnType(DName *)
FUNC fe00 478 0 UnDecorator::getScope()
FUNC 10398 103 0 UnDecorator::getScopedName()
FUNC 104dc 94 0 UnDecorator::getSignedDimension()
FUNC 10598 3e 0 UnDecorator::getStorageConvention()
FUNC 105e8 1a 0 DName::getString(char *,char *)
FUNC 10608 94 0 DName::getString(char *,int)
FUNC 106c4 46 0 DNameStatusNode::getString(char *,char *)
FUNC 1071c 11 0 charNode::getString(char *,char *)
FUNC 10734 2d 0 pDNameNode::getString(char *,char *)
FUNC 1076c 4b 0 pairNode::getString(char *,char *)
FUNC 107cc 36 0 pcharNode::getString(char *,char *)
FUNC 10810 d0 0 UnDecorator::getStringEncoding(char const *,int)
FUNC 10914 2d 0 getStringHelper(char *,char const *,char const *,int)
FUNC 1094c 4c 0 UnDecorator::getSymbolName()
FUNC 109ac 31a 0 UnDecorator::getTemplateArgumentList()
FUNC 10d8c 3a0 0 UnDecorator::getTemplateConstant()
FUNC 11214 1fa 0 UnDecorator::getTemplateName(bool)
FUNC 1148c 42 0 UnDecorator::getThisType()
FUNC 114e0 23 0 UnDecorator::getThrowTypes()
FUNC 1150c 35e 0 UnDecorator::getTypeEncoding()
FUNC 11944 109 0 UnDecorator::getUndecoratedName(char *,int)
FUNC 11a90 58 0 UnDecorator::getVCallThunkType()
FUNC 11b00 17 0 UnDecorator::getVbTableType(DName const &)
FUNC 11b1c 5f 0 UnDecorator::getVdispMapType(DName const &)
FUNC 11b94 1fd 0 UnDecorator::getVfTableType(DName const &)
FUNC 11e10 2d9 0 UnDecorator::getZName(bool,bool)
FUNC 121a0 c 0 UnDecorator::haveTemplateParameters()
FUNC 121b0 a 0 DName::isArray()
FUNC 121bc a 0 DName::isComArray()
FUNC 121c8 9 0 DName::isEmpty()
FUNC 121d4 9 0 Replicator::isFull()
FUNC 121e0 a 0 DName::isNoTE()
FUNC 121ec a 0 DName::isPinPtr()
FUNC 121f8 a 0 DName::isPtrRef()
FUNC 12204 16 0 DName::isUDC()
FUNC 12220 16 0 DName::isUDTThunk()
FUNC 1223c a 0 DName::isVCallThunk()
FUNC 12248 a 0 DName::isValid()
FUNC 12254 18 0 DName::length()
FUNC 12274 4 0 DNameStatusNode::length()
FUNC 12278 6 0 charNode::length()
FUNC 12280 28 0 pDNameNode::length()
FUNC 122b4 53 0 pairNode::length()
FUNC 1231c 4 0 pcharNode::length()
FUNC 12320 1f 0 DNameStatusNode::make(DNameStatus)
FUNC 12348 f5 0 UnDecorator::parseDecoratedName()
FUNC 1247c 6 0 DName::setIsArray()
FUNC 12484 6 0 DName::setIsComArray()
FUNC 1248c 6 0 DName::setIsNoTE()
FUNC 12494 6 0 DName::setIsPinPtr()
FUNC 1249c c 0 DName::setIsUDC()
FUNC 124ac 6 0 DName::setIsVCallThunk()
FUNC 124b4 9 0 DName::setPtrRef()
FUNC 124c0 5 0 DName::status()
FUNC 124c8 1a 0 und_memcpy
FUNC 124e8 11 0 und_strlen
FUNC 12500 2c 0 und_strncmp
FUNC 12538 27 0 _unDName
FUNC 12568 132 0 _unDNameEx
FUNC 126e8 62 0 vsprintf_s_l
FUNC 12764 52 0 sprintf_s
FUNC 127cc 106 0 unDNameGenerateCHPE
FUNC 12914 16 0 __crt_fast_decode_pointer<void (*)(void)>(void (*const)(void))
FUNC 12930 7 0 __crt_interlocked_exchange_pointer<void ,void (*)(void)>(void (*const volatile *)(void),void (*const)(void))
FUNC 12938 4 0 __crt_interlocked_read_pointer<void >(void (*const volatile *)(void))
FUNC 1293c 1a 0 get_purecall_handler
FUNC 1295c 2e 0 purecall
FUNC 12998 37 0 set_purecall_handler
FUNC 129dc 14 0 std::pair<__FrameHandler3::TryBlockMap::iterator,__FrameHandler3::TryBlockMap::iterator>::pair<__FrameHandler3::TryBlockMap::iterator,__FrameHandler3::TryBlockMap::iterator><__FrameHandler3::TryBlockMap::iterator &,__FrameHandler3::TryBlockMap::iterator &,0>
FUNC 129f8 14 0 std::pair<__FrameHandler4::TryBlockMap::iterator,__FrameHandler4::TryBlockMap::iterator>::pair<__FrameHandler4::TryBlockMap::iterator,__FrameHandler4::TryBlockMap::iterator><__FrameHandler4::TryBlockMap::iterator &,__FrameHandler4::TryBlockMap::iterator &,0>
FUNC 12a14 95 0 SehTransFilter<__FrameHandler3>
FUNC 12ad0 95 0 SehTransFilter<__FrameHandler4>
FUNC 12b8c 51 0 _CallSETranslator<__FrameHandler3>(EHExceptionRecord *,unsigned __int64 *,_CONTEXT *,_xDISPATCHER_CONTEXT *,_s_FuncInfo const *,unsigned long,unsigned __int64 *)
FUNC 12bf4 51 0 _CallSETranslator<__FrameHandler4>(EHExceptionRecord *,unsigned __int64 *,_CONTEXT *,_xDISPATCHER_CONTEXT *,FuncInfo4 *,unsigned long,unsigned __int64 *)
FUNC 12c5c 4 0 std::forward<__FrameHandler3::TryBlockMap::iterator &>
FUNC 12c60 4 0 std::forward<__FrameHandler4::TryBlockMap::iterator &>
FUNC 12c64 13 0 FuncInfo4::FuncInfo4()
FUNC 12c7c b 0 __FrameHandler3::TryBlockMap::iterator::iterator(__FrameHandler3::TryBlockMap &,unsigned int)
FUNC 12c8c b 0 __FrameHandler4::TryBlockMap::iterator::iterator(__FrameHandler4::TryBlockMap &,unsigned int)
FUNC 12c9c a 0 __FrameHandler4::TryBlockMap::iterator::operator=(__FrameHandler4::TryBlockMap::iterator const &)
FUNC 12ca8 a 0 __FrameHandler4::TryBlockMap::iterator::operator!=(__FrameHandler4::TryBlockMap::iterator const &)
FUNC 12cb4 8 0 __FrameHandler4::TryBlockMap::iterator::operator*()
FUNC 12cc0 a8 0 __FrameHandler4::TryBlockMap::iterator::operator++()
FUNC 12d94 56 0 __FrameHandler3::CatchTryBlock(_s_FuncInfo const *,int)
FUNC 12e00 94 0 DecompFuncInfo(unsigned char *,FuncInfo4 &)
FUNC 12ebc 9e 0 __FrameHandler4::TryBlockMap::DecompTryBlock()
FUNC 12f84 2a 0 __FrameHandler3::ExecutionInCatch(_xDISPATCHER_CONTEXT *,_s_FuncInfo const *)
FUNC 12fb8 a 0 __FrameHandler4::ExecutionInCatch(_xDISPATCHER_CONTEXT *,FuncInfo4 *)
FUNC 12fc4 64 0 __FrameHandler3::FrameUnwindToEmptyState(unsigned __int64 *,_xDISPATCHER_CONTEXT *,_s_FuncInfo const *)
FUNC 13044 35 0 __FrameHandler4::FrameUnwindToEmptyState(unsigned __int64 *,_xDISPATCHER_CONTEXT *,FuncInfo4 *)
FUNC 13088 c9 0 __FrameHandler3::GetEstablisherFrame(unsigned __int64 *,_xDISPATCHER_CONTEXT *,_s_FuncInfo const *,unsigned __int64 *)
FUNC 13184 24 0 __FrameHandler4::GetEstablisherFrame(unsigned __int64 *,_xDISPATCHER_CONTEXT *,FuncInfo4 *,unsigned __int64 *)
FUNC 131b4 159 0 __FrameHandler3::GetRangeOfTrysToCheck(__FrameHandler3::TryBlockMap &,int,int)
FUNC 13364 d3 0 __FrameHandler4::GetRangeOfTrysToCheck(__FrameHandler4::TryBlockMap &,int,int)
FUNC 1346c d 0 ReadInt(unsigned char * *)
FUNC 1347c 30 0 ReadUnsigned(unsigned char * *)
FUNC 134b8 121 0 __FrameHandler3::UnwindNestedFrames(unsigned __int64 *,EHExceptionRecord *,_CONTEXT *,unsigned __int64 *,void *,_s_FuncInfo const *,int,int,_s_HandlerType const *,_xDISPATCHER_CONTEXT *,unsigned char)
FUNC 13624 170 0 __FrameHandler4::UnwindNestedFrames(unsigned __int64 *,EHExceptionRecord *,_CONTEXT *,unsigned __int64 *,void *,FuncInfo4 *,int,int,HandlerType4 *,_xDISPATCHER_CONTEXT *,unsigned char)
FUNC 137f0 10 0 __FuncToImageRelOffset(_xDISPATCHER_CONTEXT *,unsigned int)
FUNC 13804 b 0 __FrameHandler4::TryBlockMap::begin()
FUNC 13814 c 0 __FrameHandler4::TryBlockMap::end()
FUNC 13824 4 0 __FrameHandler3::TryBlockMap::getFuncInfo()
FUNC 13828 5 0 __FrameHandler3::TryBlockMap::getpDC()
FUNC 13830 4 0 __FrameHandler4::TryBlockMap::iterator::incrementToSentinel()
FUNC 13834 175 0 __FrameHandler4::TryBlockMap::setBuffer(__FrameHandler4::TryBlockMap::iterator)
FUNC 13a08 3a 0 CreateFrameInfo
FUNC 13a50 53 0 FindAndUnlinkFrame
FUNC 13ab8 12 0 GetImageBase
FUNC 13ad0 12 0 GetThrowImageBase
FUNC 13ae8 18 0 SetImageBase
FUNC 13b08 18 0 SetThrowImageBase
FUNC 13b28 5 0 _CxxFrameHandler
FUNC 13b30 5 0 _CxxFrameHandler2
FUNC 13b38 7d 0 _CxxFrameHandler3
FUNC 13bd4 a1 0 _CxxFrameHandler4
FUNC 13cb0 13 0 memcpy_repmovs
FUNC 13cd0 435 0 memcpy
FUNC 14220 27 0 __FrameHandler3::GetCurrentState(unsigned __int64 *,_xDISPATCHER_CONTEXT *,_s_FuncInfo const *)
FUNC 14250 29 0 __FrameHandler3::GetUnwindTryBlock(unsigned __int64 *,_xDISPATCHER_CONTEXT *,_s_FuncInfo const *)
FUNC 14284 c 0 __FrameHandler3::SetState(unsigned __int64 *,_s_FuncInfo const *,int)
FUNC 14294 3b 0 __FrameHandler3::SetUnwindTryBlock(unsigned __int64 *,_xDISPATCHER_CONTEXT *,_s_FuncInfo const *,int)
FUNC 142e0 8 0 __FrameHandler3::StateFromControlPc(_s_FuncInfo const *,_xDISPATCHER_CONTEXT *)
FUNC 142ec 8 0 __FrameHandler4::StateFromControlPc(FuncInfo4 *,_xDISPATCHER_CONTEXT *)
FUNC 142f8 66 0 __FrameHandler3::StateFromIp(_s_FuncInfo const *,_xDISPATCHER_CONTEXT *,unsigned __int64)
FUNC 14378 ed 0 __FrameHandler4::StateFromIp(FuncInfo4 *,_xDISPATCHER_CONTEXT *,unsigned __int64)
FUNC 144a0 4 0 adjustIp
FUNC 144a4 1fd 0 BuildCatchObjectHelperInternal<_s_HandlerType const >
FUNC 14720 201 0 BuildCatchObjectHelperInternal<HandlerType4>
FUNC 149a4 c0 0 BuildCatchObjectInternal<_s_HandlerType const >
FUNC 14a94 c1 0 BuildCatchObjectInternal<HandlerType4>
FUNC 14b88 cd 0 CatchIt<__FrameHandler3>
FUNC 14c88 cd 0 CatchIt<__FrameHandler4>
FUNC 14d88 461 0 FindHandler<__FrameHandler3>
FUNC 15304 400 0 FindHandler<__FrameHandler4>
FUNC 15804 22e 0 FindHandlerForForeignException<__FrameHandler3>
FUNC 15ac0 237 0 FindHandlerForForeignException<__FrameHandler4>
FUNC 15d84 141 0 TypeMatchHelper<_s_HandlerType const >(_s_HandlerType const *,_s_CatchableType const *,_s_ThrowInfo const *)
FUNC 15f18 146 0 TypeMatchHelper<HandlerType4>(HandlerType4 *,_s_CatchableType const *,_s_ThrowInfo const *)
FUNC 160b0 246 0 __InternalCxxFrameHandler<__FrameHandler3>(EHExceptionRecord *,unsigned __int64 *,_CONTEXT *,_xDISPATCHER_CONTEXT *,_s_FuncInfo const *,int,unsigned __int64 *,unsigned char)
FUNC 16388 29f 0 __InternalCxxFrameHandler<__FrameHandler4>(EHExceptionRecord *,unsigned __int64 *,_CONTEXT *,_xDISPATCHER_CONTEXT *,FuncInfo4 *,int,unsigned __int64 *,unsigned char)
FUNC 166d0 15 0 __FrameHandler3::HandlerMap::HandlerMap(_s_TryBlockMapEntry const *,_xDISPATCHER_CONTEXT *)
FUNC 166ec 6b 0 __FrameHandler4::HandlerMap::HandlerMap(TryBlockMapEntry4 *,_xDISPATCHER_CONTEXT *)
FUNC 16774 14 0 HandlerType4::HandlerType4()
FUNC 16790 b 0 __FrameHandler3::TryBlockMap::TryBlockMap(_s_FuncInfo const *,_xDISPATCHER_CONTEXT *)
FUNC 167a0 eb 0 __FrameHandler4::TryBlockMap::TryBlockMap(FuncInfo4 *,_xDISPATCHER_CONTEXT *)
FUNC 168c8 38 0 UWMap::UWMap(unsigned char *)
FUNC 16910 3f 0 std::bad_exception::bad_exception(std::bad_exception const &)
FUNC 16960 1e 0 std::bad_exception::bad_exception()
FUNC 16988 35 0 std::exception::exception(std::exception const &)
FUNC 169cc 17 0 std::exception::exception(char const * const,int)
FUNC 169e8 b 0 __FrameHandler3::HandlerMap::iterator::iterator(__FrameHandler3::HandlerMap &,unsigned int)
FUNC 169f8 b 0 __FrameHandler4::HandlerMap::iterator::iterator(__FrameHandler4::HandlerMap &,unsigned int)
FUNC 16a08 b 0 UWMap::iterator::iterator(UWMap &,unsigned char *)
FUNC 16a18 13 0 std::bad_exception::~bad_exception()
FUNC 16a30 13 0 std::exception::~exception()
FUNC 16a48 c 0 UWMap::iterator::operator=(UWMap::iterator const &)
FUNC 16a58 a 0 __FrameHandler3::HandlerMap::iterator::operator==(__FrameHandler3::HandlerMap::iterator const &)
FUNC 16a64 a 0 __FrameHandler4::HandlerMap::iterator::operator==(__FrameHandler4::HandlerMap::iterator const &)
FUNC 16a70 1b 0 type_info::operator==(type_info const &)
FUNC 16a94 a 0 __FrameHandler3::HandlerMap::iterator::operator!=(__FrameHandler3::HandlerMap::iterator const &)
FUNC 16aa0 a 0 __FrameHandler4::HandlerMap::iterator::operator!=(__FrameHandler4::HandlerMap::iterator const &)
FUNC 16aac 13 0 __FrameHandler3::HandlerMap::iterator::operator*()
FUNC 16ac4 8 0 __FrameHandler4::HandlerMap::iterator::operator*()
FUNC 16ad0 1e 0 __FrameHandler3::TryBlockMap::iterator::operator*()
FUNC 16af8 3c 0 UWMap::iterator::operator*()
FUNC 16b44 7 0 __FrameHandler3::HandlerMap::iterator::operator++()
FUNC 16b4c 1d 0 __FrameHandler4::HandlerMap::iterator::operator++()
FUNC 16b70 7 0 __FrameHandler3::TryBlockMap::iterator::operator++()
FUNC 16b78 4d 0 UWMap::iterator::operator++()
FUNC 16bd8 9 0 UWMap::iterator::operator-(UWMap::iterator const &)
FUNC 16be4 a 0 __FrameHandler3::TryBlockMap::iterator::operator<(__FrameHandler3::TryBlockMap::iterator const &)
FUNC 16bf0 a 0 __FrameHandler4::TryBlockMap::iterator::operator<(__FrameHandler4::TryBlockMap::iterator const &)
FUNC 16bfc c 0 UWMap::iterator::operator>(UWMap::iterator const &)
FUNC 16c0c c 0 UWMap::iterator::operator>=(UWMap::iterator const &)
FUNC 16c1c 42 0 std::bad_exception::`scalar deleting destructor'(unsigned int)
FUNC 16c70 42 0 std::exception::`scalar deleting destructor'(unsigned int)
FUNC 16cc4 5 0 __FrameHandler3::BuildCatchObject(EHExceptionRecord *,void *,_s_HandlerType const *,_s_CatchableType const *)
FUNC 16ccc 5 0 __FrameHandler4::BuildCatchObject(EHExceptionRecord *,void *,HandlerType4 *,_s_CatchableType const *)
FUNC 16cd4 5 0 __FrameHandler3::BuildCatchObjectHelper(EHExceptionRecord *,void *,_s_HandlerType const *,_s_CatchableType const *)
FUNC 16cdc 5 0 __FrameHandler4::BuildCatchObjectHelper(EHExceptionRecord *,void *,HandlerType4 *,_s_CatchableType const *)
FUNC 16ce4 1ea 0 __FrameHandler3::CxxCallCatchBlock(_EXCEPTION_RECORD *)
FUNC 16f48 240 0 __FrameHandler4::CxxCallCatchBlock(_EXCEPTION_RECORD *)
FUNC 17218 147 0 __FrameHandler4::HandlerMap::DecompHandler()
FUNC 173b0 87 0 ExFilterRethrow
FUNC 17458 193 0 __FrameHandler3::FrameUnwindToState(unsigned __int64 *,_xDISPATCHER_CONTEXT *,_s_FuncInfo const *,int)
FUNC 17650 2d9 0 __FrameHandler4::FrameUnwindToState(unsigned __int64 *,_xDISPATCHER_CONTEXT *,FuncInfo4 *,int)
FUNC 179e0 96 0 __FrameHandler3::GetHandlerSearchState(unsigned __int64 *,_xDISPATCHER_CONTEXT *,_s_FuncInfo const *)
FUNC 17a9c 37 0 __FrameHandler4::GetHandlerSearchState(unsigned __int64 *,_xDISPATCHER_CONTEXT *,FuncInfo4 *)
FUNC 17ae0 4 0 __FrameHandler3::GetMaxState(_xDISPATCHER_CONTEXT *,_s_FuncInfo const *)
FUNC 17ae4 38 0 __FrameHandler4::GetMaxState(_xDISPATCHER_CONTEXT *,FuncInfo4 *)
FUNC 17b2c d6 0 IsInExceptionSpec
FUNC 17c38 91 0 Is_bad_exception_allowed
FUNC 17cf0 99 0 UWMap::ReadEntry()
FUNC 17db0 5 0 __FrameHandler3::TypeMatch(_s_HandlerType const *,_s_CatchableType const *,_s_ThrowInfo const *)
FUNC 17db8 5 0 __FrameHandler4::TypeMatch(HandlerType4 *,_s_CatchableType const *,_s_ThrowInfo const *)
FUNC 17dc0 2e 0 UWMap::WalkBack()
FUNC 17dfc 9 0 _CallMemberFunction1(void * const,void * const,void * const)
FUNC 17e08 f 0 _CallMemberFunction2(void * const,void * const,void * const,int)
FUNC 17e1c 7 0 _ValidateExecute(__int64 (*)(void))
FUNC 17e24 7 0 _ValidateRead(void const *,unsigned int)
FUNC 17e2c 7 0 _ValidateWrite(void *,unsigned int)
FUNC 17e34 14 0 __RethrowException
FUNC 17e50 b 0 __FrameHandler3::HandlerMap::begin()
FUNC 17e60 b 0 __FrameHandler4::HandlerMap::begin()
FUNC 17e70 f 0 UWMap::begin()
FUNC 17e84 c 0 __FrameHandler3::HandlerMap::end()
FUNC 17e94 c 0 __FrameHandler4::HandlerMap::end()
FUNC 17ea4 28 0 __FrameHandler3::getESTypes(_s_FuncInfo const *)
FUNC 17ed8 3 0 __FrameHandler4::getESTypes(FuncInfo4 *)
FUNC 17edc 13 0 __FrameHandler3::HandlerMap::getLastEntry()
FUNC 17ef4 4e 0 __FrameHandler4::HandlerMap::getLastEntry()
FUNC 17f58 8 0 __FrameHandler3::getMagicNum(_s_FuncInfo const *)
FUNC 17f64 6 0 __FrameHandler4::getMagicNum(FuncInfo4 *)
FUNC 17f6c 7 0 __FrameHandler3::TryBlockMap::getNumTryBlocks()
FUNC 17f74 3 0 __FrameHandler4::TryBlockMap::getNumTryBlocks()
FUNC 17f78 12 0 UWMap::getOffsetIter(__int64)
FUNC 17f90 a1 0 UWMap::getStartStop(int,int,UWMap::iterator &,UWMap::iterator &)
FUNC 1805c 86 0 UWMap::getStateIter(int)
FUNC 18104 6 0 __FrameHandler3::isEHs(_s_FuncInfo const *)
FUNC 1810c 8 0 __FrameHandler4::isEHs(FuncInfo4 *)
FUNC 18118 9 0 __FrameHandler3::isNoExcept(_s_FuncInfo const *)
FUNC 18124 8 0 __FrameHandler4::isNoExcept(FuncInfo4 *)
FUNC 18130 11 0 HandlerType4::reset()
FUNC 18148 d 0 __FrameHandler4::HandlerMap::resetBuffer()
FUNC 18158 39 0 __FrameHandler4::HandlerMap::setBuffer(unsigned int)
FUNC 181a0 12 0 std::exception::what()
FUNC 181b8 5 0 _BuildCatchObject
FUNC 181c0 5 0 _BuildCatchObjectHelper
FUNC 181c8 5 0 _TypeMatch
FUNC 181d0 7 0 _vcrt_EncodePointer
FUNC 181f0 40 0 CallSettingFrame
FUNC 18240 47 0 CallSettingFrameEncoded
FUNC 182b0 8 0 __crt_public_free_policy::operator()<char>(char const * const)
FUNC 182bc 7 0 __crt_unique_heap_ptr<char,__crt_public_free_policy>::__crt_unique_heap_ptr<char,__crt_public_free_policy>(char * const)
FUNC 182c4 1b 0 __crt_unique_heap_ptr<char,__crt_public_free_policy>::~__crt_unique_heap_ptr<char,__crt_public_free_policy>()
FUNC 182e8 8 0 __crt_unique_heap_ptr<char,__crt_public_free_policy>::operator bool()
FUNC 182f4 8 0 __crt_unique_heap_ptr<char,__crt_public_free_policy>::detach()
FUNC 18300 4 0 __crt_unique_heap_ptr<char,__crt_public_free_policy>::get()
FUNC 18304 8 0 __crt_unique_heap_ptr<char,__crt_public_free_policy>::is_valid()
FUNC 18310 1b 0 __crt_unique_heap_ptr<char,__crt_public_free_policy>::release()
FUNC 18334 8d 0 _std_exception_copy
FUNC 183e4 25 0 _std_exception_destroy
FUNC 18414 bf 0 CxxThrowException
FUNC 18504 1d 0 xcptlookup
FUNC 18528 13 0 seh_filter_dll
FUNC 18540 175 0 seh_filter_exe
FUNC 18714 3 0 issue_debug_notification
FUNC 18718 2b 0 should_write_error_to_console
FUNC 18750 a8 0 write_string_to_console
FUNC 18824 1b3 0 _acrt_report_runtime_error
FUNC 18a44 31 0 invoke_watson_if_error
FUNC 18a84 7 0 query_app_type
FUNC 18a8c 7 0 set_app_type
FUNC 18a94 16 0 __crt_fast_decode_pointer<int (*)(_exception *)>(int (*const)(_exception *))
FUNC 18ab0 1e 0 __crt_fast_encode_pointer<int (*)(_exception *)>(int (*const)(_exception *))
FUNC 18ad8 3 0 __crt_state_management::get_current_state_index()
FUNC 18adc 27 0 __crt_state_management::dual_state_global<int (*)(_exception *)>::initialize(int (*const)(_exception *))
FUNC 18b0c 4 0 __crt_state_management::dual_state_global<int (*)(_exception *)>::value()
FUNC 18b10 1d 0 _acrt_has_user_matherr
FUNC 18b34 8 0 _acrt_initialize_user_matherr
FUNC 18b40 2e 0 _acrt_invoke_user_matherr
FUNC 18b7c 25 0 _setusermatherr
FUNC 18bac 8 0 __crt_internal_free_policy::operator()<unsigned char>(unsigned char const * const)
FUNC 18bb8 8 0 __crt_internal_free_policy::operator()<char *>(char * const * const)
FUNC 18bc4 8 0 __crt_internal_free_policy::operator()<wchar_t *>(wchar_t * const * const)
FUNC 18bd0 175 0 common_configure_argv<char>
FUNC 18da4 171 0 common_configure_argv<wchar_t>
FUNC 18f74 b 0 __crt_char_traits<char>::get_module_file_name<std::nullptr_t,char (&)[261],int>( ?? :: ?? ::Z::D$$QEAH::$TAEAY0BAF &&, ?? )
FUNC 18f84 d 0 __crt_char_traits<wchar_t>::get_module_file_name<std::nullptr_t,wchar_t (&)[261],int>( ?? :: ?? ::Z::_W$$QEAH::$TAEAY0BAF &&, ?? )
FUNC 18f94 1c3 0 parse_command_line<char>
FUNC 191c8 1a2 0 parse_command_line<wchar_t>
FUNC 193d4 b 0 __crt_char_traits<char>::set_program_name<char *>(char * &&)
FUNC 193e4 b 0 __crt_char_traits<wchar_t>::set_program_name<wchar_t *>(wchar_t * &&)
FUNC 193f4 7 0 <lambda_a36aafc41185bea294aaaa3896c79ecc>::<lambda_a36aafc41185bea294aaaa3896c79ecc>
FUNC 193fc 7 0 <lambda_df1553121bfa390f1154bd84936f2730>::<lambda_df1553121bfa390f1154bd84936f2730>
FUNC 19404 7 0 __crt_unique_heap_ptr<unsigned char,__crt_internal_free_policy>::__crt_unique_heap_ptr<unsigned char,__crt_internal_free_policy>(unsigned char * const)
FUNC 1940c 7 0 __crt_unique_heap_ptr<char *,__crt_internal_free_policy>::__crt_unique_heap_ptr<char *,__crt_internal_free_policy>(char * * const)
FUNC 19414 7 0 __crt_unique_heap_ptr<wchar_t *,__crt_internal_free_policy>::__crt_unique_heap_ptr<wchar_t *,__crt_internal_free_policy>(wchar_t * * const)
FUNC 1941c 1b 0 __crt_unique_heap_ptr<unsigned char,__crt_internal_free_policy>::~__crt_unique_heap_ptr<unsigned char,__crt_internal_free_policy>()
FUNC 19440 1b 0 __crt_unique_heap_ptr<char *,__crt_internal_free_policy>::~__crt_unique_heap_ptr<char *,__crt_internal_free_policy>()
FUNC 19464 1b 0 __crt_unique_heap_ptr<wchar_t *,__crt_internal_free_policy>::~__crt_unique_heap_ptr<wchar_t *,__crt_internal_free_policy>()
FUNC 19488 8 0 __crt_unique_heap_ptr<unsigned char,__crt_internal_free_policy>::operator bool()
FUNC 19494 1b 0 <lambda_a36aafc41185bea294aaaa3896c79ecc>::operator()
FUNC 194b8 1b 0 <lambda_df1553121bfa390f1154bd84936f2730>::operator()
FUNC 194dc 8 0 __crt_unique_heap_ptr<unsigned char,__crt_internal_free_policy>::detach()
FUNC 194e8 8 0 __crt_unique_heap_ptr<char *,__crt_internal_free_policy>::detach()
FUNC 194f4 8 0 __crt_unique_heap_ptr<wchar_t *,__crt_internal_free_policy>::detach()
FUNC 19500 5 0 do_locale_initialization
FUNC 19508 3 0 do_locale_initialization
FUNC 1950c 5 0 expand_argv_wildcards
FUNC 19514 5 0 expand_argv_wildcards
FUNC 1951c 4 0 __crt_unique_heap_ptr<unsigned char,__crt_internal_free_policy>::get()
FUNC 19520 4 0 __crt_unique_heap_ptr<char *,__crt_internal_free_policy>::get()
FUNC 19524 4 0 __crt_unique_heap_ptr<wchar_t *,__crt_internal_free_policy>::get()
FUNC 19528 4 0 __crt_unique_heap_ptr<char *,__crt_internal_free_policy>::get_address_of()
FUNC 1952c 4 0 __crt_unique_heap_ptr<wchar_t *,__crt_internal_free_policy>::get_address_of()
FUNC 19530 8 0 get_argv
FUNC 1953c 8 0 get_argv
FUNC 19548 8 0 get_command_line
FUNC 19554 8 0 get_command_line
FUNC 19560 8 0 __crt_unique_heap_ptr<unsigned char,__crt_internal_free_policy>::is_valid()
FUNC 1956c 1b 0 __crt_unique_heap_ptr<unsigned char,__crt_internal_free_policy>::release()
FUNC 19590 1b 0 __crt_unique_heap_ptr<char *,__crt_internal_free_policy>::release()
FUNC 195b4 1b 0 __crt_unique_heap_ptr<wchar_t *,__crt_internal_free_policy>::release()
FUNC 195d8 16 0 should_copy_another_character
FUNC 195f4 3 0 should_copy_another_character
FUNC 195f8 5d 0 _acrt_allocate_buffer_for_argv
FUNC 1966c 186 0 configure_narrow_argv
FUNC 19854 182 0 configure_wide_argv
FUNC 19a38 8 0 set_pgmptr
FUNC 19a44 8 0 set_wpgmptr
FUNC 19a50 8 0 __crt_internal_free_policy::operator()<wchar_t>(wchar_t const * const)
FUNC 19a5c 4e 0 common_get_initial_environment<char>
FUNC 19ac0 4e 0 common_get_initial_environment<wchar_t>
FUNC 19b24 3b 0 common_get_or_create_environment_nolock<char>
FUNC 19b70 3b 0 common_get_or_create_environment_nolock<wchar_t>
FUNC 19bbc 6c 0 common_initialize_environment_nolock<char>
FUNC 19c44 67 0 common_initialize_environment_nolock<wchar_t>
FUNC 19cc4 32 0 count_variables_in_environment_block<char>
FUNC 19d04 3c 0 count_variables_in_environment_block<wchar_t>
FUNC 19d50 106 0 create_environment<char>
FUNC 19e98 113 0 create_environment<wchar_t>
FUNC 19ff0 41 0 free_environment<char>
FUNC 1a044 41 0 free_environment<wchar_t>
FUNC 1a098 5 0 __crt_char_traits<char>::get_environment_from_os<>()
FUNC 1a0a0 5 0 __crt_char_traits<wchar_t>::get_environment_from_os<>()
FUNC 1a0a8 d1 0 initialize_environment_by_cloning_nolock<char>
FUNC 1a1b0 ae 0 initialize_environment_by_cloning_nolock<wchar_t>
FUNC 1a28c a 0 __crt_char_traits<char>::set_variable_in_environment_nolock<char *,int>(char * &&,int &&)
FUNC 1a298 a 0 __crt_char_traits<wchar_t>::set_variable_in_environment_nolock<wchar_t *,int>(wchar_t * &&,int &&)
FUNC 1a2a4 e 0 __crt_char_traits<char>::tcscpy_s<char *,unsigned __int64 const &,char * &>(char * &&,unsigned __int64 const &,char * &)
FUNC 1a2b8 e 0 __crt_char_traits<wchar_t>::tcscpy_s<wchar_t *,unsigned __int64 const &,wchar_t * &>(wchar_t * &&,unsigned __int64 const &,wchar_t * &)
FUNC 1a2cc 11 0 __crt_char_traits<char>::tcslen<char * &>(char * &)
FUNC 1a2e4 12 0 __crt_char_traits<wchar_t>::tcslen<wchar_t * &>(wchar_t * &)
FUNC 1a2fc 43 0 __crt_state_management::dual_state_global<char * *>::uninitialize<void (&)(char * * &)>(void (&)(char * * &))
FUNC 1a350 43 0 __crt_state_management::dual_state_global<wchar_t * *>::uninitialize<void (&)(wchar_t * * &)>(void (&)(wchar_t * * &))
FUNC 1a3a4 1a 0 uninitialize_environment_internal<char>
FUNC 1a3c4 1a 0 uninitialize_environment_internal<wchar_t>
FUNC 1a3e4 7 0 __crt_unique_heap_ptr<wchar_t,__crt_internal_free_policy>::__crt_unique_heap_ptr<wchar_t,__crt_internal_free_policy>(wchar_t * const)
FUNC 1a3ec 1b 0 __crt_unique_heap_ptr<wchar_t,__crt_internal_free_policy>::~__crt_unique_heap_ptr<wchar_t,__crt_internal_free_policy>()
FUNC 1a410 8 0 __crt_unique_heap_ptr<char *,__crt_internal_free_policy>::operator bool()
FUNC 1a41c 8 0 __crt_unique_heap_ptr<wchar_t *,__crt_internal_free_policy>::operator bool()
FUNC 1a428 8 0 __crt_unique_heap_ptr<wchar_t,__crt_internal_free_policy>::operator bool()
FUNC 1a434 24 0 __crt_compute_required_transform_buffer_count(unsigned int,char const * const)
FUNC 1a464 2e 0 __crt_compute_required_transform_buffer_count(unsigned int,wchar_t const * const)
FUNC 1a4a0 23 0 __crt_transform_string(unsigned int,char const * const,wchar_t * const,unsigned __int64)
FUNC 1a4cc 2e 0 __crt_transform_string(unsigned int,wchar_t const * const,char * const,unsigned __int64)
FUNC 1a508 8 0 __crt_unique_heap_ptr<char,__crt_internal_free_policy>::detach()
FUNC 1a514 8 0 __crt_unique_heap_ptr<wchar_t,__crt_internal_free_policy>::detach()
FUNC 1a520 4 0 __crt_unique_heap_ptr<wchar_t,__crt_internal_free_policy>::get()
FUNC 1a524 8 0 get_dual_state_environment_nolock
FUNC 1a530 8 0 get_dual_state_environment_nolock
FUNC 1a53c 8 0 get_environment_nolock
FUNC 1a548 8 0 get_environment_nolock
FUNC 1a554 8 0 get_initial_environment
FUNC 1a560 8 0 get_initial_environment
FUNC 1a56c 27 0 __crt_state_management::dual_state_global<char * *>::initialize(char * * const)
FUNC 1a59c 27 0 __crt_state_management::dual_state_global<wchar_t * *>::initialize(wchar_t * * const)
FUNC 1a5cc 8 0 __crt_unique_heap_ptr<char *,__crt_internal_free_policy>::is_valid()
FUNC 1a5d8 8 0 __crt_unique_heap_ptr<wchar_t *,__crt_internal_free_policy>::is_valid()
FUNC 1a5e4 8 0 __crt_unique_heap_ptr<wchar_t,__crt_internal_free_policy>::is_valid()
FUNC 1a5f0 5 0 pre_initialize
FUNC 1a5f8 3 0 pre_initialize
FUNC 1a5fc 1b 0 __crt_unique_heap_ptr<wchar_t,__crt_internal_free_policy>::release()
FUNC 1a620 4 0 __crt_state_management::dual_state_global<char * *>::value()
FUNC 1a624 4 0 __crt_state_management::dual_state_global<wchar_t * *>::value()
FUNC 1a628 3b 0 _dcrt_get_or_create_narrow_environment_nolock
FUNC 1a674 3b 0 _dcrt_get_or_create_wide_environment_nolock
FUNC 1a6c0 38 0 _dcrt_uninitialize_environments_nolock
FUNC 1a708 8 0 _p__environ
FUNC 1a714 8 0 _p__wenviron
FUNC 1a720 4e 0 get_initial_narrow_environment
FUNC 1a784 4e 0 get_initial_wide_environment
FUNC 1a7e8 5 0 initialize_narrow_environment
FUNC 1a7f0 5 0 initialize_wide_environment
FUNC 1a7f8 64 0 initterm
FUNC 1a878 3d 0 initterm_e
FUNC 1a8c4 1c 0 __crt_fast_encoded_nullptr_t::operator<void > void (*)(void *,unsigned long,void *)()
FUNC 1a8e8 38 0 __crt_seh_guarded_call<void>::operator()<<lambda_d80eeec6fff315bfe5c115232f3240e3>,<lambda_6e4b09c48022b2350581041d5f6b0c4c> & __ptr64,<lambda_2358e3775559c9db80273638284d5e45> >
FUNC 1a930 26 0 __acrt_lock_and_call<<lambda_6e4b09c48022b2350581041d5f6b0c4c> >
FUNC 1a960 16 0 __crt_fast_decode_pointer<void (*)(void *,unsigned long,void *)>(void (*const)(void *,unsigned long,void *))
FUNC 1a97c 1e 0 __crt_fast_encode_pointer<void (*)(void *,unsigned long,void *)>(void (*const)(void *,unsigned long,void *))
FUNC 1a9a4 7 0 __crt_get_proc_address<void (*)(unsigned int)>(HINSTANCE__ * const,char const * const)
FUNC 1a9ac 3 0 __crt_interlocked_read<long>(long const volatile *)
FUNC 1a9b0 8 0 <lambda_2358e3775559c9db80273638284d5e45>::<lambda_2358e3775559c9db80273638284d5e45>
FUNC 1a9bc f 0 <lambda_6e4b09c48022b2350581041d5f6b0c4c>::<lambda_6e4b09c48022b2350581041d5f6b0c4c>
FUNC 1a9d0 8 0 <lambda_d80eeec6fff315bfe5c115232f3240e3>::<lambda_d80eeec6fff315bfe5c115232f3240e3>
FUNC 1a9dc 7 0 __crt_unique_handle_t<__crt_hmodule_traits>::__crt_unique_handle_t<__crt_hmodule_traits>(HINSTANCE__ * const)
FUNC 1a9e4 21 0 __crt_unique_handle_t<__crt_hmodule_traits>::~__crt_unique_handle_t<__crt_hmodule_traits>()
FUNC 1aa10 7 0 <lambda_2358e3775559c9db80273638284d5e45>::operator()
FUNC 1aa18 d6 0 <lambda_6e4b09c48022b2350581041d5f6b0c4c>::operator()
FUNC 1ab24 7 0 <lambda_d80eeec6fff315bfe5c115232f3240e3>::operator()
FUNC 1ab2c 6 0 __acrt_select_exit_lock()
FUNC 1ab34 3 0 __crt_interlocked_read_32(int const volatile *)
FUNC 1ab38 c 0 atexit_exception_filter
FUNC 1ab48 21 0 __crt_unique_handle_t<__crt_hmodule_traits>::close()
FUNC 1ab74 14 0 __crt_hmodule_traits::close(HINSTANCE__ *)
FUNC 1ab90 bc 0 common_exit
FUNC 1ac7c 4a 0 exit_or_terminate_process
FUNC 1acd8 4 0 __crt_unique_handle_t<__crt_hmodule_traits>::get()
FUNC 1acdc 4 0 __crt_unique_handle_t<__crt_hmodule_traits>::get_address_of()
FUNC 1ace0 3 0 __crt_hmodule_traits::get_invalid_value()
FUNC 1ace4 54 0 is_managed_app
FUNC 1ad50 2d 0 should_call_terminate_process
FUNC 1ad88 5b 0 try_cor_exit_process
FUNC 1adfc c 0 Exit
FUNC 1ae0c 8 0 _acrt_initialize_thread_local_exit_callback
FUNC 1ae18 10 0 c_exit
FUNC 1ae2c d 0 cexit
FUNC 1ae3c c 0 exit
FUNC 1ae4c 7 0 is_c_termination_complete
FUNC 1ae54 44 0 register_thread_local_exe_atexit_callback
FUNC 1aeac a 0 exit
FUNC 1aeb8 c 0 quick_exit
FUNC 1aec8 3 0 __crt_interlocked_read<int>(int const volatile *)
FUNC 1aecc 4 0 __crt_state_management::dual_state_global<int>::value()
FUNC 1aed0 2f 0 get_fmode
FUNC 1af0c 3d 0 set_fmode
FUNC 1af58 102 0 setmode
FUNC 1b09c df 0 setmode_nolock
FUNC 1b1b4 25 0 _acrt_initialize_command_line
FUNC 1b1e4 3 0 _acrt_uninitialize_command_line
FUNC 1b1e8 8 0 _p___argc
FUNC 1b1f4 8 0 _p___argv
FUNC 1b200 8 0 _p___wargv
FUNC 1b20c 8 0 _p__acmdln
FUNC 1b218 8 0 _p__pgmptr
FUNC 1b224 8 0 _p__wcmdln
FUNC 1b230 8 0 _p__wpgmptr
FUNC 1b23c 36 0 get_pgmptr
FUNC 1b280 36 0 get_wpgmptr
FUNC 1b2c4 3 0 no_op_initialize
FUNC 1b2c8 8 0 __crt_internal_free_policy::operator()<__crt_locale_data>(__crt_locale_data const * const)
FUNC 1b2d4 8 0 __crt_internal_free_policy::operator()<__crt_locale_pointers>(__crt_locale_pointers const * const)
FUNC 1b2e0 8 0 __crt_internal_free_policy::operator()<__crt_multibyte_data>(__crt_multibyte_data const * const)
FUNC 1b2ec 3e 0 __crt_seh_guarded_call<void>::operator()<<lambda_0a55505eb881d180377eb1fc64ffb544>,<lambda_862e9a3f04921db6ca1ce3faa2bf3edf> & __ptr64,<lambda_c91f0b5e4ab41df1063aa1a95f49bd71> >
FUNC 1b33c 13a 0 __crt_seh_guarded_call<void>::operator()<<lambda_1d892b297fdedeee07ed8124eeb2f2fa>,<lambda_ffc046909424fd52df0ac47e64813305> & __ptr64,<lambda_01a7098693036236037e7cdb9bca3d73> >
FUNC 1b4c4 6e 0 __crt_seh_guarded_call<void>::operator()<<lambda_410d79af7f07d98d83a3f525b3859a53>,<lambda_3e16ef9562a7dcce91392c22ab16ea36> & __ptr64,<lambda_38119f0e861e05405d8a144b9b982f0a> >
FUNC 1b550 29 0 __crt_seh_guarded_call<void>::operator()<<lambda_7f2adfce497ff2baa965cd4f576ecfd1>,<lambda_2a444430fde8c29194d880d93eed5e8f> & __ptr64,<lambda_8dff2cf36a5417162780cd64fa2883ef> & __ptr64>
FUNC 1b584 41 0 __crt_seh_guarded_call<void>::operator()<<lambda_a48fd90c2dacdd6561e44078457d03a7>,<lambda_ebab98244f73a74f49db879bf13fa982> & __ptr64,<lambda_8b3bdacfa7480f205f16cb49964db269> >
FUNC 1b5d8 26 0 __acrt_lock_and_call<<lambda_3e16ef9562a7dcce91392c22ab16ea36> >
FUNC 1b608 26 0 __acrt_lock_and_call<<lambda_862e9a3f04921db6ca1ce3faa2bf3edf> >
FUNC 1b638 26 0 __acrt_lock_and_call<<lambda_ebab98244f73a74f49db879bf13fa982> >
FUNC 1b668 26 0 __acrt_lock_and_call<<lambda_ffc046909424fd52df0ac47e64813305> >
FUNC 1b698 15 0 __crt_call_and_cleanup<<lambda_2a444430fde8c29194d880d93eed5e8f>,<lambda_8dff2cf36a5417162780cd64fa2883ef> >
FUNC 1b6b4 3 0 __vcrt_va_start_verify_argument_type<int>()
FUNC 1b6b8 4e 0 __crt_state_management::dual_state_global<__crt_locale_data * __ptr64>::uninitialize<<lambda_363eea9039da1e8169e2d060c7fe5cbc> >
FUNC 1b71c 8 0 <lambda_01a7098693036236037e7cdb9bca3d73>::<lambda_01a7098693036236037e7cdb9bca3d73>
FUNC 1b728 8 0 <lambda_0a55505eb881d180377eb1fc64ffb544>::<lambda_0a55505eb881d180377eb1fc64ffb544>
FUNC 1b734 8 0 <lambda_1d892b297fdedeee07ed8124eeb2f2fa>::<lambda_1d892b297fdedeee07ed8124eeb2f2fa>
FUNC 1b740 21 0 <lambda_2a444430fde8c29194d880d93eed5e8f>::<lambda_2a444430fde8c29194d880d93eed5e8f>
FUNC 1b76c 8 0 <lambda_38119f0e861e05405d8a144b9b982f0a>::<lambda_38119f0e861e05405d8a144b9b982f0a>
FUNC 1b778 8 0 <lambda_410d79af7f07d98d83a3f525b3859a53>::<lambda_410d79af7f07d98d83a3f525b3859a53>
FUNC 1b784 7 0 <lambda_862e9a3f04921db6ca1ce3faa2bf3edf>::<lambda_862e9a3f04921db6ca1ce3faa2bf3edf>
FUNC 1b78c 8 0 <lambda_8b3bdacfa7480f205f16cb49964db269>::<lambda_8b3bdacfa7480f205f16cb49964db269>
FUNC 1b798 7 0 <lambda_8dff2cf36a5417162780cd64fa2883ef>::<lambda_8dff2cf36a5417162780cd64fa2883ef>
FUNC 1b7a0 8 0 <lambda_a48fd90c2dacdd6561e44078457d03a7>::<lambda_a48fd90c2dacdd6561e44078457d03a7>
FUNC 1b7ac 8 0 <lambda_c91f0b5e4ab41df1063aa1a95f49bd71>::<lambda_c91f0b5e4ab41df1063aa1a95f49bd71>
FUNC 1b7b8 7 0 <lambda_ebab98244f73a74f49db879bf13fa982>::<lambda_ebab98244f73a74f49db879bf13fa982>
FUNC 1b7c0 21 0 <lambda_ffc046909424fd52df0ac47e64813305>::<lambda_ffc046909424fd52df0ac47e64813305>
FUNC 1b7ec 7 0 __crt_unique_heap_ptr<__crt_locale_data,__crt_internal_free_policy>::__crt_unique_heap_ptr<__crt_locale_data,__crt_internal_free_policy>(__crt_locale_data * const)
FUNC 1b7f4 7 0 __crt_unique_heap_ptr<__crt_locale_pointers,__crt_internal_free_policy>::__crt_unique_heap_ptr<__crt_locale_pointers,__crt_internal_free_policy>(__crt_locale_pointers * const)
FUNC 1b7fc 7 0 __crt_unique_heap_ptr<__crt_multibyte_data,__crt_internal_free_policy>::__crt_unique_heap_ptr<__crt_multibyte_data,__crt_internal_free_policy>(__crt_multibyte_data * const)
FUNC 1b804 1b 0 __crt_unique_heap_ptr<__crt_locale_data,__crt_internal_free_policy>::~__crt_unique_heap_ptr<__crt_locale_data,__crt_internal_free_policy>()
FUNC 1b828 1b 0 __crt_unique_heap_ptr<__crt_locale_pointers,__crt_internal_free_policy>::~__crt_unique_heap_ptr<__crt_locale_pointers,__crt_internal_free_policy>()
FUNC 1b84c 1b 0 __crt_unique_heap_ptr<__crt_multibyte_data,__crt_internal_free_policy>::~__crt_unique_heap_ptr<__crt_multibyte_data,__crt_internal_free_policy>()
FUNC 1b870 8 0 __crt_unique_heap_ptr<__crt_locale_data,__crt_internal_free_policy>::operator bool()
FUNC 1b87c 8 0 __crt_unique_heap_ptr<__crt_locale_pointers,__crt_internal_free_policy>::operator bool()
FUNC 1b888 8 0 __crt_unique_heap_ptr<__crt_multibyte_data,__crt_internal_free_policy>::operator bool()
FUNC 1b894 7 0 <lambda_01a7098693036236037e7cdb9bca3d73>::operator()
FUNC 1b89c 7 0 <lambda_0a55505eb881d180377eb1fc64ffb544>::operator()
FUNC 1b8a4 7 0 <lambda_1d892b297fdedeee07ed8124eeb2f2fa>::operator()
FUNC 1b8ac 8e 0 <lambda_2a444430fde8c29194d880d93eed5e8f>::operator()
FUNC 1b960 26 0 <lambda_363eea9039da1e8169e2d060c7fe5cbc>::operator()
FUNC 1b990 7 0 <lambda_38119f0e861e05405d8a144b9b982f0a>::operator()
FUNC 1b998 2c 0 <lambda_3e16ef9562a7dcce91392c22ab16ea36>::operator()
FUNC 1b9d0 7 0 <lambda_410d79af7f07d98d83a3f525b3859a53>::operator()
FUNC 1b9d8 3 0 <lambda_7f2adfce497ff2baa965cd4f576ecfd1>::operator()
FUNC 1b9dc e 0 <lambda_862e9a3f04921db6ca1ce3faa2bf3edf>::operator()
FUNC 1b9f0 7 0 <lambda_8b3bdacfa7480f205f16cb49964db269>::operator()
FUNC 1b9f8 e 0 <lambda_8dff2cf36a5417162780cd64fa2883ef>::operator()
FUNC 1ba0c 7 0 <lambda_a48fd90c2dacdd6561e44078457d03a7>::operator()
FUNC 1ba14 7 0 <lambda_c91f0b5e4ab41df1063aa1a95f49bd71>::operator()
FUNC 1ba1c e 0 <lambda_ebab98244f73a74f49db879bf13fa982>::operator()
FUNC 1ba30 11d 0 <lambda_ffc046909424fd52df0ac47e64813305>::operator()
FUNC 1bb94 8 0 __crt_unique_heap_ptr<__crt_locale_data,__crt_internal_free_policy>::detach()
FUNC 1bba0 8 0 __crt_unique_heap_ptr<__crt_locale_pointers,__crt_internal_free_policy>::detach()
FUNC 1bbac 8 0 __crt_unique_heap_ptr<__crt_multibyte_data,__crt_internal_free_policy>::detach()
FUNC 1bbb8 4 0 __crt_unique_heap_ptr<__crt_locale_data,__crt_internal_free_policy>::get()
FUNC 1bbbc 4 0 __crt_unique_heap_ptr<__crt_locale_pointers,__crt_internal_free_policy>::get()
FUNC 1bbc0 4 0 __crt_unique_heap_ptr<__crt_multibyte_data,__crt_internal_free_policy>::get()
FUNC 1bbc4 8 0 __crt_unique_heap_ptr<__crt_locale_data,__crt_internal_free_policy>::is_valid()
FUNC 1bbd0 8 0 __crt_unique_heap_ptr<__crt_locale_pointers,__crt_internal_free_policy>::is_valid()
FUNC 1bbdc 8 0 __crt_unique_heap_ptr<__crt_multibyte_data,__crt_internal_free_policy>::is_valid()
FUNC 1bbe8 1b 0 __crt_unique_heap_ptr<__crt_locale_data,__crt_internal_free_policy>::release()
FUNC 1bc0c 1b 0 __crt_unique_heap_ptr<__crt_locale_pointers,__crt_internal_free_policy>::release()
FUNC 1bc30 1b 0 __crt_unique_heap_ptr<__crt_multibyte_data,__crt_internal_free_policy>::release()
FUNC 1bc54 4 0 __crt_state_management::dual_state_global<__crt_locale_data *>::value()
FUNC 1bc58 82 0 _acrt_copy_locale_name
FUNC 1bcfc c 0 _acrt_set_locale_changed
FUNC 1bd0c 2e 0 _acrt_uninitialize_locale
FUNC 1bd48 a2 0 _lc_lctowcs
FUNC 1be14 1c0 0 _lc_wcstolc
FUNC 1c044 69 0 configthreadlocale
FUNC 1c0c8 be 0 _copytlocinfo_nolock
FUNC 1c1b8 76 0 create_locale
FUNC 1c24c 487 0 expandlocale
FUNC 1c7f4 a2 0 free_locale
FUNC 1c8c0 bb 0 get_current_locale
FUNC 1c9ac 148 0 wcreate_locale
FUNC 1cb48 65 0 wcscats
FUNC 1cbc8 a1 0 wsetlocale
FUNC 1cc94 1e2 0 _wsetlocale_get_all
FUNC 1cef0 294 0 _wsetlocale_nolock
FUNC 1d22c 34f 0 _wsetlocale_set_cat
FUNC 1d650 29 0 sync_legacy_variables_lk
FUNC 1d684 4 0 __crt_state_management::dual_state_global<long>::value()
FUNC 1d688 7 0 query_new_mode
FUNC 1d690 2b 0 set_new_mode
FUNC 1d6c8 8 0 _p__commode
FUNC 1d6d4 1c 0 __crt_fast_encoded_nullptr_t::operator<void (*)(void)> void (**)(void)()
FUNC 1d6f8 8 0 __crt_internal_free_policy::operator()<void (*)(void)>(void (*const * const)(void))
FUNC 1d704 3b 0 __crt_seh_guarded_call<int>::operator()<<lambda_7777bce6b2f8c936911f934f8298dc43>,<lambda_f03950bc5685219e0bcd2087efbe011e> & __ptr64,<lambda_3883c3dff614d5e0c5f61bb1ac94921c> >
FUNC 1d750 3b 0 __crt_seh_guarded_call<int>::operator()<<lambda_8369fcb7c4df1e85de37618bd2b85f07>,<lambda_a10e4b102d4a2c3aac6f4f48bbdf488f> & __ptr64,<lambda_5b7707bd6d7a0c4713179f36c7fd995d> >
FUNC 1d79c 26 0 __acrt_lock_and_call<<lambda_a10e4b102d4a2c3aac6f4f48bbdf488f> >
FUNC 1d7cc 26 0 __acrt_lock_and_call<<lambda_f03950bc5685219e0bcd2087efbe011e> >
FUNC 1d7fc 1e 0 __crt_fast_encode_pointer<int (*)(void)>(int (*const)(void))
FUNC 1d824 8 0 <lambda_3883c3dff614d5e0c5f61bb1ac94921c>::<lambda_3883c3dff614d5e0c5f61bb1ac94921c>
FUNC 1d830 8 0 <lambda_5b7707bd6d7a0c4713179f36c7fd995d>::<lambda_5b7707bd6d7a0c4713179f36c7fd995d>
FUNC 1d83c 8 0 <lambda_7777bce6b2f8c936911f934f8298dc43>::<lambda_7777bce6b2f8c936911f934f8298dc43>
FUNC 1d848 8 0 <lambda_8369fcb7c4df1e85de37618bd2b85f07>::<lambda_8369fcb7c4df1e85de37618bd2b85f07>
FUNC 1d854 b 0 <lambda_a10e4b102d4a2c3aac6f4f48bbdf488f>::<lambda_a10e4b102d4a2c3aac6f4f48bbdf488f>
FUNC 1d864 7 0 <lambda_f03950bc5685219e0bcd2087efbe011e>::<lambda_f03950bc5685219e0bcd2087efbe011e>
FUNC 1d86c 7 0 __crt_unique_heap_ptr<void (*)(void),__crt_internal_free_policy>::__crt_unique_heap_ptr<void (*)(void),__crt_internal_free_policy>(void (** const)(void))
FUNC 1d874 1b 0 __crt_unique_heap_ptr<void (*)(void),__crt_internal_free_policy>::~__crt_unique_heap_ptr<void (*)(void),__crt_internal_free_policy>()
FUNC 1d898 3 0 __crt_state_management::scoped_global_state_reset::~scoped_global_state_reset()
FUNC 1d89c 7 0 <lambda_3883c3dff614d5e0c5f61bb1ac94921c>::operator()
FUNC 1d8a4 7 0 <lambda_5b7707bd6d7a0c4713179f36c7fd995d>::operator()
FUNC 1d8ac 7 0 <lambda_7777bce6b2f8c936911f934f8298dc43>::operator()
FUNC 1d8b4 7 0 <lambda_8369fcb7c4df1e85de37618bd2b85f07>::operator()
FUNC 1d8bc 1c3 0 <lambda_a10e4b102d4a2c3aac6f4f48bbdf488f>::operator()
FUNC 1daf0 149 0 <lambda_f03950bc5685219e0bcd2087efbe011e>::operator()
FUNC 1dc8c 8 0 __crt_unique_heap_ptr<void (*)(void),__crt_internal_free_policy>::detach()
FUNC 1dc98 1b 0 __crt_unique_heap_ptr<void (*)(void),__crt_internal_free_policy>::release()
FUNC 1dcbc f 0 crt_at_quick_exit
FUNC 1dcd0 f 0 crt_atexit
FUNC 1dce4 3a 0 execute_onexit_table
FUNC 1dd2c 3f 0 initialize_onexit_table
FUNC 1dd7c 48 0 register_onexit_function
FUNC 1ddd8 11 0 initialize_global_variables
FUNC 1ddf0 23 0 initialize_c
FUNC 1de1c 3 0 uninitialize_c
FUNC 1de20 3 0 initialize_environment
FUNC 1de24 10 0 uninitialize_environment
FUNC 1de38 3 0 initialize_global_state_isolation
FUNC 1de3c 3 0 uninitialize_global_state_isolation
FUNC 1de40 51 0 initialize_pointers
FUNC 1dea8 7 0 uninitialize_vcruntime
FUNC 1deb0 40 0 uninitialize_allocated_memory
FUNC 1df00 5b 0 uninitialize_allocated_io_buffers
FUNC 1df74 3 0 report_memory_leaks
FUNC 1df78 6f 0 __crt_state_management::dual_state_global<__crt_multibyte_data * __ptr64>::uninitialize<<lambda_af42a3ee9806e9a7305d451646e05244> >
FUNC 1e004 3e 0 <lambda_af42a3ee9806e9a7305d451646e05244>::operator()
FUNC 1e054 c 0 __acrt_stdio_is_initialized()
FUNC 1e064 27 0 __crt_state_management::dual_state_global<__crt_locale_data *>::initialize(__crt_locale_data * const)
FUNC 1e094 13 0 _acrt_initialize
FUNC 1e0ac 14 0 _acrt_thread_attach
FUNC 1e0c8 10 0 _acrt_thread_detach
FUNC 1e0dc 35 0 _acrt_uninitialize
FUNC 1e120 10 0 _acrt_uninitialize_critical
FUNC 1e134 12 0 get_terminate_or_default
FUNC 1e14c 22 0 get_terminate
FUNC 1e178 2c 0 set_terminate
FUNC 1e1b0 20 0 terminate
FUNC 1e1d8 11 0 free
FUNC 1e1f0 5 0 malloc
FUNC 1e1f8 71 0 common_tcscpy_s<char>
FUNC 1e288 6e 0 strcpy_s
FUNC 1e314 1c 0 set_abort_behavior
FUNC 1e338 56 0 abort
FUNC 1e3a4 5 0 calloc
FUNC 1e3ac 2c 0 wcsncmp
FUNC 1e3e4 81 0 __crt_stdio_output::format_validation_base<char,__crt_stdio_output::stream_output_adapter<char> >::format_validation_base<char,__crt_stdio_output::stream_output_adapter<char> ><__crt_stdio_output::stream_output_adapter<char> const &,unsigned __int64 const &,char const * const &,__crt_locale_pointers * const &,char * const &>(__crt_stdio_output::stream_output_adapter<char> const &,unsigned __int64 const &,char const * const &,__crt_locale_pointers * const &,char * const &)
FUNC 1e488 9e 0 __crt_stdio_output::positional_parameter_base<char,__crt_stdio_output::stream_output_adapter<char> >::positional_parameter_base<char,__crt_stdio_output::stream_output_adapter<char> ><__crt_stdio_output::stream_output_adapter<char> const &,unsigned __int64 const &,char const * const &,__crt_locale_pointers * const &,char * const &>(__crt_stdio_output::stream_output_adapter<char> const &,unsigned __int64 const &,char const * const &,__crt_locale_pointers * const &,char * const &)
FUNC 1e550 81 0 __crt_stdio_output::standard_base<char,__crt_stdio_output::stream_output_adapter<char> >::standard_base<char,__crt_stdio_output::stream_output_adapter<char> ><__crt_stdio_output::stream_output_adapter<char> const &,unsigned __int64 const &,char const * const &,__crt_locale_pointers * const &,char * const &>(__crt_stdio_output::stream_output_adapter<char> const &,unsigned __int64 const &,char const * const &,__crt_locale_pointers * const &,char * const &)
FUNC 1e5f4 85 0 __crt_stdio_output::format_validation_base<wchar_t,__crt_stdio_output::stream_output_adapter<wchar_t> >::format_validation_base<wchar_t,__crt_stdio_output::stream_output_adapter<wchar_t> ><__crt_stdio_output::stream_output_adapter<wchar_t> const &,unsigned __int64 const &,wchar_t const * const &,__crt_locale_pointers * const &,char * const &>(__crt_stdio_output::stream_output_adapter<wchar_t> const &,unsigned __int64 const &,wchar_t const * const &,__crt_locale_pointers * const &,char * const &)
FUNC 1e69c a2 0 __crt_stdio_output::positional_parameter_base<wchar_t,__crt_stdio_output::stream_output_adapter<wchar_t> >::positional_parameter_base<wchar_t,__crt_stdio_output::stream_output_adapter<wchar_t> ><__crt_stdio_output::stream_output_adapter<wchar_t> const &,unsigned __int64 const &,wchar_t const * const &,__crt_locale_pointers * const &,char * const &>(__crt_stdio_output::stream_output_adapter<wchar_t> const &,unsigned __int64 const &,wchar_t const * const &,__crt_locale_pointers * const &,char * const &)
FUNC 1e768 85 0 __crt_stdio_output::standard_base<wchar_t,__crt_stdio_output::stream_output_adapter<wchar_t> >::standard_base<wchar_t,__crt_stdio_output::stream_output_adapter<wchar_t> ><__crt_stdio_output::stream_output_adapter<wchar_t> const &,unsigned __int64 const &,wchar_t const * const &,__crt_locale_pointers * const &,char * const &>(__crt_stdio_output::stream_output_adapter<wchar_t> const &,unsigned __int64 const &,wchar_t const * const &,__crt_locale_pointers * const &,char * const &)
FUNC 1e810 81 0 __crt_stdio_output::format_validation_base<char,__crt_stdio_output::string_output_adapter<char> >::format_validation_base<char,__crt_stdio_output::string_output_adapter<char> ><__crt_stdio_output::string_output_adapter<char> const &,unsigned __int64 const &,char const * const &,__crt_locale_pointers * const &,char * const &>(__crt_stdio_output::string_output_adapter<char> const &,unsigned __int64 const &,char const * const &,__crt_locale_pointers * const &,char * const &)
FUNC 1e8b4 9e 0 __crt_stdio_output::positional_parameter_base<char,__crt_stdio_output::string_output_adapter<char> >::positional_parameter_base<char,__crt_stdio_output::string_output_adapter<char> ><__crt_stdio_output::string_output_adapter<char> const &,unsigned __int64 const &,char const * const &,__crt_locale_pointers * const &,char * const &>(__crt_stdio_output::string_output_adapter<char> const &,unsigned __int64 const &,char const * const &,__crt_locale_pointers * const &,char * const &)
FUNC 1e97c 81 0 __crt_stdio_output::standard_base<char,__crt_stdio_output::string_output_adapter<char> >::standard_base<char,__crt_stdio_output::string_output_adapter<char> ><__crt_stdio_output::string_output_adapter<char> const &,unsigned __int64 const &,char const * const &,__crt_locale_pointers * const &,char * const &>(__crt_stdio_output::string_output_adapter<char> const &,unsigned __int64 const &,char const * const &,__crt_locale_pointers * const &,char * const &)
FUNC 1ea20 85 0 __crt_stdio_output::format_validation_base<wchar_t,__crt_stdio_output::string_output_adapter<wchar_t> >::format_validation_base<wchar_t,__crt_stdio_output::string_output_adapter<wchar_t> ><__crt_stdio_output::string_output_adapter<wchar_t> const &,unsigned __int64 const &,wchar_t const * const &,__crt_locale_pointers * const &,char * const &>(__crt_stdio_output::string_output_adapter<wchar_t> const &,unsigned __int64 const &,wchar_t const * const &,__crt_locale_pointers * const &,char * const &)
FUNC 1eac8 a2 0 __crt_stdio_output::positional_parameter_base<wchar_t,__crt_stdio_output::string_output_adapter<wchar_t> >::positional_parameter_base<wchar_t,__crt_stdio_output::string_output_adapter<wchar_t> ><__crt_stdio_output::string_output_adapter<wchar_t> const &,unsigned __int64 const &,wchar_t const * const &,__crt_locale_pointers * const &,char * const &>(__crt_stdio_output::string_output_adapter<wchar_t> const &,unsigned __int64 const &,wchar_t const * const &,__crt_locale_pointers * const &,char * const &)
FUNC 1eb94 85 0 __crt_stdio_output::standard_base<wchar_t,__crt_stdio_output::string_output_adapter<wchar_t> >::standard_base<wchar_t,__crt_stdio_output::string_output_adapter<wchar_t> ><__crt_stdio_output::string_output_adapter<wchar_t> const &,unsigned __int64 const &,wchar_t const * const &,__crt_locale_pointers * const &,char * const &>(__crt_stdio_output::string_output_adapter<wchar_t> const &,unsigned __int64 const &,wchar_t const * const &,__crt_locale_pointers * const &,char * const &)
FUNC 1ec3c 3d 0 __crt_seh_guarded_call<int>::operator()<<lambda_0d412022a4b28cc8a401ea49574e8ae6>,<lambda_a775ed57af18ba8e4d5dc780aa9068fe> & __ptr64,<lambda_975a71a6baa488a08f4e15f6b0339b9e> >
FUNC 1ec88 3d 0 __crt_seh_guarded_call<int>::operator()<<lambda_55577cdf4457e05136e8c1bc6549f697>,<lambda_ee59099aa97e0ff6f003b984c1584058> & __ptr64,<lambda_cd4250c7ac9eb50c05cf8bb6b444cf42> >
FUNC 1ecd4 3d 0 __crt_seh_guarded_call<int>::operator()<<lambda_74b93660f2d9eb3fb15c5de9eff9db7b>,<lambda_32f117a32e8f8eb613cbf2ca819ed45e> & __ptr64,<lambda_7322894ee7c8a2d41153fedefeab09e3> >
FUNC 1ed20 3d 0 __crt_seh_guarded_call<int>::operator()<<lambda_a62c933ada0517137acf5807a1eeac1f>,<lambda_a31071773b9a94e445cbd5d04ef99106> & __ptr64,<lambda_56065050dbf3ada7e59a83db45153de3> >
FUNC 1ed6c 3d 0 __crt_seh_guarded_call<int>::operator()<<lambda_d1aaa8c864b24422b55e9201296d78b9>,<lambda_a2288fdbbd702c8f223b438290af01a4> & __ptr64,<lambda_4f4c57057ae4c2bc431a3fc6ace2791f> >
FUNC 1edb8 3d 0 __crt_seh_guarded_call<int>::operator()<<lambda_e823f95267a816de70ce630183b86bc2>,<lambda_7e489fec146d5348dbc86d3cce37c1b5> & __ptr64,<lambda_57931389d27d3dce8b0bd13c3d0d8333> >
FUNC 1ee04 28 0 __acrt_lock_stream_and_call<<lambda_32f117a32e8f8eb613cbf2ca819ed45e> >
FUNC 1ee38 28 0 __acrt_lock_stream_and_call<<lambda_7e489fec146d5348dbc86d3cce37c1b5> >
FUNC 1ee6c 28 0 __acrt_lock_stream_and_call<<lambda_a2288fdbbd702c8f223b438290af01a4> >
FUNC 1eea0 28 0 __acrt_lock_stream_and_call<<lambda_a31071773b9a94e445cbd5d04ef99106> >
FUNC 1eed4 28 0 __acrt_lock_stream_and_call<<lambda_a775ed57af18ba8e4d5dc780aa9068fe> >
FUNC 1ef08 28 0 __acrt_lock_stream_and_call<<lambda_ee59099aa97e0ff6f003b984c1584058> >
FUNC 1ef3c 85 0 common_vfprintf<__crt_stdio_output::format_validation_base,char>
FUNC 1efe4 85 0 common_vfprintf<__crt_stdio_output::format_validation_base,wchar_t>
FUNC 1f08c 85 0 common_vfprintf<__crt_stdio_output::positional_parameter_base,char>
FUNC 1f134 85 0 common_vfprintf<__crt_stdio_output::positional_parameter_base,wchar_t>
FUNC 1f1dc 85 0 common_vfprintf<__crt_stdio_output::standard_base,char>
FUNC 1f284 85 0 common_vfprintf<__crt_stdio_output::standard_base,wchar_t>
FUNC 1f32c 116 0 common_vsnprintf_s<char>
FUNC 1f488 119 0 common_vsnprintf_s<wchar_t>
FUNC 1f5e8 1cb 0 common_vsprintf<__crt_stdio_output::format_validation_base,char>
FUNC 1f828 1d2 0 common_vsprintf<__crt_stdio_output::format_validation_base,wchar_t>
FUNC 1fa70 1e7 0 common_vsprintf<__crt_stdio_output::positional_parameter_base,char>
FUNC 1fcd0 1ee 0 common_vsprintf<__crt_stdio_output::positional_parameter_base,wchar_t>
FUNC 1ff3c 1cb 0 common_vsprintf<__crt_stdio_output::standard_base,char>
FUNC 2017c 1d2 0 common_vsprintf<__crt_stdio_output::standard_base,wchar_t>
FUNC 203c4 63 0 common_vsprintf_s<char>
FUNC 20440 6e 0 common_vsprintf_s<wchar_t>
FUNC 204cc 1b 0 __crt_stdio_output::formatting_buffer::count<char>()
FUNC 204f0 1c 0 __crt_stdio_output::formatting_buffer::count<wchar_t>()
FUNC 20514 f 0 __crt_stdio_output::formatting_buffer::data<char>()
FUNC 20528 f 0 __crt_stdio_output::formatting_buffer::data<wchar_t>()
FUNC 2053c a6 0 __crt_stdio_output::formatting_buffer::ensure_buffer_is_big_enough<char>(unsigned __int64)
FUNC 2060c a9 0 __crt_stdio_output::formatting_buffer::ensure_buffer_is_big_enough<wchar_t>(unsigned __int64)
FUNC 206e0 bc 0 __crt_stdio_output::positional_parameter_base<char,__crt_stdio_output::stream_output_adapter<char> >::extract_argument_from_va_list<signed char,__int64>(__int64 &)
FUNC 207cc bc 0 __crt_stdio_output::positional_parameter_base<char,__crt_stdio_output::string_output_adapter<char> >::extract_argument_from_va_list<signed char,__int64>(__int64 &)
FUNC 208b8 be 0 __crt_stdio_output::positional_parameter_base<wchar_t,__crt_stdio_output::stream_output_adapter<wchar_t> >::extract_argument_from_va_list<signed char,__int64>(__int64 &)
FUNC 209a8 be 0 __crt_stdio_output::positional_parameter_base<wchar_t,__crt_stdio_output::string_output_adapter<wchar_t> >::extract_argument_from_va_list<signed char,__int64>(__int64 &)
FUNC 20a98 14 0 __crt_stdio_output::standard_base<char,__crt_stdio_output::stream_output_adapter<char> >::extract_argument_from_va_list<signed char,__int64>(__int64 &)
FUNC 20ab4 14 0 __crt_stdio_output::standard_base<char,__crt_stdio_output::string_output_adapter<char> >::extract_argument_from_va_list<signed char,__int64>(__int64 &)
FUNC 20ad0 14 0 __crt_stdio_output::standard_base<wchar_t,__crt_stdio_output::stream_output_adapter<wchar_t> >::extract_argument_from_va_list<signed char,__int64>(__int64 &)
FUNC 20aec 14 0 __crt_stdio_output::standard_base<wchar_t,__crt_stdio_output::string_output_adapter<wchar_t> >::extract_argument_from_va_list<signed char,__int64>(__int64 &)
FUNC 20b08 bb 0 __crt_stdio_output::positional_parameter_base<char,__crt_stdio_output::stream_output_adapter<char> >::extract_argument_from_va_list<unsigned char,__int64>(__int64 &)
FUNC 20bf4 bb 0 __crt_stdio_output::positional_parameter_base<char,__crt_stdio_output::string_output_adapter<char> >::extract_argument_from_va_list<unsigned char,__int64>(__int64 &)
FUNC 20ce0 bd 0 __crt_stdio_output::positional_parameter_base<wchar_t,__crt_stdio_output::stream_output_adapter<wchar_t> >::extract_argument_from_va_list<unsigned char,__int64>(__int64 &)
FUNC 20dcc bd 0 __crt_stdio_output::positional_parameter_base<wchar_t,__crt_stdio_output::string_output_adapter<wchar_t> >::extract_argument_from_va_list<unsigned char,__int64>(__int64 &)
FUNC 20eb8 13 0 __crt_stdio_output::standard_base<char,__crt_stdio_output::stream_output_adapter<char> >::extract_argument_from_va_list<unsigned char,__int64>(__int64 &)
FUNC 20ed0 13 0 __crt_stdio_output::standard_base<char,__crt_stdio_output::string_output_adapter<char> >::extract_argument_from_va_list<unsigned char,__int64>(__int64 &)
FUNC 20ee8 13 0 __crt_stdio_output::standard_base<wchar_t,__crt_stdio_output::stream_output_adapter<wchar_t> >::extract_argument_from_va_list<unsigned char,__int64>(__int64 &)
FUNC 20f00 13 0 __crt_stdio_output::standard_base<wchar_t,__crt_stdio_output::string_output_adapter<wchar_t> >::extract_argument_from_va_list<unsigned char,__int64>(__int64 &)
FUNC 20f18 bc 0 __crt_stdio_output::positional_parameter_base<char,__crt_stdio_output::stream_output_adapter<char> >::extract_argument_from_va_list<short,__int64>(__int64 &)
FUNC 21004 bc 0 __crt_stdio_output::positional_parameter_base<char,__crt_stdio_output::string_output_adapter<char> >::extract_argument_from_va_list<short,__int64>(__int64 &)
FUNC 210f0 be 0 __crt_stdio_output::positional_parameter_base<wchar_t,__crt_stdio_output::stream_output_adapter<wchar_t> >::extract_argument_from_va_list<short,__int64>(__int64 &)
FUNC 211e0 be 0 __crt_stdio_output::positional_parameter_base<wchar_t,__crt_stdio_output::string_output_adapter<wchar_t> >::extract_argument_from_va_list<short,__int64>(__int64 &)
FUNC 212d0 14 0 __crt_stdio_output::standard_base<char,__crt_stdio_output::stream_output_adapter<char> >::extract_argument_from_va_list<short,__int64>(__int64 &)
FUNC 212ec 14 0 __crt_stdio_output::standard_base<char,__crt_stdio_output::string_output_adapter<char> >::extract_argument_from_va_list<short,__int64>(__int64 &)
FUNC 21308 14 0 __crt_stdio_output::standard_base<wchar_t,__crt_stdio_output::stream_output_adapter<wchar_t> >::extract_argument_from_va_list<short,__int64>(__int64 &)
FUNC 21324 14 0 __crt_stdio_output::standard_base<wchar_t,__crt_stdio_output::string_output_adapter<wchar_t> >::extract_argument_from_va_list<short,__int64>(__int64 &)
FUNC 21340 b8 0 __crt_stdio_output::positional_parameter_base<char,__crt_stdio_output::stream_output_adapter<char> >::extract_argument_from_va_list<unsigned short,char>(char &)
FUNC 21428 b8 0 __crt_stdio_output::positional_parameter_base<char,__crt_stdio_output::string_output_adapter<char> >::extract_argument_from_va_list<unsigned short,char>(char &)
FUNC 21510 11 0 __crt_stdio_output::standard_base<char,__crt_stdio_output::stream_output_adapter<char> >::extract_argument_from_va_list<unsigned short,char>(char &)
FUNC 21528 11 0 __crt_stdio_output::standard_base<char,__crt_stdio_output::string_output_adapter<char> >::extract_argument_from_va_list<unsigned short,char>(char &)
FUNC 21540 bb 0 __crt_stdio_output::positional_parameter_base<char,__crt_stdio_output::stream_output_adapter<char> >::extract_argument_from_va_list<unsigned short,__int64>(__int64 &)
FUNC 2162c bb 0 __crt_stdio_output::positional_parameter_base<char,__crt_stdio_output::string_output_adapter<char> >::extract_argument_from_va_list<unsigned short,__int64>(__int64 &)
FUNC 21718 bd 0 __crt_stdio_output::positional_parameter_base<wchar_t,__crt_stdio_output::stream_output_adapter<wchar_t> >::extract_argument_from_va_list<unsigned short,__int64>(__int64 &)
FUNC 21804 bd 0 __crt_stdio_output::positional_parameter_base<wchar_t,__crt_stdio_output::string_output_adapter<wchar_t> >::extract_argument_from_va_list<unsigned short,__int64>(__int64 &)
FUNC 218f0 13 0 __crt_stdio_output::standard_base<char,__crt_stdio_output::stream_output_adapter<char> >::extract_argument_from_va_list<unsigned short,__int64>(__int64 &)
FUNC 21908 13 0 __crt_stdio_output::standard_base<char,__crt_stdio_output::string_output_adapter<char> >::extract_argument_from_va_list<unsigned short,__int64>(__int64 &)
FUNC 21920 13 0 __crt_stdio_output::standard_base<wchar_t,__crt_stdio_output::stream_output_adapter<wchar_t> >::extract_argument_from_va_list<unsigned short,__int64>(__int64 &)
FUNC 21938 13 0 __crt_stdio_output::standard_base<wchar_t,__crt_stdio_output::string_output_adapter<wchar_t> >::extract_argument_from_va_list<unsigned short,__int64>(__int64 &)
FUNC 21950 ba 0 __crt_stdio_output::positional_parameter_base<char,__crt_stdio_output::stream_output_adapter<char> >::extract_argument_from_va_list<int,__int64>(__int64 &)
FUNC 21a38 ba 0 __crt_stdio_output::positional_parameter_base<char,__crt_stdio_output::string_output_adapter<char> >::extract_argument_from_va_list<int,__int64>(__int64 &)
FUNC 21b20 bc 0 __crt_stdio_output::positional_parameter_base<wchar_t,__crt_stdio_output::stream_output_adapter<wchar_t> >::extract_argument_from_va_list<int,__int64>(__int64 &)
FUNC 21c0c bc 0 __crt_stdio_output::positional_parameter_base<wchar_t,__crt_stdio_output::string_output_adapter<wchar_t> >::extract_argument_from_va_list<int,__int64>(__int64 &)
FUNC 21cf8 13 0 __crt_stdio_output::standard_base<char,__crt_stdio_output::stream_output_adapter<char> >::extract_argument_from_va_list<int,__int64>(__int64 &)
FUNC 21d10 13 0 __crt_stdio_output::standard_base<char,__crt_stdio_output::string_output_adapter<char> >::extract_argument_from_va_list<int,__int64>(__int64 &)
FUNC 21d28 13 0 __crt_stdio_output::standard_base<wchar_t,__crt_stdio_output::stream_output_adapter<wchar_t> >::extract_argument_from_va_list<int,__int64>(__int64 &)
FUNC 21d40 13 0 __crt_stdio_output::standard_base<wchar_t,__crt_stdio_output::string_output_adapter<wchar_t> >::extract_argument_from_va_list<int,__int64>(__int64 &)
FUNC 21d58 b9 0 __crt_stdio_output::positional_parameter_base<char,__crt_stdio_output::stream_output_adapter<char> >::extract_argument_from_va_list<unsigned int,__int64>(__int64 &)
FUNC 21e40 b9 0 __crt_stdio_output::positional_parameter_base<char,__crt_stdio_output::string_output_adapter<char> >::extract_argument_from_va_list<unsigned int,__int64>(__int64 &)
FUNC 21f28 bb 0 __crt_stdio_output::positional_parameter_base<wchar_t,__crt_stdio_output::stream_output_adapter<wchar_t> >::extract_argument_from_va_list<unsigned int,__int64>(__int64 &)
FUNC 22014 bb 0 __crt_stdio_output::positional_parameter_base<wchar_t,__crt_stdio_output::string_output_adapter<wchar_t> >::extract_argument_from_va_list<unsigned int,__int64>(__int64 &)
FUNC 22100 12 0 __crt_stdio_output::standard_base<char,__crt_stdio_output::stream_output_adapter<char> >::extract_argument_from_va_list<unsigned int,__int64>(__int64 &)
FUNC 22118 12 0 __crt_stdio_output::standard_base<char,__crt_stdio_output::string_output_adapter<char> >::extract_argument_from_va_list<unsigned int,__int64>(__int64 &)
FUNC 22130 12 0 __crt_stdio_output::standard_base<wchar_t,__crt_stdio_output::stream_output_adapter<wchar_t> >::extract_argument_from_va_list<unsigned int,__int64>(__int64 &)
FUNC 22148 12 0 __crt_stdio_output::standard_base<wchar_t,__crt_stdio_output::string_output_adapter<wchar_t> >::extract_argument_from_va_list<unsigned int,__int64>(__int64 &)
FUNC 22160 ba 0 __crt_stdio_output::positional_parameter_base<char,__crt_stdio_output::stream_output_adapter<char> >::extract_argument_from_va_list<char *,char *>(char * &)
FUNC 22248 ba 0 __crt_stdio_output::positional_parameter_base<char,__crt_stdio_output::string_output_adapter<char> >::extract_argument_from_va_list<char *,char *>(char * &)
FUNC 22330 bc 0 __crt_stdio_output::positional_parameter_base<wchar_t,__crt_stdio_output::stream_output_adapter<wchar_t> >::extract_argument_from_va_list<char *,char *>(char * &)
FUNC 2241c bc 0 __crt_stdio_output::positional_parameter_base<wchar_t,__crt_stdio_output::string_output_adapter<wchar_t> >::extract_argument_from_va_list<char *,char *>(char * &)
FUNC 22508 13 0 __crt_stdio_output::standard_base<char,__crt_stdio_output::stream_output_adapter<char> >::extract_argument_from_va_list<char *,char *>(char * &)
FUNC 22520 13 0 __crt_stdio_output::standard_base<char,__crt_stdio_output::string_output_adapter<char> >::extract_argument_from_va_list<char *,char *>(char * &)
FUNC 22538 13 0 __crt_stdio_output::standard_base<wchar_t,__crt_stdio_output::stream_output_adapter<wchar_t> >::extract_argument_from_va_list<char *,char *>(char * &)
FUNC 22550 13 0 __crt_stdio_output::standard_base<wchar_t,__crt_stdio_output::string_output_adapter<wchar_t> >::extract_argument_from_va_list<char *,char *>(char * &)
FUNC 22568 13 0 __crt_stdio_output::standard_base<char,__crt_stdio_output::stream_output_adapter<char> >::extract_argument_from_va_list<`__crt_stdio_output::output_processor<char,__crt_stdio_output::stream_output_adapter<char>,__crt_stdio_output::format_validation_base<char,__crt_stdio_output::stream_output_adapter<char> > >::type_case_Z'::`2'::ansi_string * __ptr64,`__crt_stdio_output::output_processor<char,__crt_stdio_output::stream_output_adapter<char>,__crt_stdio_output::format_validation_base<char,__crt_stdio_output::stream_output_adapter<char> > >::type_case_Z'::`2'::ansi_string * __ptr64>
FUNC 22580 ba 0 __crt_stdio_output::positional_parameter_base<char,__crt_stdio_output::stream_output_adapter<char> >::extract_argument_from_va_list<`__crt_stdio_output::output_processor<char,__crt_stdio_output::stream_output_adapter<char>,__crt_stdio_output::positional_parameter_base<char,__crt_stdio_output::stream_output_adapter<char> > >::type_case_Z'::`2'::ansi_string * __ptr64,`__crt_stdio_output::output_processor<char,__crt_stdio_output::stream_output_adapter<char>,__crt_stdio_output::positional_parameter_base<char,__crt_stdio_output::stream_output_adapter<char> > >::type_case_Z'::`2'::ansi_string * __ptr64>
FUNC 22668 13 0 __crt_stdio_output::standard_base<char,__crt_stdio_output::stream_output_adapter<char> >::extract_argument_from_va_list<`__crt_stdio_output::output_processor<char,__crt_stdio_output::stream_output_adapter<char>,__crt_stdio_output::positional_parameter_base<char,__crt_stdio_output::stream_output_adapter<char> > >::type_case_Z'::`2'::ansi_string * __ptr64,`__crt_stdio_output::output_processor<char,__crt_stdio_output::stream_output_adapter<char>,__crt_stdio_output::positional_parameter_base<char,__crt_stdio_output::stream_output_adapter<char> > >::type_case_Z'::`2'::ansi_string * __ptr64>
FUNC 22680 13 0 __crt_stdio_output::standard_base<char,__crt_stdio_output::stream_output_adapter<char> >::extract_argument_from_va_list<`__crt_stdio_output::output_processor<char,__crt_stdio_output::stream_output_adapter<char>,__crt_stdio_output::standard_base<char,__crt_stdio_output::stream_output_adapter<char> > >::type_case_Z'::`2'::ansi_string * __ptr64,`__crt_stdio_output::output_processor<char,__crt_stdio_output::stream_output_adapter<char>,__crt_stdio_output::standard_base<char,__crt_stdio_output::stream_output_adapter<char> > >::type_case_Z'::`2'::ansi_string * __ptr64>
FUNC 22698 13 0 __crt_stdio_output::standard_base<char,__crt_stdio_output::string_output_adapter<char> >::extract_argument_from_va_list<`__crt_stdio_output::output_processor<char,__crt_stdio_output::string_output_adapter<char>,__crt_stdio_output::format_validation_base<char,__crt_stdio_output::string_output_adapter<char> > >::type_case_Z'::`2'::ansi_string * __ptr64,`__crt_stdio_output::output_processor<char,__crt_stdio_output::string_output_adapter<char>,__crt_stdio_output::format_validation_base<char,__crt_stdio_output::string_output_adapter<char> > >::type_case_Z'::`2'::ansi_string * __ptr64>
FUNC 226b0 ba 0 __crt_stdio_output::positional_parameter_base<char,__crt_stdio_output::string_output_adapter<char> >::extract_argument_from_va_list<`__crt_stdio_output::output_processor<char,__crt_stdio_output::string_output_adapter<char>,__crt_stdio_output::positional_parameter_base<char,__crt_stdio_output::string_output_adapter<char> > >::type_case_Z'::`2'::ansi_string * __ptr64,`__crt_stdio_output::output_processor<char,__crt_stdio_output::string_output_adapter<char>,__crt_stdio_output::positional_parameter_base<char,__crt_stdio_output::string_output_adapter<char> > >::type_case_Z'::`2'::ansi_string * __ptr64>
FUNC 22798 13 0 __crt_stdio_output::standard_base<char,__crt_stdio_output::string_output_adapter<char> >::extract_argument_from_va_list<`__crt_stdio_output::output_processor<char,__crt_stdio_output::string_output_adapter<char>,__crt_stdio_output::positional_parameter_base<char,__crt_stdio_output::string_output_adapter<char> > >::type_case_Z'::`2'::ansi_string * __ptr64,`__crt_stdio_output::output_processor<char,__crt_stdio_output::string_output_adapter<char>,__crt_stdio_output::positional_parameter_base<char,__crt_stdio_output::string_output_adapter<char> > >::type_case_Z'::`2'::ansi_string * __ptr64>
FUNC 227b0 13 0 __crt_stdio_output::standard_base<char,__crt_stdio_output::string_output_adapter<char> >::extract_argument_from_va_list<`__crt_stdio_output::output_processor<char,__crt_stdio_output::string_output_adapter<char>,__crt_stdio_output::standard_base<char,__crt_stdio_output::string_output_adapter<char> > >::type_case_Z'::`2'::ansi_string * __ptr64,`__crt_stdio_output::output_processor<char,__crt_stdio_output::string_output_adapter<char>,__crt_stdio_output::standard_base<char,__crt_stdio_output::string_output_adapter<char> > >::type_case_Z'::`2'::ansi_string * __ptr64>
FUNC 227c8 13 0 __crt_stdio_output::standard_base<wchar_t,__crt_stdio_output::stream_output_adapter<wchar_t> >::extract_argument_from_va_list<`__crt_stdio_output::output_processor<wchar_t,__crt_stdio_output::stream_output_adapter<wchar_t>,__crt_stdio_output::format_validation_base<wchar_t,__crt_stdio_output::stream_output_adapter<wchar_t> > >::type_case_Z'::`2'::ansi_string * __ptr64,`__crt_stdio_output::output_processor<wchar_t,__crt_stdio_output::stream_output_adapter<wchar_t>,__crt_stdio_output::format_validation_base<wchar_t,__crt_stdio_output::stream_output_adapter<wchar_t> > >::type_case_Z'::`2'::ansi_string * __ptr64>
FUNC 227e0 bc 0 __crt_stdio_output::positional_parameter_base<wchar_t,__crt_stdio_output::stream_output_adapter<wchar_t> >::extract_argument_from_va_list<`__crt_stdio_output::output_processor<wchar_t,__crt_stdio_output::stream_output_adapter<wchar_t>,__crt_stdio_output::positional_parameter_base<wchar_t,__crt_stdio_output::stream_output_adapter<wchar_t> > >::type_case_Z'::`2'::ansi_string * __ptr64,`__crt_stdio_output::output_processor<wchar_t,__crt_stdio_output::stream_output_adapter<wchar_t>,__crt_stdio_output::positional_parameter_base<wchar_t,__crt_stdio_output::stream_output_adapter<wchar_t> > >::type_case_Z'::`2'::ansi_string * __ptr64>
FUNC 228cc 13 0 __crt_stdio_output::standard_base<wchar_t,__crt_stdio_output::stream_output_adapter<wchar_t> >::extract_argument_from_va_list<`__crt_stdio_output::output_processor<wchar_t,__crt_stdio_output::stream_output_adapter<wchar_t>,__crt_stdio_output::positional_parameter_base<wchar_t,__crt_stdio_output::stream_output_adapter<wchar_t> > >::type_case_Z'::`2'::ansi_string * __ptr64,`__crt_stdio_output::output_processor<wchar_t,__crt_stdio_output::stream_output_adapter<wchar_t>,__crt_stdio_output::positional_parameter_base<wchar_t,__crt_stdio_output::stream_output_adapter<wchar_t> > >::type_case_Z'::`2'::ansi_string * __ptr64>
FUNC 228e4 13 0 __crt_stdio_output::standard_base<wchar_t,__crt_stdio_output::stream_output_adapter<wchar_t> >::extract_argument_from_va_list<`__crt_stdio_output::output_processor<wchar_t,__crt_stdio_output::stream_output_adapter<wchar_t>,__crt_stdio_output::standard_base<wchar_t,__crt_stdio_output::stream_output_adapter<wchar_t> > >::type_case_Z'::`2'::ansi_string * __ptr64,`__crt_stdio_output::output_processor<wchar_t,__crt_stdio_output::stream_output_adapter<wchar_t>,__crt_stdio_output::standard_base<wchar_t,__crt_stdio_output::stream_output_adapter<wchar_t> > >::type_case_Z'::`2'::ansi_string * __ptr64>
FUNC 228fc 13 0 __crt_stdio_output::standard_base<wchar_t,__crt_stdio_output::string_output_adapter<wchar_t> >::extract_argument_from_va_list<`__crt_stdio_output::output_processor<wchar_t,__crt_stdio_output::string_output_adapter<wchar_t>,__crt_stdio_output::format_validation_base<wchar_t,__crt_stdio_output::string_output_adapter<wchar_t> > >::type_case_Z'::`2'::ansi_string * __ptr64,`__crt_stdio_output::output_processor<wchar_t,__crt_stdio_output::string_output_adapter<wchar_t>,__crt_stdio_output::format_validation_base<wchar_t,__crt_stdio_output::string_output_adapter<wchar_t> > >::type_case_Z'::`2'::ansi_string * __ptr64>
FUNC 22914 bc 0 __crt_stdio_output::positional_parameter_base<wchar_t,__crt_stdio_output::string_output_adapter<wchar_t> >::extract_argument_from_va_list<`__crt_stdio_output::output_processor<wchar_t,__crt_stdio_output::string_output_adapter<wchar_t>,__crt_stdio_output::positional_parameter_base<wchar_t,__crt_stdio_output::string_output_adapter<wchar_t> > >::type_case_Z'::`2'::ansi_string * __ptr64,`__crt_stdio_output::output_processor<wchar_t,__crt_stdio_output::string_output_adapter<wchar_t>,__crt_stdio_output::positional_parameter_base<wchar_t,__crt_stdio_output::string_output_adapter<wchar_t> > >::type_case_Z'::`2'::ansi_string * __ptr64>
FUNC 22a00 13 0 __crt_stdio_output::standard_base<wchar_t,__crt_stdio_output::string_output_adapter<wchar_t> >::extract_argument_from_va_list<`__crt_stdio_output::output_processor<wchar_t,__crt_stdio_output::string_output_adapter<wchar_t>,__crt_stdio_output::positional_parameter_base<wchar_t,__crt_stdio_output::string_output_adapter<wchar_t> > >::type_case_Z'::`2'::ansi_string * __ptr64,`__crt_stdio_output::output_processor<wchar_t,__crt_stdio_output::string_output_adapter<wchar_t>,__crt_stdio_output::positional_parameter_base<wchar_t,__crt_stdio_output::string_output_adapter<wchar_t> > >::type_case_Z'::`2'::ansi_string * __ptr64>
FUNC 22a18 13 0 __crt_stdio_output::standard_base<wchar_t,__crt_stdio_output::string_output_adapter<wchar_t> >::extract_argument_from_va_list<`__crt_stdio_output::output_processor<wchar_t,__crt_stdio_output::string_output_adapter<wchar_t>,__crt_stdio_output::standard_base<wchar_t,__crt_stdio_output::string_output_adapter<wchar_t> > >::type_case_Z'::`2'::ansi_string * __ptr64,`__crt_stdio_output::output_processor<wchar_t,__crt_stdio_output::string_output_adapter<wchar_t>,__crt_stdio_output::standard_base<wchar_t,__crt_stdio_output::string_output_adapter<wchar_t> > >::type_case_Z'::`2'::ansi_string * __ptr64>
FUNC 22a30 ba 0 __crt_stdio_output::positional_parameter_base<char,__crt_stdio_output::stream_output_adapter<char> >::extract_argument_from_va_list<void *,void *>(void * &)
FUNC 22b18 ba 0 __crt_stdio_output::positional_parameter_base<char,__crt_stdio_output::string_output_adapter<char> >::extract_argument_from_va_list<void *,void *>(void * &)
FUNC 22c00 bc 0 __crt_stdio_output::positional_parameter_base<wchar_t,__crt_stdio_output::stream_output_adapter<wchar_t> >::extract_argument_from_va_list<void *,void *>(void * &)
FUNC 22cec bc 0 __crt_stdio_output::positional_parameter_base<wchar_t,__crt_stdio_output::string_output_adapter<wchar_t> >::extract_argument_from_va_list<void *,void *>(void * &)
FUNC 22dd8 13 0 __crt_stdio_output::standard_base<char,__crt_stdio_output::stream_output_adapter<char> >::extract_argument_from_va_list<void *,void *>(void * &)
FUNC 22df0 13 0 __crt_stdio_output::standard_base<char,__crt_stdio_output::string_output_adapter<char> >::extract_argument_from_va_list<void *,void *>(void * &)
FUNC 22e08 13 0 __crt_stdio_output::standard_base<wchar_t,__crt_stdio_output::stream_output_adapter<wchar_t> >::extract_argument_from_va_list<void *,void *>(void * &)
FUNC 22e20 13 0 __crt_stdio_output::standard_base<wchar_t,__crt_stdio_output::string_output_adapter<wchar_t> >::extract_argument_from_va_list<void *,void *>(void * &)
FUNC 22e38 ba 0 __crt_stdio_output::positional_parameter_base<char,__crt_stdio_output::stream_output_adapter<char> >::extract_argument_from_va_list<_CRT_DOUBLE,_CRT_DOUBLE>(_CRT_DOUBLE &)
FUNC 22f20 ba 0 __crt_stdio_output::positional_parameter_base<char,__crt_stdio_output::string_output_adapter<char> >::extract_argument_from_va_list<_CRT_DOUBLE,_CRT_DOUBLE>(_CRT_DOUBLE &)
FUNC 23008 bc 0 __crt_stdio_output::positional_parameter_base<wchar_t,__crt_stdio_output::stream_output_adapter<wchar_t> >::extract_argument_from_va_list<_CRT_DOUBLE,_CRT_DOUBLE>(_CRT_DOUBLE &)
FUNC 230f4 bc 0 __crt_stdio_output::positional_parameter_base<wchar_t,__crt_stdio_output::string_output_adapter<wchar_t> >::extract_argument_from_va_list<_CRT_DOUBLE,_CRT_DOUBLE>(_CRT_DOUBLE &)
FUNC 231e0 15 0 __crt_stdio_output::standard_base<char,__crt_stdio_output::stream_output_adapter<char> >::extract_argument_from_va_list<_CRT_DOUBLE,_CRT_DOUBLE>(_CRT_DOUBLE &)
FUNC 231fc 15 0 __crt_stdio_output::standard_base<char,__crt_stdio_output::string_output_adapter<char> >::extract_argument_from_va_list<_CRT_DOUBLE,_CRT_DOUBLE>(_CRT_DOUBLE &)
FUNC 23218 15 0 __crt_stdio_output::standard_base<wchar_t,__crt_stdio_output::stream_output_adapter<wchar_t> >::extract_argument_from_va_list<_CRT_DOUBLE,_CRT_DOUBLE>(_CRT_DOUBLE &)
FUNC 23234 15 0 __crt_stdio_output::standard_base<wchar_t,__crt_stdio_output::string_output_adapter<wchar_t> >::extract_argument_from_va_list<_CRT_DOUBLE,_CRT_DOUBLE>(_CRT_DOUBLE &)
FUNC 23250 ba 0 __crt_stdio_output::positional_parameter_base<char,__crt_stdio_output::stream_output_adapter<char> >::extract_argument_from_va_list<__int64,__int64>(__int64 &)
FUNC 23338 ba 0 __crt_stdio_output::positional_parameter_base<char,__crt_stdio_output::string_output_adapter<char> >::extract_argument_from_va_list<__int64,__int64>(__int64 &)
FUNC 23420 bc 0 __crt_stdio_output::positional_parameter_base<wchar_t,__crt_stdio_output::stream_output_adapter<wchar_t> >::extract_argument_from_va_list<__int64,__int64>(__int64 &)
FUNC 2350c bc 0 __crt_stdio_output::positional_parameter_base<wchar_t,__crt_stdio_output::string_output_adapter<wchar_t> >::extract_argument_from_va_list<__int64,__int64>(__int64 &)
FUNC 235f8 13 0 __crt_stdio_output::standard_base<char,__crt_stdio_output::stream_output_adapter<char> >::extract_argument_from_va_list<__int64,__int64>(__int64 &)
FUNC 23610 13 0 __crt_stdio_output::standard_base<char,__crt_stdio_output::string_output_adapter<char> >::extract_argument_from_va_list<__int64,__int64>(__int64 &)
FUNC 23628 13 0 __crt_stdio_output::standard_base<wchar_t,__crt_stdio_output::stream_output_adapter<wchar_t> >::extract_argument_from_va_list<__int64,__int64>(__int64 &)
FUNC 23640 13 0 __crt_stdio_output::standard_base<wchar_t,__crt_stdio_output::string_output_adapter<wchar_t> >::extract_argument_from_va_list<__int64,__int64>(__int64 &)
FUNC 23658 ba 0 __crt_stdio_output::positional_parameter_base<char,__crt_stdio_output::stream_output_adapter<char> >::extract_argument_from_va_list<unsigned __int64,__int64>(__int64 &)
FUNC 23740 ba 0 __crt_stdio_output::positional_parameter_base<char,__crt_stdio_output::string_output_adapter<char> >::extract_argument_from_va_list<unsigned __int64,__int64>(__int64 &)
FUNC 23828 bc 0 __crt_stdio_output::positional_parameter_base<wchar_t,__crt_stdio_output::stream_output_adapter<wchar_t> >::extract_argument_from_va_list<unsigned __int64,__int64>(__int64 &)
FUNC 23914 bc 0 __crt_stdio_output::positional_parameter_base<wchar_t,__crt_stdio_output::string_output_adapter<wchar_t> >::extract_argument_from_va_list<unsigned __int64,__int64>(__int64 &)
FUNC 23a00 13 0 __crt_stdio_output::standard_base<char,__crt_stdio_output::stream_output_adapter<char> >::extract_argument_from_va_list<unsigned __int64,__int64>(__int64 &)
FUNC 23a18 13 0 __crt_stdio_output::standard_base<char,__crt_stdio_output::string_output_adapter<char> >::extract_argument_from_va_list<unsigned __int64,__int64>(__int64 &)
FUNC 23a30 13 0 __crt_stdio_output::standard_base<wchar_t,__crt_stdio_output::stream_output_adapter<wchar_t> >::extract_argument_from_va_list<unsigned __int64,__int64>(__int64 &)
FUNC 23a48 13 0 __crt_stdio_output::standard_base<wchar_t,__crt_stdio_output::string_output_adapter<wchar_t> >::extract_argument_from_va_list<unsigned __int64,__int64>(__int64 &)
FUNC 23a60 bc 0 __crt_stdio_output::positional_parameter_base<char,__crt_stdio_output::stream_output_adapter<char> >::extract_argument_from_va_list<wchar_t,wchar_t>(wchar_t &)
FUNC 23b4c bc 0 __crt_stdio_output::positional_parameter_base<char,__crt_stdio_output::string_output_adapter<char> >::extract_argument_from_va_list<wchar_t,wchar_t>(wchar_t &)
FUNC 23c38 be 0 __crt_stdio_output::positional_parameter_base<wchar_t,__crt_stdio_output::stream_output_adapter<wchar_t> >::extract_argument_from_va_list<wchar_t,wchar_t>(wchar_t &)
FUNC 23d28 be 0 __crt_stdio_output::positional_parameter_base<wchar_t,__crt_stdio_output::string_output_adapter<wchar_t> >::extract_argument_from_va_list<wchar_t,wchar_t>(wchar_t &)
FUNC 23e18 13 0 __crt_stdio_output::standard_base<char,__crt_stdio_output::stream_output_adapter<char> >::extract_argument_from_va_list<wchar_t,wchar_t>(wchar_t &)
FUNC 23e30 13 0 __crt_stdio_output::standard_base<char,__crt_stdio_output::string_output_adapter<char> >::extract_argument_from_va_list<wchar_t,wchar_t>(wchar_t &)
FUNC 23e48 13 0 __crt_stdio_output::standard_base<wchar_t,__crt_stdio_output::stream_output_adapter<wchar_t> >::extract_argument_from_va_list<wchar_t,wchar_t>(wchar_t &)
FUNC 23e60 13 0 __crt_stdio_output::standard_base<wchar_t,__crt_stdio_output::string_output_adapter<wchar_t> >::extract_argument_from_va_list<wchar_t,wchar_t>(wchar_t &)
FUNC 23e78 6 0 __crt_stdio_output::positional_parameter_base<char,__crt_stdio_output::stream_output_adapter<char> >::get_parameter_type<char>(char *)
FUNC 23e80 6 0 __crt_stdio_output::positional_parameter_base<char,__crt_stdio_output::string_output_adapter<char> >::get_parameter_type<char>(char *)
FUNC 23e88 6 0 __crt_stdio_output::positional_parameter_base<wchar_t,__crt_stdio_output::stream_output_adapter<wchar_t> >::get_parameter_type<char>(char *)
FUNC 23e90 6 0 __crt_stdio_output::positional_parameter_base<wchar_t,__crt_stdio_output::string_output_adapter<wchar_t> >::get_parameter_type<char>(char *)
FUNC 23e98 6 0 __crt_stdio_output::positional_parameter_base<char,__crt_stdio_output::stream_output_adapter<char> >::get_parameter_type<`__crt_stdio_output::output_processor<char,__crt_stdio_output::stream_output_adapter<char>,__crt_stdio_output::positional_parameter_base<char,__crt_stdio_output::stream_output_adapter<char> > >::type_case_Z'::`2'::ansi_string>
FUNC 23ea0 6 0 __crt_stdio_output::positional_parameter_base<char,__crt_stdio_output::string_output_adapter<char> >::get_parameter_type<`__crt_stdio_output::output_processor<char,__crt_stdio_output::string_output_adapter<char>,__crt_stdio_output::positional_parameter_base<char,__crt_stdio_output::string_output_adapter<char> > >::type_case_Z'::`2'::ansi_string>
FUNC 23ea8 6 0 __crt_stdio_output::positional_parameter_base<wchar_t,__crt_stdio_output::stream_output_adapter<wchar_t> >::get_parameter_type<`__crt_stdio_output::output_processor<wchar_t,__crt_stdio_output::stream_output_adapter<wchar_t>,__crt_stdio_output::positional_parameter_base<wchar_t,__crt_stdio_output::stream_output_adapter<wchar_t> > >::type_case_Z'::`2'::ansi_string>
FUNC 23eb0 6 0 __crt_stdio_output::positional_parameter_base<wchar_t,__crt_stdio_output::string_output_adapter<wchar_t> >::get_parameter_type<`__crt_stdio_output::output_processor<wchar_t,__crt_stdio_output::string_output_adapter<wchar_t>,__crt_stdio_output::positional_parameter_base<wchar_t,__crt_stdio_output::string_output_adapter<wchar_t> > >::type_case_Z'::`2'::ansi_string>
FUNC 23eb8 6 0 __crt_stdio_output::positional_parameter_base<char,__crt_stdio_output::stream_output_adapter<char> >::get_parameter_type<void>(void *)
FUNC 23ec0 6 0 __crt_stdio_output::positional_parameter_base<char,__crt_stdio_output::string_output_adapter<char> >::get_parameter_type<void>(void *)
FUNC 23ec8 6 0 __crt_stdio_output::positional_parameter_base<wchar_t,__crt_stdio_output::stream_output_adapter<wchar_t> >::get_parameter_type<void>(void *)
FUNC 23ed0 6 0 __crt_stdio_output::positional_parameter_base<wchar_t,__crt_stdio_output::string_output_adapter<wchar_t> >::get_parameter_type<void>(void *)
FUNC 23ed8 a 0 __crt_stdio_output::positional_parameter_base<char,__crt_stdio_output::stream_output_adapter<char> >::is_character_specifier<char>(char)
FUNC 23ee4 a 0 __crt_stdio_output::positional_parameter_base<char,__crt_stdio_output::string_output_adapter<char> >::is_character_specifier<char>(char)
FUNC 23ef0 10 0 __crt_stdio_output::positional_parameter_base<wchar_t,__crt_stdio_output::stream_output_adapter<wchar_t> >::is_character_specifier<wchar_t>(wchar_t)
FUNC 23f04 10 0 __crt_stdio_output::positional_parameter_base<wchar_t,__crt_stdio_output::string_output_adapter<wchar_t> >::is_character_specifier<wchar_t>(wchar_t)
FUNC 23f18 26 0 __crt_stdio_output::positional_parameter_base<char,__crt_stdio_output::stream_output_adapter<char> >::is_integral_specifier<char>(char)
FUNC 23f48 26 0 __crt_stdio_output::positional_parameter_base<char,__crt_stdio_output::string_output_adapter<char> >::is_integral_specifier<char>(char)
FUNC 23f78 28 0 __crt_stdio_output::positional_parameter_base<wchar_t,__crt_stdio_output::stream_output_adapter<wchar_t> >::is_integral_specifier<wchar_t>(wchar_t)
FUNC 23fac 28 0 __crt_stdio_output::positional_parameter_base<wchar_t,__crt_stdio_output::string_output_adapter<wchar_t> >::is_integral_specifier<wchar_t>(wchar_t)
FUNC 23fe0 7 0 __crt_stdio_output::positional_parameter_base<char,__crt_stdio_output::stream_output_adapter<char> >::is_pointer_specifier<char>(char)
FUNC 23fe8 7 0 __crt_stdio_output::positional_parameter_base<char,__crt_stdio_output::string_output_adapter<char> >::is_pointer_specifier<char>(char)
FUNC 23ff0 8 0 __crt_stdio_output::positional_parameter_base<wchar_t,__crt_stdio_output::stream_output_adapter<wchar_t> >::is_pointer_specifier<wchar_t>(wchar_t)
FUNC 23ffc 8 0 __crt_stdio_output::positional_parameter_base<wchar_t,__crt_stdio_output::string_output_adapter<wchar_t> >::is_pointer_specifier<wchar_t>(wchar_t)
FUNC 24008 a 0 __crt_stdio_output::positional_parameter_base<char,__crt_stdio_output::stream_output_adapter<char> >::is_string_specifier<char>(char)
FUNC 24014 a 0 __crt_stdio_output::positional_parameter_base<char,__crt_stdio_output::string_output_adapter<char> >::is_string_specifier<char>(char)
FUNC 24020 10 0 __crt_stdio_output::positional_parameter_base<wchar_t,__crt_stdio_output::stream_output_adapter<wchar_t> >::is_string_specifier<wchar_t>(wchar_t)
FUNC 24034 10 0 __crt_stdio_output::positional_parameter_base<wchar_t,__crt_stdio_output::string_output_adapter<wchar_t> >::is_string_specifier<wchar_t>(wchar_t)
FUNC 24048 28 0 __crt_stdio_output::is_wide_character_specifier<char>(unsigned __int64,char,__crt_stdio_output::length_modifier)
FUNC 2407c 3e 0 __crt_stdio_output::is_wide_character_specifier<wchar_t>(unsigned __int64,wchar_t,__crt_stdio_output::length_modifier)
FUNC 240cc 3 0 __crt_stdio_output::peek_va_arg<signed char>(char *)
FUNC 240d0 3 0 __crt_stdio_output::peek_va_arg<unsigned char>(char *)
FUNC 240d4 4 0 __crt_stdio_output::peek_va_arg<short>(char *)
FUNC 240d8 4 0 __crt_stdio_output::peek_va_arg<unsigned short>(char *)
FUNC 240dc 3 0 __crt_stdio_output::peek_va_arg<int>(char *)
FUNC 240e0 3 0 __crt_stdio_output::peek_va_arg<unsigned int>(char *)
FUNC 240e4 4 0 __crt_stdio_output::peek_va_arg<char *>(char *)
FUNC 240e8 4 0 __crt_stdio_output::peek_va_arg<`__crt_stdio_output::output_processor<char,__crt_stdio_output::stream_output_adapter<char>,__crt_stdio_output::positional_parameter_base<char,__crt_stdio_output::stream_output_adapter<char> > >::type_case_Z'::`2'::ansi_string * __ptr64>
FUNC 240ec 4 0 __crt_stdio_output::peek_va_arg<`__crt_stdio_output::output_processor<char,__crt_stdio_output::string_output_adapter<char>,__crt_stdio_output::positional_parameter_base<char,__crt_stdio_output::string_output_adapter<char> > >::type_case_Z'::`2'::ansi_string * __ptr64>
FUNC 240f0 4 0 __crt_stdio_output::peek_va_arg<`__crt_stdio_output::output_processor<wchar_t,__crt_stdio_output::stream_output_adapter<wchar_t>,__crt_stdio_output::positional_parameter_base<wchar_t,__crt_stdio_output::stream_output_adapter<wchar_t> > >::type_case_Z'::`2'::ansi_string * __ptr64>
FUNC 240f4 4 0 __crt_stdio_output::peek_va_arg<`__crt_stdio_output::output_processor<wchar_t,__crt_stdio_output::string_output_adapter<wchar_t>,__crt_stdio_output::positional_parameter_base<wchar_t,__crt_stdio_output::string_output_adapter<wchar_t> > >::type_case_Z'::`2'::ansi_string * __ptr64>
FUNC 240f8 4 0 __crt_stdio_output::peek_va_arg<void *>(char *)
FUNC 240fc 4 0 __crt_stdio_output::peek_va_arg<_CRT_DOUBLE>(char *)
FUNC 24100 4 0 __crt_stdio_output::peek_va_arg<__int64>(char *)
FUNC 24104 4 0 __crt_stdio_output::peek_va_arg<unsigned __int64>(char *)
FUNC 24108 4 0 __crt_stdio_output::peek_va_arg<wchar_t>(char *)
FUNC 2410c b 0 __crt_char_traits<char>::puttc_nolock<char const &,_iobuf *>(char const &,_iobuf * &&)
FUNC 2411c b 0 __crt_char_traits<wchar_t>::puttc_nolock<wchar_t const &,_iobuf *>(wchar_t const &,_iobuf * &&)
FUNC 2412c b 0 __crt_stdio_output::read_va_arg<signed char>(char * &)
FUNC 2413c b 0 __crt_stdio_output::read_va_arg<unsigned char>(char * &)
FUNC 2414c c 0 __crt_stdio_output::read_va_arg<short>(char * &)
FUNC 2415c c 0 __crt_stdio_output::read_va_arg<unsigned short>(char * &)
FUNC 2416c b 0 __crt_stdio_output::read_va_arg<int>(char * &)
FUNC 2417c b 0 __crt_stdio_output::read_va_arg<unsigned int>(char * &)
FUNC 2418c c 0 __crt_stdio_output::read_va_arg<char *>(char * &)
FUNC 2419c c 0 __crt_stdio_output::read_va_arg<`__crt_stdio_output::output_processor<char,__crt_stdio_output::stream_output_adapter<char>,__crt_stdio_output::format_validation_base<char,__crt_stdio_output::stream_output_adapter<char> > >::type_case_Z'::`2'::ansi_string * __ptr64>
FUNC 241ac c 0 __crt_stdio_output::read_va_arg<`__crt_stdio_output::output_processor<char,__crt_stdio_output::stream_output_adapter<char>,__crt_stdio_output::positional_parameter_base<char,__crt_stdio_output::stream_output_adapter<char> > >::type_case_Z'::`2'::ansi_string * __ptr64>
FUNC 241bc c 0 __crt_stdio_output::read_va_arg<`__crt_stdio_output::output_processor<char,__crt_stdio_output::stream_output_adapter<char>,__crt_stdio_output::standard_base<char,__crt_stdio_output::stream_output_adapter<char> > >::type_case_Z'::`2'::ansi_string * __ptr64>
FUNC 241cc c 0 __crt_stdio_output::read_va_arg<`__crt_stdio_output::output_processor<char,__crt_stdio_output::string_output_adapter<char>,__crt_stdio_output::format_validation_base<char,__crt_stdio_output::string_output_adapter<char> > >::type_case_Z'::`2'::ansi_string * __ptr64>
FUNC 241dc c 0 __crt_stdio_output::read_va_arg<`__crt_stdio_output::output_processor<char,__crt_stdio_output::string_output_adapter<char>,__crt_stdio_output::positional_parameter_base<char,__crt_stdio_output::string_output_adapter<char> > >::type_case_Z'::`2'::ansi_string * __ptr64>
FUNC 241ec c 0 __crt_stdio_output::read_va_arg<`__crt_stdio_output::output_processor<char,__crt_stdio_output::string_output_adapter<char>,__crt_stdio_output::standard_base<char,__crt_stdio_output::string_output_adapter<char> > >::type_case_Z'::`2'::ansi_string * __ptr64>
FUNC 241fc c 0 __crt_stdio_output::read_va_arg<`__crt_stdio_output::output_processor<wchar_t,__crt_stdio_output::stream_output_adapter<wchar_t>,__crt_stdio_output::format_validation_base<wchar_t,__crt_stdio_output::stream_output_adapter<wchar_t> > >::type_case_Z'::`2'::ansi_string * __ptr64>
FUNC 2420c c 0 __crt_stdio_output::read_va_arg<`__crt_stdio_output::output_processor<wchar_t,__crt_stdio_output::stream_output_adapter<wchar_t>,__crt_stdio_output::positional_parameter_base<wchar_t,__crt_stdio_output::stream_output_adapter<wchar_t> > >::type_case_Z'::`2'::ansi_string * __ptr64>
FUNC 2421c c 0 __crt_stdio_output::read_va_arg<`__crt_stdio_output::output_processor<wchar_t,__crt_stdio_output::stream_output_adapter<wchar_t>,__crt_stdio_output::standard_base<wchar_t,__crt_stdio_output::stream_output_adapter<wchar_t> > >::type_case_Z'::`2'::ansi_string * __ptr64>
FUNC 2422c c 0 __crt_stdio_output::read_va_arg<`__crt_stdio_output::output_processor<wchar_t,__crt_stdio_output::string_output_adapter<wchar_t>,__crt_stdio_output::format_validation_base<wchar_t,__crt_stdio_output::string_output_adapter<wchar_t> > >::type_case_Z'::`2'::ansi_string * __ptr64>
FUNC 2423c c 0 __crt_stdio_output::read_va_arg<`__crt_stdio_output::output_processor<wchar_t,__crt_stdio_output::string_output_adapter<wchar_t>,__crt_stdio_output::positional_parameter_base<wchar_t,__crt_stdio_output::string_output_adapter<wchar_t> > >::type_case_Z'::`2'::ansi_string * __ptr64>
FUNC 2424c c 0 __crt_stdio_output::read_va_arg<`__crt_stdio_output::output_processor<wchar_t,__crt_stdio_output::string_output_adapter<wchar_t>,__crt_stdio_output::standard_base<wchar_t,__crt_stdio_output::string_output_adapter<wchar_t> > >::type_case_Z'::`2'::ansi_string * __ptr64>
FUNC 2425c c 0 __crt_stdio_output::read_va_arg<void *>(char * &)
FUNC 2426c c 0 __crt_stdio_output::read_va_arg<_CRT_DOUBLE>(char * &)
FUNC 2427c c 0 __crt_stdio_output::read_va_arg<__int64>(char * &)
FUNC 2428c c 0 __crt_stdio_output::read_va_arg<unsigned __int64>(char * &)
FUNC 2429c c 0 __crt_stdio_output::read_va_arg<wchar_t>(char * &)
FUNC 242ac 1b 0 __crt_stdio_output::formatting_buffer::scratch_count<char>()
FUNC 242d0 22 0 __crt_stdio_output::formatting_buffer::scratch_data<char>()
FUNC 242fc e 0 __crt_char_traits<char>::tcstol<char const * &,char * *,int>(char const * &,char * * &&,int &&)
FUNC 24310 e 0 __crt_char_traits<wchar_t>::tcstol<wchar_t const * &,wchar_t * *,int>(wchar_t const * &,wchar_t * * &&,int &&)
FUNC 24324 e 0 __crt_char_traits<char>::tcstol<char const *,char * *,int>(char const * &&,char * * &&,int &&)
FUNC 24338 e 0 __crt_char_traits<wchar_t>::tcstol<wchar_t const *,wchar_t * *,int>(wchar_t const * &&,wchar_t * * &&,int &&)
FUNC 2434c 8e 0 __crt_stdio_output::output_processor<char,__crt_stdio_output::stream_output_adapter<char>,__crt_stdio_output::format_validation_base<char,__crt_stdio_output::stream_output_adapter<char> > >::type_case_integer_parse_into_buffer<unsigned int>(unsigned int,unsigned int,bool)
FUNC 24400 8e 0 __crt_stdio_output::output_processor<char,__crt_stdio_output::stream_output_adapter<char>,__crt_stdio_output::positional_parameter_base<char,__crt_stdio_output::stream_output_adapter<char> > >::type_case_integer_parse_into_buffer<unsigned int>(unsigned int,unsigned int,bool)
FUNC 244b4 8e 0 __crt_stdio_output::output_processor<char,__crt_stdio_output::stream_output_adapter<char>,__crt_stdio_output::standard_base<char,__crt_stdio_output::stream_output_adapter<char> > >::type_case_integer_parse_into_buffer<unsigned int>(unsigned int,unsigned int,bool)
FUNC 24568 8e 0 __crt_stdio_output::output_processor<char,__crt_stdio_output::string_output_adapter<char>,__crt_stdio_output::format_validation_base<char,__crt_stdio_output::string_output_adapter<char> > >::type_case_integer_parse_into_buffer<unsigned int>(unsigned int,unsigned int,bool)
FUNC 2461c 8e 0 __crt_stdio_output::output_processor<char,__crt_stdio_output::string_output_adapter<char>,__crt_stdio_output::positional_parameter_base<char,__crt_stdio_output::string_output_adapter<char> > >::type_case_integer_parse_into_buffer<unsigned int>(unsigned int,unsigned int,bool)
FUNC 246d0 8e 0 __crt_stdio_output::output_processor<char,__crt_stdio_output::string_output_adapter<char>,__crt_stdio_output::standard_base<char,__crt_stdio_output::string_output_adapter<char> > >::type_case_integer_parse_into_buffer<unsigned int>(unsigned int,unsigned int,bool)
FUNC 24784 a0 0 __crt_stdio_output::output_processor<wchar_t,__crt_stdio_output::stream_output_adapter<wchar_t>,__crt_stdio_output::format_validation_base<wchar_t,__crt_stdio_output::stream_output_adapter<wchar_t> > >::type_case_integer_parse_into_buffer<unsigned int>(unsigned int,unsigned int,bool)
FUNC 2484c a0 0 __crt_stdio_output::output_processor<wchar_t,__crt_stdio_output::stream_output_adapter<wchar_t>,__crt_stdio_output::positional_parameter_base<wchar_t,__crt_stdio_output::stream_output_adapter<wchar_t> > >::type_case_integer_parse_into_buffer<unsigned int>(unsigned int,unsigned int,bool)
FUNC 24914 a0 0 __crt_stdio_output::output_processor<wchar_t,__crt_stdio_output::stream_output_adapter<wchar_t>,__crt_stdio_output::standard_base<wchar_t,__crt_stdio_output::stream_output_adapter<wchar_t> > >::type_case_integer_parse_into_buffer<unsigned int>(unsigned int,unsigned int,bool)
FUNC 249dc a0 0 __crt_stdio_output::output_processor<wchar_t,__crt_stdio_output::string_output_adapter<wchar_t>,__crt_stdio_output::format_validation_base<wchar_t,__crt_stdio_output::string_output_adapter<wchar_t> > >::type_case_integer_parse_into_buffer<unsigned int>(unsigned int,unsigned int,bool)
FUNC 24aa4 a0 0 __crt_stdio_output::output_processor<wchar_t,__crt_stdio_output::string_output_adapter<wchar_t>,__crt_stdio_output::positional_parameter_base<wchar_t,__crt_stdio_output::string_output_adapter<wchar_t> > >::type_case_integer_parse_into_buffer<unsigned int>(unsigned int,unsigned int,bool)
FUNC 24b6c a0 0 __crt_stdio_output::output_processor<wchar_t,__crt_stdio_output::string_output_adapter<wchar_t>,__crt_stdio_output::standard_base<wchar_t,__crt_stdio_output::string_output_adapter<wchar_t> > >::type_case_integer_parse_into_buffer<unsigned int>(unsigned int,unsigned int,bool)
FUNC 24c34 94 0 __crt_stdio_output::output_processor<char,__crt_stdio_output::stream_output_adapter<char>,__crt_stdio_output::format_validation_base<char,__crt_stdio_output::stream_output_adapter<char> > >::type_case_integer_parse_into_buffer<unsigned __int64>(unsigned __int64,unsigned int,bool)
FUNC 24cf0 94 0 __crt_stdio_output::output_processor<char,__crt_stdio_output::stream_output_adapter<char>,__crt_stdio_output::positional_parameter_base<char,__crt_stdio_output::stream_output_adapter<char> > >::type_case_integer_parse_into_buffer<unsigned __int64>(unsigned __int64,unsigned int,bool)
FUNC 24dac 94 0 __crt_stdio_output::output_processor<char,__crt_stdio_output::stream_output_adapter<char>,__crt_stdio_output::standard_base<char,__crt_stdio_output::stream_output_adapter<char> > >::type_case_integer_parse_into_buffer<unsigned __int64>(unsigned __int64,unsigned int,bool)
FUNC 24e68 94 0 __crt_stdio_output::output_processor<char,__crt_stdio_output::string_output_adapter<char>,__crt_stdio_output::format_validation_base<char,__crt_stdio_output::string_output_adapter<char> > >::type_case_integer_parse_into_buffer<unsigned __int64>(unsigned __int64,unsigned int,bool)
FUNC 24f24 94 0 __crt_stdio_output::output_processor<char,__crt_stdio_output::string_output_adapter<char>,__crt_stdio_output::positional_parameter_base<char,__crt_stdio_output::string_output_adapter<char> > >::type_case_integer_parse_into_buffer<unsigned __int64>(unsigned __int64,unsigned int,bool)
FUNC 24fe0 94 0 __crt_stdio_output::output_processor<char,__crt_stdio_output::string_output_adapter<char>,__crt_stdio_output::standard_base<char,__crt_stdio_output::string_output_adapter<char> > >::type_case_integer_parse_into_buffer<unsigned __int64>(unsigned __int64,unsigned int,bool)
FUNC 2509c a1 0 __crt_stdio_output::output_processor<wchar_t,__crt_stdio_output::stream_output_adapter<wchar_t>,__crt_stdio_output::format_validation_base<wchar_t,__crt_stdio_output::stream_output_adapter<wchar_t> > >::type_case_integer_parse_into_buffer<unsigned __int64>(unsigned __int64,unsigned int,bool)
FUNC 25168 a1 0 __crt_stdio_output::output_processor<wchar_t,__crt_stdio_output::stream_output_adapter<wchar_t>,__crt_stdio_output::positional_parameter_base<wchar_t,__crt_stdio_output::stream_output_adapter<wchar_t> > >::type_case_integer_parse_into_buffer<unsigned __int64>(unsigned __int64,unsigned int,bool)
FUNC 25234 a1 0 __crt_stdio_output::output_processor<wchar_t,__crt_stdio_output::stream_output_adapter<wchar_t>,__crt_stdio_output::standard_base<wchar_t,__crt_stdio_output::stream_output_adapter<wchar_t> > >::type_case_integer_parse_into_buffer<unsigned __int64>(unsigned __int64,unsigned int,bool)
FUNC 25300 a1 0 __crt_stdio_output::output_processor<wchar_t,__crt_stdio_output::string_output_adapter<wchar_t>,__crt_stdio_output::format_validation_base<wchar_t,__crt_stdio_output::string_output_adapter<wchar_t> > >::type_case_integer_parse_into_buffer<unsigned __int64>(unsigned __int64,unsigned int,bool)
FUNC 253cc a1 0 __crt_stdio_output::output_processor<wchar_t,__crt_stdio_output::string_output_adapter<wchar_t>,__crt_stdio_output::positional_parameter_base<wchar_t,__crt_stdio_output::string_output_adapter<wchar_t> > >::type_case_integer_parse_into_buffer<unsigned __int64>(unsigned __int64,unsigned int,bool)
FUNC 25498 a1 0 __crt_stdio_output::output_processor<wchar_t,__crt_stdio_output::string_output_adapter<wchar_t>,__crt_stdio_output::standard_base<wchar_t,__crt_stdio_output::string_output_adapter<wchar_t> > >::type_case_integer_parse_into_buffer<unsigned __int64>(unsigned __int64,unsigned int,bool)
FUNC 25564 8b 0 __crt_stdio_output::write_multiple_characters<__crt_stdio_output::stream_output_adapter<char>,char>(__crt_stdio_output::stream_output_adapter<char> const &,char,int,int * const)
FUNC 25614 91 0 __crt_stdio_output::write_multiple_characters<__crt_stdio_output::stream_output_adapter<wchar_t>,char>(__crt_stdio_output::stream_output_adapter<wchar_t> const &,char,int,int * const)
FUNC 256cc 75 0 __crt_stdio_output::write_multiple_characters<__crt_stdio_output::string_output_adapter<char>,char>(__crt_stdio_output::string_output_adapter<char> const &,char,int,int * const)
FUNC 25760 7a 0 __crt_stdio_output::write_multiple_characters<__crt_stdio_output::string_output_adapter<wchar_t>,char>(__crt_stdio_output::string_output_adapter<wchar_t> const &,char,int,int * const)
FUNC 257f8 a 0 <lambda_0d412022a4b28cc8a401ea49574e8ae6>::<lambda_0d412022a4b28cc8a401ea49574e8ae6>
FUNC 25804 21 0 <lambda_32f117a32e8f8eb613cbf2ca819ed45e>::<lambda_32f117a32e8f8eb613cbf2ca819ed45e>
FUNC 25830 a 0 <lambda_4f4c57057ae4c2bc431a3fc6ace2791f>::<lambda_4f4c57057ae4c2bc431a3fc6ace2791f>
FUNC 2583c a 0 <lambda_55577cdf4457e05136e8c1bc6549f697>::<lambda_55577cdf4457e05136e8c1bc6549f697>
FUNC 25848 a 0 <lambda_56065050dbf3ada7e59a83db45153de3>::<lambda_56065050dbf3ada7e59a83db45153de3>
FUNC 25854 a 0 <lambda_57931389d27d3dce8b0bd13c3d0d8333>::<lambda_57931389d27d3dce8b0bd13c3d0d8333>
FUNC 25860 a 0 <lambda_7322894ee7c8a2d41153fedefeab09e3>::<lambda_7322894ee7c8a2d41153fedefeab09e3>
FUNC 2586c a 0 <lambda_74b93660f2d9eb3fb15c5de9eff9db7b>::<lambda_74b93660f2d9eb3fb15c5de9eff9db7b>
FUNC 25878 21 0 <lambda_7e489fec146d5348dbc86d3cce37c1b5>::<lambda_7e489fec146d5348dbc86d3cce37c1b5>
FUNC 258a4 a 0 <lambda_975a71a6baa488a08f4e15f6b0339b9e>::<lambda_975a71a6baa488a08f4e15f6b0339b9e>
FUNC 258b0 21 0 <lambda_a2288fdbbd702c8f223b438290af01a4>::<lambda_a2288fdbbd702c8f223b438290af01a4>
FUNC 258dc 21 0 <lambda_a31071773b9a94e445cbd5d04ef99106>::<lambda_a31071773b9a94e445cbd5d04ef99106>
FUNC 25908 a 0 <lambda_a62c933ada0517137acf5807a1eeac1f>::<lambda_a62c933ada0517137acf5807a1eeac1f>
FUNC 25914 21 0 <lambda_a775ed57af18ba8e4d5dc780aa9068fe>::<lambda_a775ed57af18ba8e4d5dc780aa9068fe>
FUNC 25940 a 0 <lambda_cd4250c7ac9eb50c05cf8bb6b444cf42>::<lambda_cd4250c7ac9eb50c05cf8bb6b444cf42>
FUNC 2594c a 0 <lambda_d1aaa8c864b24422b55e9201296d78b9>::<lambda_d1aaa8c864b24422b55e9201296d78b9>
FUNC 25958 a 0 <lambda_e823f95267a816de70ce630183b86bc2>::<lambda_e823f95267a816de70ce630183b86bc2>
FUNC 25964 21 0 <lambda_ee59099aa97e0ff6f003b984c1584058>::<lambda_ee59099aa97e0ff6f003b984c1584058>
FUNC 25990 3c 0 __crt_stdio_output::common_data<char>::common_data<char>()
FUNC 259dc 3f 0 __crt_stdio_output::common_data<wchar_t>::common_data<wchar_t>()
FUNC 25a2c 5f 0 __crt_stdio_output::output_adapter_data<char,__crt_stdio_output::stream_output_adapter<char> >::output_adapter_data<char,__crt_stdio_output::stream_output_adapter<char> >(__crt_stdio_output::stream_output_adapter<char> const &,unsigned __int64,char const * const,__crt_locale_pointers * const,char * const)
FUNC 25aa4 5f 0 __crt_stdio_output::output_adapter_data<char,__crt_stdio_output::string_output_adapter<char> >::output_adapter_data<char,__crt_stdio_output::string_output_adapter<char> >(__crt_stdio_output::string_output_adapter<char> const &,unsigned __int64,char const * const,__crt_locale_pointers * const,char * const)
FUNC 25b1c 62 0 __crt_stdio_output::output_adapter_data<wchar_t,__crt_stdio_output::stream_output_adapter<wchar_t> >::output_adapter_data<wchar_t,__crt_stdio_output::stream_output_adapter<wchar_t> >(__crt_stdio_output::stream_output_adapter<wchar_t> const &,unsigned __int64,wchar_t const * const,__crt_locale_pointers * const,char * const)
FUNC 25b98 62 0 __crt_stdio_output::output_adapter_data<wchar_t,__crt_stdio_output::string_output_adapter<wchar_t> >::output_adapter_data<wchar_t,__crt_stdio_output::string_output_adapter<wchar_t> >(__crt_stdio_output::string_output_adapter<wchar_t> const &,unsigned __int64,wchar_t const * const,__crt_locale_pointers * const,char * const)
FUNC 25c14 6b 0 __crt_stdio_output::output_processor<char,__crt_stdio_output::stream_output_adapter<char>,__crt_stdio_output::format_validation_base<char,__crt_stdio_output::stream_output_adapter<char> > >::output_processor<char,__crt_stdio_output::stream_output_adapter<char>,__crt_stdio_output::format_validation_base<char,__crt_stdio_output::stream_output_adapter<char> > >(__crt_stdio_output::stream_output_adapter<char> const &,unsigned __int64,char const * const,__crt_locale_pointers * const,char * const)
FUNC 25c9c 88 0 __crt_stdio_output::output_processor<char,__crt_stdio_output::stream_output_adapter<char>,__crt_stdio_output::positional_parameter_base<char,__crt_stdio_output::stream_output_adapter<char> > >::output_processor<char,__crt_stdio_output::stream_output_adapter<char>,__crt_stdio_output::positional_parameter_base<char,__crt_stdio_output::stream_output_adapter<char> > >(__crt_stdio_output::stream_output_adapter<char> const &,unsigned __int64,char const * const,__crt_locale_pointers * const,char * const)
FUNC 25d48 6b 0 __crt_stdio_output::output_processor<char,__crt_stdio_output::stream_output_adapter<char>,__crt_stdio_output::standard_base<char,__crt_stdio_output::stream_output_adapter<char> > >::output_processor<char,__crt_stdio_output::stream_output_adapter<char>,__crt_stdio_output::standard_base<char,__crt_stdio_output::stream_output_adapter<char> > >(__crt_stdio_output::stream_output_adapter<char> const &,unsigned __int64,char const * const,__crt_locale_pointers * const,char * const)
FUNC 25dd0 6b 0 __crt_stdio_output::output_processor<char,__crt_stdio_output::string_output_adapter<char>,__crt_stdio_output::format_validation_base<char,__crt_stdio_output::string_output_adapter<char> > >::output_processor<char,__crt_stdio_output::string_output_adapter<char>,__crt_stdio_output::format_validation_base<char,__crt_stdio_output::string_output_adapter<char> > >(__crt_stdio_output::string_output_adapter<char> const &,unsigned __int64,char const * const,__crt_locale_pointers * const,char * const)
FUNC 25e58 88 0 __crt_stdio_output::output_processor<char,__crt_stdio_output::string_output_adapter<char>,__crt_stdio_output::positional_parameter_base<char,__crt_stdio_output::string_output_adapter<char> > >::output_processor<char,__crt_stdio_output::string_output_adapter<char>,__crt_stdio_output::positional_parameter_base<char,__crt_stdio_output::string_output_adapter<char> > >(__crt_stdio_output::string_output_adapter<char> const &,unsigned __int64,char const * const,__crt_locale_pointers * const,char * const)
FUNC 25f04 6b 0 __crt_stdio_output::output_processor<char,__crt_stdio_output::string_output_adapter<char>,__crt_stdio_output::standard_base<char,__crt_stdio_output::string_output_adapter<char> > >::output_processor<char,__crt_stdio_output::string_output_adapter<char>,__crt_stdio_output::standard_base<char,__crt_stdio_output::string_output_adapter<char> > >(__crt_stdio_output::string_output_adapter<char> const &,unsigned __int64,char const * const,__crt_locale_pointers * const,char * const)
FUNC 25f8c 6f 0 __crt_stdio_output::output_processor<wchar_t,__crt_stdio_output::stream_output_adapter<wchar_t>,__crt_stdio_output::format_validation_base<wchar_t,__crt_stdio_output::stream_output_adapter<wchar_t> > >::output_processor<wchar_t,__crt_stdio_output::stream_output_adapter<wchar_t>,__crt_stdio_output::format_validation_base<wchar_t,__crt_stdio_output::stream_output_adapter<wchar_t> > >(__crt_stdio_output::stream_output_adapter<wchar_t> const &,unsigned __int64,wchar_t const * const,__crt_locale_pointers * const,char * const)
FUNC 26018 8c 0 __crt_stdio_output::output_processor<wchar_t,__crt_stdio_output::stream_output_adapter<wchar_t>,__crt_stdio_output::positional_parameter_base<wchar_t,__crt_stdio_output::stream_output_adapter<wchar_t> > >::output_processor<wchar_t,__crt_stdio_output::stream_output_adapter<wchar_t>,__crt_stdio_output::positional_parameter_base<wchar_t,__crt_stdio_output::stream_output_adapter<wchar_t> > >(__crt_stdio_output::stream_output_adapter<wchar_t> const &,unsigned __int64,wchar_t const * const,__crt_locale_pointers * const,char * const)
FUNC 260c8 6f 0 __crt_stdio_output::output_processor<wchar_t,__crt_stdio_output::stream_output_adapter<wchar_t>,__crt_stdio_output::standard_base<wchar_t,__crt_stdio_output::stream_output_adapter<wchar_t> > >::output_processor<wchar_t,__crt_stdio_output::stream_output_adapter<wchar_t>,__crt_stdio_output::standard_base<wchar_t,__crt_stdio_output::stream_output_adapter<wchar_t> > >(__crt_stdio_output::stream_output_adapter<wchar_t> const &,unsigned __int64,wchar_t const * const,__crt_locale_pointers * const,char * const)
FUNC 26154 6f 0 __crt_stdio_output::output_processor<wchar_t,__crt_stdio_output::string_output_adapter<wchar_t>,__crt_stdio_output::format_validation_base<wchar_t,__crt_stdio_output::string_output_adapter<wchar_t> > >::output_processor<wchar_t,__crt_stdio_output::string_output_adapter<wchar_t>,__crt_stdio_output::format_validation_base<wchar_t,__crt_stdio_output::string_output_adapter<wchar_t> > >(__crt_stdio_output::string_output_adapter<wchar_t> const &,unsigned __int64,wchar_t const * const,__crt_locale_pointers * const,char * const)
FUNC 261e0 8c 0 __crt_stdio_output::output_processor<wchar_t,__crt_stdio_output::string_output_adapter<wchar_t>,__crt_stdio_output::positional_parameter_base<wchar_t,__crt_stdio_output::string_output_adapter<wchar_t> > >::output_processor<wchar_t,__crt_stdio_output::string_output_adapter<wchar_t>,__crt_stdio_output::positional_parameter_base<wchar_t,__crt_stdio_output::string_output_adapter<wchar_t> > >(__crt_stdio_output::string_output_adapter<wchar_t> const &,unsigned __int64,wchar_t const * const,__crt_locale_pointers * const,char * const)
FUNC 26290 6f 0 __crt_stdio_output::output_processor<wchar_t,__crt_stdio_output::string_output_adapter<wchar_t>,__crt_stdio_output::standard_base<wchar_t,__crt_stdio_output::string_output_adapter<wchar_t> > >::output_processor<wchar_t,__crt_stdio_output::string_output_adapter<wchar_t>,__crt_stdio_output::standard_base<wchar_t,__crt_stdio_output::string_output_adapter<wchar_t> > >(__crt_stdio_output::string_output_adapter<wchar_t> const &,unsigned __int64,wchar_t const * const,__crt_locale_pointers * const,char * const)
FUNC 2631c 7 0 __crt_stdio_output::stream_output_adapter<char>::stream_output_adapter<char>(_iobuf * const)
FUNC 26324 7 0 __crt_stdio_output::stream_output_adapter<wchar_t>::stream_output_adapter<wchar_t>(_iobuf * const)
FUNC 2632c 7 0 __crt_stdio_output::string_output_adapter<char>::string_output_adapter<char>(__crt_stdio_output::string_output_adapter_context<char> * const)
FUNC 26334 7 0 __crt_stdio_output::string_output_adapter<wchar_t>::string_output_adapter<wchar_t>(__crt_stdio_output::string_output_adapter_context<wchar_t> * const)
FUNC 2633c 9b 0 _LocaleUpdate::_LocaleUpdate(__crt_locale_pointers * const)
FUNC 26400 20 0 __acrt_stdio_temporary_buffering_guard::__acrt_stdio_temporary_buffering_guard(_iobuf * const)
FUNC 26428 8 0 __crt_deferred_errno_cache::__crt_deferred_errno_cache()
FUNC 26434 f 0 __crt_errno_guard::__crt_errno_guard(int * const)
FUNC 26448 7 0 __crt_stdio_stream::__crt_stdio_stream(_iobuf * const)
FUNC 26450 14 0 __crt_stdio_output::formatting_buffer::formatting_buffer()
FUNC 2646c 23 0 __crt_stdio_output::common_data<char>::~common_data<char>()
FUNC 26498 23 0 __crt_stdio_output::common_data<wchar_t>::~common_data<wchar_t>()
FUNC 264c4 23 0 __crt_stdio_output::format_validation_base<char,__crt_stdio_output::stream_output_adapter<char> >::~format_validation_base<char,__crt_stdio_output::stream_output_adapter<char> >()
FUNC 264f0 23 0 __crt_stdio_output::format_validation_base<char,__crt_stdio_output::string_output_adapter<char> >::~format_validation_base<char,__crt_stdio_output::string_output_adapter<char> >()
FUNC 2651c 23 0 __crt_stdio_output::format_validation_base<wchar_t,__crt_stdio_output::stream_output_adapter<wchar_t> >::~format_validation_base<wchar_t,__crt_stdio_output::stream_output_adapter<wchar_t> >()
FUNC 26548 23 0 __crt_stdio_output::format_validation_base<wchar_t,__crt_stdio_output::string_output_adapter<wchar_t> >::~format_validation_base<wchar_t,__crt_stdio_output::string_output_adapter<wchar_t> >()
FUNC 26574 23 0 __crt_stdio_output::output_adapter_data<char,__crt_stdio_output::stream_output_adapter<char> >::~output_adapter_data<char,__crt_stdio_output::stream_output_adapter<char> >()
FUNC 265a0 23 0 __crt_stdio_output::output_adapter_data<char,__crt_stdio_output::string_output_adapter<char> >::~output_adapter_data<char,__crt_stdio_output::string_output_adapter<char> >()
FUNC 265cc 23 0 __crt_stdio_output::output_adapter_data<wchar_t,__crt_stdio_output::stream_output_adapter<wchar_t> >::~output_adapter_data<wchar_t,__crt_stdio_output::stream_output_adapter<wchar_t> >()
FUNC 265f8 23 0 __crt_stdio_output::output_adapter_data<wchar_t,__crt_stdio_output::string_output_adapter<wchar_t> >::~output_adapter_data<wchar_t,__crt_stdio_output::string_output_adapter<wchar_t> >()
FUNC 26624 23 0 __crt_stdio_output::output_processor<char,__crt_stdio_output::stream_output_adapter<char>,__crt_stdio_output::format_validation_base<char,__crt_stdio_output::stream_output_adapter<char> > >::~output_processor<char,__crt_stdio_output::stream_output_adapter<char>,__crt_stdio_output::format_validation_base<char,__crt_stdio_output::stream_output_adapter<char> > >()
FUNC 26650 23 0 __crt_stdio_output::output_processor<char,__crt_stdio_output::stream_output_adapter<char>,__crt_stdio_output::positional_parameter_base<char,__crt_stdio_output::stream_output_adapter<char> > >::~output_processor<char,__crt_stdio_output::stream_output_adapter<char>,__crt_stdio_output::positional_parameter_base<char,__crt_stdio_output::stream_output_adapter<char> > >()
FUNC 2667c 23 0 __crt_stdio_output::output_processor<char,__crt_stdio_output::stream_output_adapter<char>,__crt_stdio_output::standard_base<char,__crt_stdio_output::stream_output_adapter<char> > >::~output_processor<char,__crt_stdio_output::stream_output_adapter<char>,__crt_stdio_output::standard_base<char,__crt_stdio_output::stream_output_adapter<char> > >()
FUNC 266a8 23 0 __crt_stdio_output::output_processor<char,__crt_stdio_output::string_output_adapter<char>,__crt_stdio_output::format_validation_base<char,__crt_stdio_output::string_output_adapter<char> > >::~output_processor<char,__crt_stdio_output::string_output_adapter<char>,__crt_stdio_output::format_validation_base<char,__crt_stdio_output::string_output_adapter<char> > >()
FUNC 266d4 23 0 __crt_stdio_output::output_processor<char,__crt_stdio_output::string_output_adapter<char>,__crt_stdio_output::positional_parameter_base<char,__crt_stdio_output::string_output_adapter<char> > >::~output_processor<char,__crt_stdio_output::string_output_adapter<char>,__crt_stdio_output::positional_parameter_base<char,__crt_stdio_output::string_output_adapter<char> > >()
FUNC 26700 23 0 __crt_stdio_output::output_processor<char,__crt_stdio_output::string_output_adapter<char>,__crt_stdio_output::standard_base<char,__crt_stdio_output::string_output_adapter<char> > >::~output_processor<char,__crt_stdio_output::string_output_adapter<char>,__crt_stdio_output::standard_base<char,__crt_stdio_output::string_output_adapter<char> > >()
FUNC 2672c 23 0 __crt_stdio_output::output_processor<wchar_t,__crt_stdio_output::stream_output_adapter<wchar_t>,__crt_stdio_output::format_validation_base<wchar_t,__crt_stdio_output::stream_output_adapter<wchar_t> > >::~output_processor<wchar_t,__crt_stdio_output::stream_output_adapter<wchar_t>,__crt_stdio_output::format_validation_base<wchar_t,__crt_stdio_output::stream_output_adapter<wchar_t> > >()
FUNC 26758 23 0 __crt_stdio_output::output_processor<wchar_t,__crt_stdio_output::stream_output_adapter<wchar_t>,__crt_stdio_output::positional_parameter_base<wchar_t,__crt_stdio_output::stream_output_adapter<wchar_t> > >::~output_processor<wchar_t,__crt_stdio_output::stream_output_adapter<wchar_t>,__crt_stdio_output::positional_parameter_base<wchar_t,__crt_stdio_output::stream_output_adapter<wchar_t> > >()
FUNC 26784 23 0 __crt_stdio_output::output_processor<wchar_t,__crt_stdio_output::stream_output_adapter<wchar_t>,__crt_stdio_output::standard_base<wchar_t,__crt_stdio_output::stream_output_adapter<wchar_t> > >::~output_processor<wchar_t,__crt_stdio_output::stream_output_adapter<wchar_t>,__crt_stdio_output::standard_base<wchar_t,__crt_stdio_output::stream_output_adapter<wchar_t> > >()
FUNC 267b0 23 0 __crt_stdio_output::output_processor<wchar_t,__crt_stdio_output::string_output_adapter<wchar_t>,__crt_stdio_output::format_validation_base<wchar_t,__crt_stdio_output::string_output_adapter<wchar_t> > >::~output_processor<wchar_t,__crt_stdio_output::string_output_adapter<wchar_t>,__crt_stdio_output::format_validation_base<wchar_t,__crt_stdio_output::string_output_adapter<wchar_t> > >()
FUNC 267dc 23 0 __crt_stdio_output::output_processor<wchar_t,__crt_stdio_output::string_output_adapter<wchar_t>,__crt_stdio_output::positional_parameter_base<wchar_t,__crt_stdio_output::string_output_adapter<wchar_t> > >::~output_processor<wchar_t,__crt_stdio_output::string_output_adapter<wchar_t>,__crt_stdio_output::positional_parameter_base<wchar_t,__crt_stdio_output::string_output_adapter<wchar_t> > >()
FUNC 26808 23 0 __crt_stdio_output::output_processor<wchar_t,__crt_stdio_output::string_output_adapter<wchar_t>,__crt_stdio_output::standard_base<wchar_t,__crt_stdio_output::string_output_adapter<wchar_t> > >::~output_processor<wchar_t,__crt_stdio_output::string_output_adapter<wchar_t>,__crt_stdio_output::standard_base<wchar_t,__crt_stdio_output::string_output_adapter<wchar_t> > >()
FUNC 26834 23 0 __crt_stdio_output::positional_parameter_base<char,__crt_stdio_output::stream_output_adapter<char> >::~positional_parameter_base<char,__crt_stdio_output::stream_output_adapter<char> >()
FUNC 26860 23 0 __crt_stdio_output::positional_parameter_base<char,__crt_stdio_output::string_output_adapter<char> >::~positional_parameter_base<char,__crt_stdio_output::string_output_adapter<char> >()
FUNC 2688c 23 0 __crt_stdio_output::positional_parameter_base<wchar_t,__crt_stdio_output::stream_output_adapter<wchar_t> >::~positional_parameter_base<wchar_t,__crt_stdio_output::stream_output_adapter<wchar_t> >()
FUNC 268b8 23 0 __crt_stdio_output::positional_parameter_base<wchar_t,__crt_stdio_output::string_output_adapter<wchar_t> >::~positional_parameter_base<wchar_t,__crt_stdio_output::string_output_adapter<wchar_t> >()
FUNC 268e4 23 0 __crt_stdio_output::standard_base<char,__crt_stdio_output::stream_output_adapter<char> >::~standard_base<char,__crt_stdio_output::stream_output_adapter<char> >()
FUNC 26910 23 0 __crt_stdio_output::standard_base<char,__crt_stdio_output::string_output_adapter<char> >::~standard_base<char,__crt_stdio_output::string_output_adapter<char> >()
FUNC 2693c 23 0 __crt_stdio_output::standard_base<wchar_t,__crt_stdio_output::stream_output_adapter<wchar_t> >::~standard_base<wchar_t,__crt_stdio_output::stream_output_adapter<wchar_t> >()
FUNC 26968 23 0 __crt_stdio_output::standard_base<wchar_t,__crt_stdio_output::string_output_adapter<wchar_t> >::~standard_base<wchar_t,__crt_stdio_output::string_output_adapter<wchar_t> >()
FUNC 26994 11 0 _LocaleUpdate::~_LocaleUpdate()
FUNC 269ac b 0 __acrt_stdio_temporary_buffering_guard::~__acrt_stdio_temporary_buffering_guard()
FUNC 269bc 12 0 __crt_errno_guard::~__crt_errno_guard()
FUNC 269d4 23 0 __crt_stdio_output::formatting_buffer::~formatting_buffer()
FUNC 26a00 34 0 __crt_unique_heap_ptr<char,__crt_internal_free_policy>::operator=(__crt_unique_heap_ptr<char,__crt_internal_free_policy> &&)
FUNC 26a44 4 0 __crt_stdio_stream::operator->()
FUNC 26a48 8 0 <lambda_0d412022a4b28cc8a401ea49574e8ae6>::operator()
FUNC 26a54 12d 0 <lambda_32f117a32e8f8eb613cbf2ca819ed45e>::operator()
FUNC 26bcc 8 0 <lambda_4f4c57057ae4c2bc431a3fc6ace2791f>::operator()
FUNC 26bd8 8 0 <lambda_55577cdf4457e05136e8c1bc6549f697>::operator()
FUNC 26be4 8 0 <lambda_56065050dbf3ada7e59a83db45153de3>::operator()
FUNC 26bf0 8 0 <lambda_57931389d27d3dce8b0bd13c3d0d8333>::operator()
FUNC 26bfc 8 0 <lambda_7322894ee7c8a2d41153fedefeab09e3>::operator()
FUNC 26c08 8 0 <lambda_74b93660f2d9eb3fb15c5de9eff9db7b>::operator()
FUNC 26c14 131 0 <lambda_7e489fec146d5348dbc86d3cce37c1b5>::operator()
FUNC 26d94 8 0 <lambda_975a71a6baa488a08f4e15f6b0339b9e>::operator()
FUNC 26da0 14a 0 <lambda_a2288fdbbd702c8f223b438290af01a4>::operator()
FUNC 26f3c 12d 0 <lambda_a31071773b9a94e445cbd5d04ef99106>::operator()
FUNC 270b4 8 0 <lambda_a62c933ada0517137acf5807a1eeac1f>::operator()
FUNC 270c0 131 0 <lambda_a775ed57af18ba8e4d5dc780aa9068fe>::operator()
FUNC 27240 8 0 <lambda_cd4250c7ac9eb50c05cf8bb6b444cf42>::operator()
FUNC 2724c 8 0 <lambda_d1aaa8c864b24422b55e9201296d78b9>::operator()
FUNC 27258 8 0 <lambda_e823f95267a816de70ce630183b86bc2>::operator()
FUNC 27264 14e 0 <lambda_ee59099aa97e0ff6f003b984c1584058>::operator()
FUNC 27408 5 0 _LocaleUpdate::GetLocaleT()
FUNC 27410 c 0 __crt_stdio_output::output_processor<char,__crt_stdio_output::stream_output_adapter<char>,__crt_stdio_output::format_validation_base<char,__crt_stdio_output::stream_output_adapter<char> > >::adjust_hexit(int,bool)
FUNC 27420 c 0 __crt_stdio_output::output_processor<char,__crt_stdio_output::stream_output_adapter<char>,__crt_stdio_output::positional_parameter_base<char,__crt_stdio_output::stream_output_adapter<char> > >::adjust_hexit(int,bool)
FUNC 27430 c 0 __crt_stdio_output::output_processor<char,__crt_stdio_output::stream_output_adapter<char>,__crt_stdio_output::standard_base<char,__crt_stdio_output::stream_output_adapter<char> > >::adjust_hexit(int,bool)
FUNC 27440 c 0 __crt_stdio_output::output_processor<char,__crt_stdio_output::string_output_adapter<char>,__crt_stdio_output::format_validation_base<char,__crt_stdio_output::string_output_adapter<char> > >::adjust_hexit(int,bool)
FUNC 27450 c 0 __crt_stdio_output::output_processor<char,__crt_stdio_output::string_output_adapter<char>,__crt_stdio_output::positional_parameter_base<char,__crt_stdio_output::string_output_adapter<char> > >::adjust_hexit(int,bool)
FUNC 27460 c 0 __crt_stdio_output::output_processor<char,__crt_stdio_output::string_output_adapter<char>,__crt_stdio_output::standard_base<char,__crt_stdio_output::string_output_adapter<char> > >::adjust_hexit(int,bool)
FUNC 27470 c 0 __crt_stdio_output::output_processor<wchar_t,__crt_stdio_output::stream_output_adapter<wchar_t>,__crt_stdio_output::format_validation_base<wchar_t,__crt_stdio_output::stream_output_adapter<wchar_t> > >::adjust_hexit(int,bool)
FUNC 27480 c 0 __crt_stdio_output::output_processor<wchar_t,__crt_stdio_output::stream_output_adapter<wchar_t>,__crt_stdio_output::positional_parameter_base<wchar_t,__crt_stdio_output::stream_output_adapter<wchar_t> > >::adjust_hexit(int,bool)
FUNC 27490 c 0 __crt_stdio_output::output_processor<wchar_t,__crt_stdio_output::stream_output_adapter<wchar_t>,__crt_stdio_output::standard_base<wchar_t,__crt_stdio_output::stream_output_adapter<wchar_t> > >::adjust_hexit(int,bool)
FUNC 274a0 c 0 __crt_stdio_output::output_processor<wchar_t,__crt_stdio_output::string_output_adapter<wchar_t>,__crt_stdio_output::format_validation_base<wchar_t,__crt_stdio_output::string_output_adapter<wchar_t> > >::adjust_hexit(int,bool)
FUNC 274b0 c 0 __crt_stdio_output::output_processor<wchar_t,__crt_stdio_output::string_output_adapter<wchar_t>,__crt_stdio_output::positional_parameter_base<wchar_t,__crt_stdio_output::string_output_adapter<wchar_t> > >::adjust_hexit(int,bool)
FUNC 274c0 c 0 __crt_stdio_output::output_processor<wchar_t,__crt_stdio_output::string_output_adapter<wchar_t>,__crt_stdio_output::standard_base<wchar_t,__crt_stdio_output::string_output_adapter<wchar_t> > >::adjust_hexit(int,bool)
FUNC 274d0 4e 0 __crt_stdio_output::positional_parameter_base<char,__crt_stdio_output::stream_output_adapter<char> >::advance_to_next_pass()
FUNC 27534 4e 0 __crt_stdio_output::positional_parameter_base<char,__crt_stdio_output::string_output_adapter<char> >::advance_to_next_pass()
FUNC 27598 4e 0 __crt_stdio_output::positional_parameter_base<wchar_t,__crt_stdio_output::stream_output_adapter<wchar_t> >::advance_to_next_pass()
FUNC 275fc 4e 0 __crt_stdio_output::positional_parameter_base<wchar_t,__crt_stdio_output::string_output_adapter<wchar_t> >::advance_to_next_pass()
FUNC 27660 11 0 __crt_stdio_output::standard_base<char,__crt_stdio_output::stream_output_adapter<char> >::advance_to_next_pass()
FUNC 27678 11 0 __crt_stdio_output::standard_base<char,__crt_stdio_output::string_output_adapter<char> >::advance_to_next_pass()
FUNC 27690 11 0 __crt_stdio_output::standard_base<wchar_t,__crt_stdio_output::stream_output_adapter<wchar_t> >::advance_to_next_pass()
FUNC 276a8 11 0 __crt_stdio_output::standard_base<wchar_t,__crt_stdio_output::string_output_adapter<wchar_t> >::advance_to_next_pass()
FUNC 276c0 69 0 __crt_stdio_output::crop_zeroes(char *,__crt_locale_pointers * const)
FUNC 27744 35 0 __crt_stdio_output::output_processor<char,__crt_stdio_output::stream_output_adapter<char>,__crt_stdio_output::format_validation_base<char,__crt_stdio_output::stream_output_adapter<char> > >::find_next_state(char,__crt_stdio_output::state)
FUNC 27788 35 0 __crt_stdio_output::output_processor<char,__crt_stdio_output::stream_output_adapter<char>,__crt_stdio_output::positional_parameter_base<char,__crt_stdio_output::stream_output_adapter<char> > >::find_next_state(char,__crt_stdio_output::state)
FUNC 277cc 33 0 __crt_stdio_output::output_processor<char,__crt_stdio_output::stream_output_adapter<char>,__crt_stdio_output::standard_base<char,__crt_stdio_output::stream_output_adapter<char> > >::find_next_state(char,__crt_stdio_output::state)
FUNC 2780c 35 0 __crt_stdio_output::output_processor<char,__crt_stdio_output::string_output_adapter<char>,__crt_stdio_output::format_validation_base<char,__crt_stdio_output::string_output_adapter<char> > >::find_next_state(char,__crt_stdio_output::state)
FUNC 27850 35 0 __crt_stdio_output::output_processor<char,__crt_stdio_output::string_output_adapter<char>,__crt_stdio_output::positional_parameter_base<char,__crt_stdio_output::string_output_adapter<char> > >::find_next_state(char,__crt_stdio_output::state)
FUNC 27894 33 0 __crt_stdio_output::output_processor<char,__crt_stdio_output::string_output_adapter<char>,__crt_stdio_output::standard_base<char,__crt_stdio_output::string_output_adapter<char> > >::find_next_state(char,__crt_stdio_output::state)
FUNC 278d4 32 0 __crt_stdio_output::output_processor<wchar_t,__crt_stdio_output::stream_output_adapter<wchar_t>,__crt_stdio_output::format_validation_base<wchar_t,__crt_stdio_output::stream_output_adapter<wchar_t> > >::find_next_state(wchar_t,__crt_stdio_output::state)
FUNC 27914 32 0 __crt_stdio_output::output_processor<wchar_t,__crt_stdio_output::stream_output_adapter<wchar_t>,__crt_stdio_output::positional_parameter_base<wchar_t,__crt_stdio_output::stream_output_adapter<wchar_t> > >::find_next_state(wchar_t,__crt_stdio_output::state)
FUNC 27954 30 0 __crt_stdio_output::output_processor<wchar_t,__crt_stdio_output::stream_output_adapter<wchar_t>,__crt_stdio_output::standard_base<wchar_t,__crt_stdio_output::stream_output_adapter<wchar_t> > >::find_next_state(wchar_t,__crt_stdio_output::state)
FUNC 27990 32 0 __crt_stdio_output::output_processor<wchar_t,__crt_stdio_output::string_output_adapter<wchar_t>,__crt_stdio_output::format_validation_base<wchar_t,__crt_stdio_output::string_output_adapter<wchar_t> > >::find_next_state(wchar_t,__crt_stdio_output::state)
FUNC 279d0 32 0 __crt_stdio_output::output_processor<wchar_t,__crt_stdio_output::string_output_adapter<wchar_t>,__crt_stdio_output::positional_parameter_base<wchar_t,__crt_stdio_output::string_output_adapter<wchar_t> > >::find_next_state(wchar_t,__crt_stdio_output::state)
FUNC 27a10 30 0 __crt_stdio_output::output_processor<wchar_t,__crt_stdio_output::string_output_adapter<wchar_t>,__crt_stdio_output::standard_base<wchar_t,__crt_stdio_output::string_output_adapter<wchar_t> > >::find_next_state(wchar_t,__crt_stdio_output::state)
FUNC 27a4c 6d 0 __crt_stdio_output::force_decimal_point(char *,__crt_locale_pointers * const)
FUNC 27ad4 1f 0 __crt_deferred_errno_cache::get()
FUNC 27afc 7 0 __crt_stdio_stream::get_flags()
FUNC 27b04 6 0 __crt_stdio_output::positional_parameter_base<char,__crt_stdio_output::stream_output_adapter<char> >::get_parameter_type(short)
FUNC 27b0c 6 0 __crt_stdio_output::positional_parameter_base<char,__crt_stdio_output::stream_output_adapter<char> >::get_parameter_type(unsigned short)
FUNC 27b14 6 0 __crt_stdio_output::positional_parameter_base<char,__crt_stdio_output::stream_output_adapter<char> >::get_parameter_type(int)
FUNC 27b1c 6 0 __crt_stdio_output::positional_parameter_base<char,__crt_stdio_output::stream_output_adapter<char> >::get_parameter_type(unsigned int)
FUNC 27b24 6 0 __crt_stdio_output::positional_parameter_base<char,__crt_stdio_output::stream_output_adapter<char> >::get_parameter_type(_CRT_DOUBLE)
FUNC 27b2c 6 0 __crt_stdio_output::positional_parameter_base<char,__crt_stdio_output::stream_output_adapter<char> >::get_parameter_type(__int64)
FUNC 27b34 6 0 __crt_stdio_output::positional_parameter_base<char,__crt_stdio_output::stream_output_adapter<char> >::get_parameter_type(unsigned __int64)
FUNC 27b3c 6 0 __crt_stdio_output::positional_parameter_base<char,__crt_stdio_output::stream_output_adapter<char> >::get_parameter_type(wchar_t)
FUNC 27b44 6 0 __crt_stdio_output::positional_parameter_base<char,__crt_stdio_output::string_output_adapter<char> >::get_parameter_type(short)
FUNC 27b4c 6 0 __crt_stdio_output::positional_parameter_base<char,__crt_stdio_output::string_output_adapter<char> >::get_parameter_type(unsigned short)
FUNC 27b54 6 0 __crt_stdio_output::positional_parameter_base<char,__crt_stdio_output::string_output_adapter<char> >::get_parameter_type(int)
FUNC 27b5c 6 0 __crt_stdio_output::positional_parameter_base<char,__crt_stdio_output::string_output_adapter<char> >::get_parameter_type(unsigned int)
FUNC 27b64 6 0 __crt_stdio_output::positional_parameter_base<char,__crt_stdio_output::string_output_adapter<char> >::get_parameter_type(_CRT_DOUBLE)
FUNC 27b6c 6 0 __crt_stdio_output::positional_parameter_base<char,__crt_stdio_output::string_output_adapter<char> >::get_parameter_type(__int64)
FUNC 27b74 6 0 __crt_stdio_output::positional_parameter_base<char,__crt_stdio_output::string_output_adapter<char> >::get_parameter_type(unsigned __int64)
FUNC 27b7c 6 0 __crt_stdio_output::positional_parameter_base<char,__crt_stdio_output::string_output_adapter<char> >::get_parameter_type(wchar_t)
FUNC 27b84 6 0 __crt_stdio_output::positional_parameter_base<wchar_t,__crt_stdio_output::stream_output_adapter<wchar_t> >::get_parameter_type(short)
FUNC 27b8c 6 0 __crt_stdio_output::positional_parameter_base<wchar_t,__crt_stdio_output::stream_output_adapter<wchar_t> >::get_parameter_type(unsigned short)
FUNC 27b94 6 0 __crt_stdio_output::positional_parameter_base<wchar_t,__crt_stdio_output::stream_output_adapter<wchar_t> >::get_parameter_type(int)
FUNC 27b9c 6 0 __crt_stdio_output::positional_parameter_base<wchar_t,__crt_stdio_output::stream_output_adapter<wchar_t> >::get_parameter_type(unsigned int)
FUNC 27ba4 6 0 __crt_stdio_output::positional_parameter_base<wchar_t,__crt_stdio_output::stream_output_adapter<wchar_t> >::get_parameter_type(_CRT_DOUBLE)
FUNC 27bac 6 0 __crt_stdio_output::positional_parameter_base<wchar_t,__crt_stdio_output::stream_output_adapter<wchar_t> >::get_parameter_type(__int64)
FUNC 27bb4 6 0 __crt_stdio_output::positional_parameter_base<wchar_t,__crt_stdio_output::stream_output_adapter<wchar_t> >::get_parameter_type(unsigned __int64)
FUNC 27bbc 6 0 __crt_stdio_output::positional_parameter_base<wchar_t,__crt_stdio_output::stream_output_adapter<wchar_t> >::get_parameter_type(wchar_t)
FUNC 27bc4 6 0 __crt_stdio_output::positional_parameter_base<wchar_t,__crt_stdio_output::string_output_adapter<wchar_t> >::get_parameter_type(short)
FUNC 27bcc 6 0 __crt_stdio_output::positional_parameter_base<wchar_t,__crt_stdio_output::string_output_adapter<wchar_t> >::get_parameter_type(unsigned short)
FUNC 27bd4 6 0 __crt_stdio_output::positional_parameter_base<wchar_t,__crt_stdio_output::string_output_adapter<wchar_t> >::get_parameter_type(int)
FUNC 27bdc 6 0 __crt_stdio_output::positional_parameter_base<wchar_t,__crt_stdio_output::string_output_adapter<wchar_t> >::get_parameter_type(unsigned int)
FUNC 27be4 6 0 __crt_stdio_output::positional_parameter_base<wchar_t,__crt_stdio_output::string_output_adapter<wchar_t> >::get_parameter_type(_CRT_DOUBLE)
FUNC 27bec 6 0 __crt_stdio_output::positional_parameter_base<wchar_t,__crt_stdio_output::string_output_adapter<wchar_t> >::get_parameter_type(__int64)
FUNC 27bf4 6 0 __crt_stdio_output::positional_parameter_base<wchar_t,__crt_stdio_output::string_output_adapter<wchar_t> >::get_parameter_type(unsigned __int64)
FUNC 27bfc 6 0 __crt_stdio_output::positional_parameter_base<wchar_t,__crt_stdio_output::string_output_adapter<wchar_t> >::get_parameter_type(wchar_t)
FUNC 27c04 7 0 __crt_stdio_output::output_processor<char,__crt_stdio_output::stream_output_adapter<char>,__crt_stdio_output::format_validation_base<char,__crt_stdio_output::stream_output_adapter<char> > >::has_flag(unsigned int)
FUNC 27c0c 7 0 __crt_stdio_output::output_processor<char,__crt_stdio_output::stream_output_adapter<char>,__crt_stdio_output::positional_parameter_base<char,__crt_stdio_output::stream_output_adapter<char> > >::has_flag(unsigned int)
FUNC 27c14 7 0 __crt_stdio_output::output_processor<char,__crt_stdio_output::stream_output_adapter<char>,__crt_stdio_output::standard_base<char,__crt_stdio_output::stream_output_adapter<char> > >::has_flag(unsigned int)
FUNC 27c1c 7 0 __crt_stdio_output::output_processor<char,__crt_stdio_output::string_output_adapter<char>,__crt_stdio_output::format_validation_base<char,__crt_stdio_output::string_output_adapter<char> > >::has_flag(unsigned int)
FUNC 27c24 7 0 __crt_stdio_output::output_processor<char,__crt_stdio_output::string_output_adapter<char>,__crt_stdio_output::positional_parameter_base<char,__crt_stdio_output::string_output_adapter<char> > >::has_flag(unsigned int)
FUNC 27c2c 7 0 __crt_stdio_output::output_processor<char,__crt_stdio_output::string_output_adapter<char>,__crt_stdio_output::standard_base<char,__crt_stdio_output::string_output_adapter<char> > >::has_flag(unsigned int)
FUNC 27c34 7 0 __crt_stdio_output::output_processor<wchar_t,__crt_stdio_output::stream_output_adapter<wchar_t>,__crt_stdio_output::format_validation_base<wchar_t,__crt_stdio_output::stream_output_adapter<wchar_t> > >::has_flag(unsigned int)
FUNC 27c3c 7 0 __crt_stdio_output::output_processor<wchar_t,__crt_stdio_output::stream_output_adapter<wchar_t>,__crt_stdio_output::positional_parameter_base<wchar_t,__crt_stdio_output::stream_output_adapter<wchar_t> > >::has_flag(unsigned int)
FUNC 27c44 7 0 __crt_stdio_output::output_processor<wchar_t,__crt_stdio_output::stream_output_adapter<wchar_t>,__crt_stdio_output::standard_base<wchar_t,__crt_stdio_output::stream_output_adapter<wchar_t> > >::has_flag(unsigned int)
FUNC 27c4c 7 0 __crt_stdio_output::output_processor<wchar_t,__crt_stdio_output::string_output_adapter<wchar_t>,__crt_stdio_output::format_validation_base<wchar_t,__crt_stdio_output::string_output_adapter<wchar_t> > >::has_flag(unsigned int)
FUNC 27c54 7 0 __crt_stdio_output::output_processor<wchar_t,__crt_stdio_output::string_output_adapter<wchar_t>,__crt_stdio_output::positional_parameter_base<wchar_t,__crt_stdio_output::string_output_adapter<wchar_t> > >::has_flag(unsigned int)
FUNC 27c5c 7 0 __crt_stdio_output::output_processor<wchar_t,__crt_stdio_output::string_output_adapter<wchar_t>,__crt_stdio_output::standard_base<wchar_t,__crt_stdio_output::string_output_adapter<wchar_t> > >::has_flag(unsigned int)
FUNC 27c64 22c 0 __crt_stdio_output::positional_parameter_base<char,__crt_stdio_output::stream_output_adapter<char> >::is_positional_parameter_reappearance_consistent(__crt_stdio_output::positional_parameter_base<char,__crt_stdio_output::stream_output_adapter<char> >::parameter_data const &,__crt_stdio_output::positional_parameter_base<char,__crt_stdio_output::stream_output_adapter<char> >::parameter_type,char,__crt_stdio_output::length_modifier)
FUNC 27f1c 22c 0 __crt_stdio_output::positional_parameter_base<char,__crt_stdio_output::string_output_adapter<char> >::is_positional_parameter_reappearance_consistent(__crt_stdio_output::positional_parameter_base<char,__crt_stdio_output::string_output_adapter<char> >::parameter_data const &,__crt_stdio_output::positional_parameter_base<char,__crt_stdio_output::string_output_adapter<char> >::parameter_type,char,__crt_stdio_output::length_modifier)
FUNC 281d4 1f2 0 __crt_stdio_output::positional_parameter_base<wchar_t,__crt_stdio_output::stream_output_adapter<wchar_t> >::is_positional_parameter_reappearance_consistent(__crt_stdio_output::positional_parameter_base<wchar_t,__crt_stdio_output::stream_output_adapter<wchar_t> >::parameter_data const &,__crt_stdio_output::positional_parameter_base<wchar_t,__crt_stdio_output::stream_output_adapter<wchar_t> >::parameter_type,wchar_t,__crt_stdio_output::length_modifier)
FUNC 28444 1f2 0 __crt_stdio_output::positional_parameter_base<wchar_t,__crt_stdio_output::string_output_adapter<wchar_t> >::is_positional_parameter_reappearance_consistent(__crt_stdio_output::positional_parameter_base<wchar_t,__crt_stdio_output::string_output_adapter<wchar_t> >::parameter_data const &,__crt_stdio_output::positional_parameter_base<wchar_t,__crt_stdio_output::string_output_adapter<wchar_t> >::parameter_type,wchar_t,__crt_stdio_output::length_modifier)
FUNC 286b4 c 0 __crt_stdio_stream::is_string_backed()
FUNC 286c4 8 0 __crt_stdio_output::output_processor<char,__crt_stdio_output::stream_output_adapter<char>,__crt_stdio_output::format_validation_base<char,__crt_stdio_output::stream_output_adapter<char> > >::narrow_null_string()
FUNC 286d0 8 0 __crt_stdio_output::output_processor<char,__crt_stdio_output::stream_output_adapter<char>,__crt_stdio_output::positional_parameter_base<char,__crt_stdio_output::stream_output_adapter<char> > >::narrow_null_string()
FUNC 286dc 8 0 __crt_stdio_output::output_processor<char,__crt_stdio_output::stream_output_adapter<char>,__crt_stdio_output::standard_base<char,__crt_stdio_output::stream_output_adapter<char> > >::narrow_null_string()
FUNC 286e8 8 0 __crt_stdio_output::output_processor<char,__crt_stdio_output::string_output_adapter<char>,__crt_stdio_output::format_validation_base<char,__crt_stdio_output::string_output_adapter<char> > >::narrow_null_string()
FUNC 286f4 8 0 __crt_stdio_output::output_processor<char,__crt_stdio_output::string_output_adapter<char>,__crt_stdio_output::positional_parameter_base<char,__crt_stdio_output::string_output_adapter<char> > >::narrow_null_string()
FUNC 28700 8 0 __crt_stdio_output::output_processor<char,__crt_stdio_output::string_output_adapter<char>,__crt_stdio_output::standard_base<char,__crt_stdio_output::string_output_adapter<char> > >::narrow_null_string()
FUNC 2870c 8 0 __crt_stdio_output::output_processor<wchar_t,__crt_stdio_output::stream_output_adapter<wchar_t>,__crt_stdio_output::format_validation_base<wchar_t,__crt_stdio_output::stream_output_adapter<wchar_t> > >::narrow_null_string()
FUNC 28718 8 0 __crt_stdio_output::output_processor<wchar_t,__crt_stdio_output::stream_output_adapter<wchar_t>,__crt_stdio_output::positional_parameter_base<wchar_t,__crt_stdio_output::stream_output_adapter<wchar_t> > >::narrow_null_string()
FUNC 28724 8 0 __crt_stdio_output::output_processor<wchar_t,__crt_stdio_output::stream_output_adapter<wchar_t>,__crt_stdio_output::standard_base<wchar_t,__crt_stdio_output::stream_output_adapter<wchar_t> > >::narrow_null_string()
FUNC 28730 8 0 __crt_stdio_output::output_processor<wchar_t,__crt_stdio_output::string_output_adapter<wchar_t>,__crt_stdio_output::format_validation_base<wchar_t,__crt_stdio_output::string_output_adapter<wchar_t> > >::narrow_null_string()
FUNC 2873c 8 0 __crt_stdio_output::output_processor<wchar_t,__crt_stdio_output::string_output_adapter<wchar_t>,__crt_stdio_output::positional_parameter_base<wchar_t,__crt_stdio_output::string_output_adapter<wchar_t> > >::narrow_null_string()
FUNC 28748 8 0 __crt_stdio_output::output_processor<wchar_t,__crt_stdio_output::string_output_adapter<wchar_t>,__crt_stdio_output::standard_base<wchar_t,__crt_stdio_output::string_output_adapter<wchar_t> > >::narrow_null_string()
FUNC 28754 a1 0 __crt_stdio_output::output_processor<char,__crt_stdio_output::stream_output_adapter<char>,__crt_stdio_output::format_validation_base<char,__crt_stdio_output::stream_output_adapter<char> > >::parse_int_from_format_string(int * const)
FUNC 28820 a1 0 __crt_stdio_output::output_processor<char,__crt_stdio_output::stream_output_adapter<char>,__crt_stdio_output::positional_parameter_base<char,__crt_stdio_output::stream_output_adapter<char> > >::parse_int_from_format_string(int * const)
FUNC 288ec a1 0 __crt_stdio_output::output_processor<char,__crt_stdio_output::stream_output_adapter<char>,__crt_stdio_output::standard_base<char,__crt_stdio_output::stream_output_adapter<char> > >::parse_int_from_format_string(int * const)
FUNC 289b8 a1 0 __crt_stdio_output::output_processor<char,__crt_stdio_output::string_output_adapter<char>,__crt_stdio_output::format_validation_base<char,__crt_stdio_output::string_output_adapter<char> > >::parse_int_from_format_string(int * const)
FUNC 28a84 a1 0 __crt_stdio_output::output_processor<char,__crt_stdio_output::string_output_adapter<char>,__crt_stdio_output::positional_parameter_base<char,__crt_stdio_output::string_output_adapter<char> > >::parse_int_from_format_string(int * const)
FUNC 28b50 a1 0 __crt_stdio_output::output_processor<char,__crt_stdio_output::string_output_adapter<char>,__crt_stdio_output::standard_base<char,__crt_stdio_output::string_output_adapter<char> > >::parse_int_from_format_string(int * const)
FUNC 28c1c a3 0 __crt_stdio_output::output_processor<wchar_t,__crt_stdio_output::stream_output_adapter<wchar_t>,__crt_stdio_output::format_validation_base<wchar_t,__crt_stdio_output::stream_output_adapter<wchar_t> > >::parse_int_from_format_string(int * const)
FUNC 28ce8 a3 0 __crt_stdio_output::output_processor<wchar_t,__crt_stdio_output::stream_output_adapter<wchar_t>,__crt_stdio_output::positional_parameter_base<wchar_t,__crt_stdio_output::stream_output_adapter<wchar_t> > >::parse_int_from_format_string(int * const)
FUNC 28db4 a3 0 __crt_stdio_output::output_processor<wchar_t,__crt_stdio_output::stream_output_adapter<wchar_t>,__crt_stdio_output::standard_base<wchar_t,__crt_stdio_output::stream_output_adapter<wchar_t> > >::parse_int_from_format_string(int * const)
FUNC 28e80 a3 0 __crt_stdio_output::output_processor<wchar_t,__crt_stdio_output::string_output_adapter<wchar_t>,__crt_stdio_output::format_validation_base<wchar_t,__crt_stdio_output::string_output_adapter<wchar_t> > >::parse_int_from_format_string(int * const)
FUNC 28f4c a3 0 __crt_stdio_output::output_processor<wchar_t,__crt_stdio_output::string_output_adapter<wchar_t>,__crt_stdio_output::positional_parameter_base<wchar_t,__crt_stdio_output::string_output_adapter<wchar_t> > >::parse_int_from_format_string(int * const)
FUNC 29018 a3 0 __crt_stdio_output::output_processor<wchar_t,__crt_stdio_output::string_output_adapter<wchar_t>,__crt_stdio_output::standard_base<wchar_t,__crt_stdio_output::string_output_adapter<wchar_t> > >::parse_int_from_format_string(int * const)
FUNC 290e4 221 0 __crt_stdio_output::output_processor<char,__crt_stdio_output::stream_output_adapter<char>,__crt_stdio_output::format_validation_base<char,__crt_stdio_output::stream_output_adapter<char> > >::process()
FUNC 29390 2a6 0 __crt_stdio_output::output_processor<char,__crt_stdio_output::stream_output_adapter<char>,__crt_stdio_output::positional_parameter_base<char,__crt_stdio_output::stream_output_adapter<char> > >::process()
FUNC 296e0 211 0 __crt_stdio_output::output_processor<char,__crt_stdio_output::stream_output_adapter<char>,__crt_stdio_output::standard_base<char,__crt_stdio_output::stream_output_adapter<char> > >::process()
FUNC 29978 211 0 __crt_stdio_output::output_processor<char,__crt_stdio_output::string_output_adapter<char>,__crt_stdio_output::format_validation_base<char,__crt_stdio_output::string_output_adapter<char> > >::process()
FUNC 29c10 298 0 __crt_stdio_output::output_processor<char,__crt_stdio_output::string_output_adapter<char>,__crt_stdio_output::positional_parameter_base<char,__crt_stdio_output::string_output_adapter<char> > >::process()
FUNC 29f50 204 0 __crt_stdio_output::output_processor<char,__crt_stdio_output::string_output_adapter<char>,__crt_stdio_output::standard_base<char,__crt_stdio_output::string_output_adapter<char> > >::process()
FUNC 2a1d8 261 0 __crt_stdio_output::output_processor<wchar_t,__crt_stdio_output::stream_output_adapter<wchar_t>,__crt_stdio_output::format_validation_base<wchar_t,__crt_stdio_output::stream_output_adapter<wchar_t> > >::process()
FUNC 2a4d4 2a8 0 __crt_stdio_output::output_processor<wchar_t,__crt_stdio_output::stream_output_adapter<wchar_t>,__crt_stdio_output::positional_parameter_base<wchar_t,__crt_stdio_output::stream_output_adapter<wchar_t> > >::process()
FUNC 2a828 256 0 __crt_stdio_output::output_processor<wchar_t,__crt_stdio_output::stream_output_adapter<wchar_t>,__crt_stdio_output::standard_base<wchar_t,__crt_stdio_output::stream_output_adapter<wchar_t> > >::process()
FUNC 2ab14 264 0 __crt_stdio_output::output_processor<wchar_t,__crt_stdio_output::string_output_adapter<wchar_t>,__crt_stdio_output::format_validation_base<wchar_t,__crt_stdio_output::string_output_adapter<wchar_t> > >::process()
FUNC 2ae14 2a8 0 __crt_stdio_output::output_processor<wchar_t,__crt_stdio_output::string_output_adapter<wchar_t>,__crt_stdio_output::positional_parameter_base<wchar_t,__crt_stdio_output::string_output_adapter<wchar_t> > >::process()
FUNC 2b168 259 0 __crt_stdio_output::output_processor<wchar_t,__crt_stdio_output::string_output_adapter<wchar_t>,__crt_stdio_output::standard_base<wchar_t,__crt_stdio_output::string_output_adapter<wchar_t> > >::process()
FUNC 2b458 4 0 __crt_stdio_stream::public_stream()
FUNC 2b45c 4 0 __crt_stdio_output::output_processor<char,__crt_stdio_output::stream_output_adapter<char>,__crt_stdio_output::format_validation_base<char,__crt_stdio_output::stream_output_adapter<char> > >::set_flag(unsigned int)
FUNC 2b460 4 0 __crt_stdio_output::output_processor<char,__crt_stdio_output::stream_output_adapter<char>,__crt_stdio_output::positional_parameter_base<char,__crt_stdio_output::stream_output_adapter<char> > >::set_flag(unsigned int)
FUNC 2b464 4 0 __crt_stdio_output::output_processor<char,__crt_stdio_output::stream_output_adapter<char>,__crt_stdio_output::standard_base<char,__crt_stdio_output::stream_output_adapter<char> > >::set_flag(unsigned int)
FUNC 2b468 4 0 __crt_stdio_output::output_processor<char,__crt_stdio_output::string_output_adapter<char>,__crt_stdio_output::format_validation_base<char,__crt_stdio_output::string_output_adapter<char> > >::set_flag(unsigned int)
FUNC 2b46c 4 0 __crt_stdio_output::output_processor<char,__crt_stdio_output::string_output_adapter<char>,__crt_stdio_output::positional_parameter_base<char,__crt_stdio_output::string_output_adapter<char> > >::set_flag(unsigned int)
FUNC 2b470 4 0 __crt_stdio_output::output_processor<char,__crt_stdio_output::string_output_adapter<char>,__crt_stdio_output::standard_base<char,__crt_stdio_output::string_output_adapter<char> > >::set_flag(unsigned int)
FUNC 2b474 4 0 __crt_stdio_output::output_processor<wchar_t,__crt_stdio_output::stream_output_adapter<wchar_t>,__crt_stdio_output::format_validation_base<wchar_t,__crt_stdio_output::stream_output_adapter<wchar_t> > >::set_flag(unsigned int)
FUNC 2b478 4 0 __crt_stdio_output::output_processor<wchar_t,__crt_stdio_output::stream_output_adapter<wchar_t>,__crt_stdio_output::positional_parameter_base<wchar_t,__crt_stdio_output::stream_output_adapter<wchar_t> > >::set_flag(unsigned int)
FUNC 2b47c 4 0 __crt_stdio_output::output_processor<wchar_t,__crt_stdio_output::stream_output_adapter<wchar_t>,__crt_stdio_output::standard_base<wchar_t,__crt_stdio_output::stream_output_adapter<wchar_t> > >::set_flag(unsigned int)
FUNC 2b480 4 0 __crt_stdio_output::output_processor<wchar_t,__crt_stdio_output::string_output_adapter<wchar_t>,__crt_stdio_output::format_validation_base<wchar_t,__crt_stdio_output::string_output_adapter<wchar_t> > >::set_flag(unsigned int)
FUNC 2b484 4 0 __crt_stdio_output::output_processor<wchar_t,__crt_stdio_output::string_output_adapter<wchar_t>,__crt_stdio_output::positional_parameter_base<wchar_t,__crt_stdio_output::string_output_adapter<wchar_t> > >::set_flag(unsigned int)
FUNC 2b488 4 0 __crt_stdio_output::output_processor<wchar_t,__crt_stdio_output::string_output_adapter<wchar_t>,__crt_stdio_output::standard_base<wchar_t,__crt_stdio_output::string_output_adapter<wchar_t> > >::set_flag(unsigned int)
FUNC 2b48c 18 0 __crt_stdio_output::positional_parameter_base<char,__crt_stdio_output::stream_output_adapter<char> >::should_format()
FUNC 2b4ac 18 0 __crt_stdio_output::positional_parameter_base<char,__crt_stdio_output::string_output_adapter<char> >::should_format()
FUNC 2b4cc 18 0 __crt_stdio_output::positional_parameter_base<wchar_t,__crt_stdio_output::stream_output_adapter<wchar_t> >::should_format()
FUNC 2b4ec 18 0 __crt_stdio_output::positional_parameter_base<wchar_t,__crt_stdio_output::string_output_adapter<wchar_t> >::should_format()
FUNC 2b50c 3 0 __crt_stdio_output::standard_base<char,__crt_stdio_output::stream_output_adapter<char> >::should_format()
FUNC 2b510 3 0 __crt_stdio_output::standard_base<char,__crt_stdio_output::string_output_adapter<char> >::should_format()
FUNC 2b514 3 0 __crt_stdio_output::standard_base<wchar_t,__crt_stdio_output::stream_output_adapter<wchar_t> >::should_format()
FUNC 2b518 3 0 __crt_stdio_output::standard_base<wchar_t,__crt_stdio_output::string_output_adapter<wchar_t> >::should_format()
FUNC 2b51c 28 0 __crt_stdio_output::positional_parameter_base<char,__crt_stdio_output::stream_output_adapter<char> >::should_skip_normal_state_processing()
FUNC 2b550 28 0 __crt_stdio_output::positional_parameter_base<char,__crt_stdio_output::string_output_adapter<char> >::should_skip_normal_state_processing()
FUNC 2b584 28 0 __crt_stdio_output::positional_parameter_base<wchar_t,__crt_stdio_output::stream_output_adapter<wchar_t> >::should_skip_normal_state_processing()
FUNC 2b5b8 28 0 __crt_stdio_output::positional_parameter_base<wchar_t,__crt_stdio_output::string_output_adapter<wchar_t> >::should_skip_normal_state_processing()
FUNC 2b5ec 3 0 __crt_stdio_output::standard_base<char,__crt_stdio_output::stream_output_adapter<char> >::should_skip_normal_state_processing()
FUNC 2b5f0 3 0 __crt_stdio_output::standard_base<char,__crt_stdio_output::string_output_adapter<char> >::should_skip_normal_state_processing()
FUNC 2b5f4 3 0 __crt_stdio_output::standard_base<wchar_t,__crt_stdio_output::stream_output_adapter<wchar_t> >::should_skip_normal_state_processing()
FUNC 2b5f8 3 0 __crt_stdio_output::standard_base<wchar_t,__crt_stdio_output::string_output_adapter<wchar_t> >::should_skip_normal_state_processing()
FUNC 2b5fc 19 0 __crt_stdio_output::positional_parameter_base<char,__crt_stdio_output::stream_output_adapter<char> >::should_skip_type_state_output()
FUNC 2b61c 19 0 __crt_stdio_output::positional_parameter_base<char,__crt_stdio_output::string_output_adapter<char> >::should_skip_type_state_output()
FUNC 2b63c 19 0 __crt_stdio_output::positional_parameter_base<wchar_t,__crt_stdio_output::stream_output_adapter<wchar_t> >::should_skip_type_state_output()
FUNC 2b65c 19 0 __crt_stdio_output::positional_parameter_base<wchar_t,__crt_stdio_output::string_output_adapter<wchar_t> >::should_skip_type_state_output()
FUNC 2b67c 3 0 __crt_stdio_output::standard_base<char,__crt_stdio_output::stream_output_adapter<char> >::should_skip_type_state_output()
FUNC 2b680 3 0 __crt_stdio_output::standard_base<char,__crt_stdio_output::string_output_adapter<char> >::should_skip_type_state_output()
FUNC 2b684 3 0 __crt_stdio_output::standard_base<wchar_t,__crt_stdio_output::stream_output_adapter<wchar_t> >::should_skip_type_state_output()
FUNC 2b688 3 0 __crt_stdio_output::standard_base<wchar_t,__crt_stdio_output::string_output_adapter<wchar_t> >::should_skip_type_state_output()
FUNC 2b68c 7 0 __crt_stdio_output::output_processor<char,__crt_stdio_output::stream_output_adapter<char>,__crt_stdio_output::format_validation_base<char,__crt_stdio_output::stream_output_adapter<char> > >::state_case_dot()
FUNC 2b694 7 0 __crt_stdio_output::output_processor<char,__crt_stdio_output::stream_output_adapter<char>,__crt_stdio_output::positional_parameter_base<char,__crt_stdio_output::stream_output_adapter<char> > >::state_case_dot()
FUNC 2b69c 7 0 __crt_stdio_output::output_processor<char,__crt_stdio_output::stream_output_adapter<char>,__crt_stdio_output::standard_base<char,__crt_stdio_output::stream_output_adapter<char> > >::state_case_dot()
FUNC 2b6a4 7 0 __crt_stdio_output::output_processor<char,__crt_stdio_output::string_output_adapter<char>,__crt_stdio_output::format_validation_base<char,__crt_stdio_output::string_output_adapter<char> > >::state_case_dot()
FUNC 2b6ac 7 0 __crt_stdio_output::output_processor<char,__crt_stdio_output::string_output_adapter<char>,__crt_stdio_output::positional_parameter_base<char,__crt_stdio_output::string_output_adapter<char> > >::state_case_dot()
FUNC 2b6b4 7 0 __crt_stdio_output::output_processor<char,__crt_stdio_output::string_output_adapter<char>,__crt_stdio_output::standard_base<char,__crt_stdio_output::string_output_adapter<char> > >::state_case_dot()
FUNC 2b6bc 7 0 __crt_stdio_output::output_processor<wchar_t,__crt_stdio_output::stream_output_adapter<wchar_t>,__crt_stdio_output::format_validation_base<wchar_t,__crt_stdio_output::stream_output_adapter<wchar_t> > >::state_case_dot()
FUNC 2b6c4 7 0 __crt_stdio_output::output_processor<wchar_t,__crt_stdio_output::stream_output_adapter<wchar_t>,__crt_stdio_output::positional_parameter_base<wchar_t,__crt_stdio_output::stream_output_adapter<wchar_t> > >::state_case_dot()
FUNC 2b6cc 7 0 __crt_stdio_output::output_processor<wchar_t,__crt_stdio_output::stream_output_adapter<wchar_t>,__crt_stdio_output::standard_base<wchar_t,__crt_stdio_output::stream_output_adapter<wchar_t> > >::state_case_dot()
FUNC 2b6d4 7 0 __crt_stdio_output::output_processor<wchar_t,__crt_stdio_output::string_output_adapter<wchar_t>,__crt_stdio_output::format_validation_base<wchar_t,__crt_stdio_output::string_output_adapter<wchar_t> > >::state_case_dot()
FUNC 2b6dc 7 0 __crt_stdio_output::output_processor<wchar_t,__crt_stdio_output::string_output_adapter<wchar_t>,__crt_stdio_output::positional_parameter_base<wchar_t,__crt_stdio_output::string_output_adapter<wchar_t> > >::state_case_dot()
FUNC 2b6e4 7 0 __crt_stdio_output::output_processor<wchar_t,__crt_stdio_output::string_output_adapter<wchar_t>,__crt_stdio_output::standard_base<wchar_t,__crt_stdio_output::string_output_adapter<wchar_t> > >::state_case_dot()
FUNC 2b6ec 36 0 __crt_stdio_output::output_processor<char,__crt_stdio_output::stream_output_adapter<char>,__crt_stdio_output::format_validation_base<char,__crt_stdio_output::stream_output_adapter<char> > >::state_case_flag()
FUNC 2b730 36 0 __crt_stdio_output::output_processor<char,__crt_stdio_output::stream_output_adapter<char>,__crt_stdio_output::positional_parameter_base<char,__crt_stdio_output::stream_output_adapter<char> > >::state_case_flag()
FUNC 2b774 36 0 __crt_stdio_output::output_processor<char,__crt_stdio_output::stream_output_adapter<char>,__crt_stdio_output::standard_base<char,__crt_stdio_output::stream_output_adapter<char> > >::state_case_flag()
FUNC 2b7b8 36 0 __crt_stdio_output::output_processor<char,__crt_stdio_output::string_output_adapter<char>,__crt_stdio_output::format_validation_base<char,__crt_stdio_output::string_output_adapter<char> > >::state_case_flag()
FUNC 2b7fc 36 0 __crt_stdio_output::output_processor<char,__crt_stdio_output::string_output_adapter<char>,__crt_stdio_output::positional_parameter_base<char,__crt_stdio_output::string_output_adapter<char> > >::state_case_flag()
FUNC 2b840 36 0 __crt_stdio_output::output_processor<char,__crt_stdio_output::string_output_adapter<char>,__crt_stdio_output::standard_base<char,__crt_stdio_output::string_output_adapter<char> > >::state_case_flag()
FUNC 2b884 3c 0 __crt_stdio_output::output_processor<wchar_t,__crt_stdio_output::stream_output_adapter<wchar_t>,__crt_stdio_output::format_validation_base<wchar_t,__crt_stdio_output::stream_output_adapter<wchar_t> > >::state_case_flag()
FUNC 2b8d0 3c 0 __crt_stdio_output::output_processor<wchar_t,__crt_stdio_output::stream_output_adapter<wchar_t>,__crt_stdio_output::positional_parameter_base<wchar_t,__crt_stdio_output::stream_output_adapter<wchar_t> > >::state_case_flag()
FUNC 2b91c 3c 0 __crt_stdio_output::output_processor<wchar_t,__crt_stdio_output::stream_output_adapter<wchar_t>,__crt_stdio_output::standard_base<wchar_t,__crt_stdio_output::stream_output_adapter<wchar_t> > >::state_case_flag()
FUNC 2b968 3c 0 __crt_stdio_output::output_processor<wchar_t,__crt_stdio_output::string_output_adapter<wchar_t>,__crt_stdio_output::format_validation_base<wchar_t,__crt_stdio_output::string_output_adapter<wchar_t> > >::state_case_flag()
FUNC 2b9b4 3c 0 __crt_stdio_output::output_processor<wchar_t,__crt_stdio_output::string_output_adapter<wchar_t>,__crt_stdio_output::positional_parameter_base<wchar_t,__crt_stdio_output::string_output_adapter<wchar_t> > >::state_case_flag()
FUNC 2ba00 3c 0 __crt_stdio_output::output_processor<wchar_t,__crt_stdio_output::string_output_adapter<wchar_t>,__crt_stdio_output::standard_base<wchar_t,__crt_stdio_output::string_output_adapter<wchar_t> > >::state_case_flag()
FUNC 2ba4c 70 0 __crt_stdio_output::output_processor<char,__crt_stdio_output::stream_output_adapter<char>,__crt_stdio_output::format_validation_base<char,__crt_stdio_output::stream_output_adapter<char> > >::state_case_normal()
FUNC 2bad8 94 0 __crt_stdio_output::output_processor<char,__crt_stdio_output::stream_output_adapter<char>,__crt_stdio_output::positional_parameter_base<char,__crt_stdio_output::stream_output_adapter<char> > >::state_case_normal()
FUNC 2bb94 70 0 __crt_stdio_output::output_processor<char,__crt_stdio_output::stream_output_adapter<char>,__crt_stdio_output::standard_base<char,__crt_stdio_output::stream_output_adapter<char> > >::state_case_normal()
FUNC 2bc20 74 0 __crt_stdio_output::output_processor<char,__crt_stdio_output::string_output_adapter<char>,__crt_stdio_output::format_validation_base<char,__crt_stdio_output::string_output_adapter<char> > >::state_case_normal()
FUNC 2bcb4 96 0 __crt_stdio_output::output_processor<char,__crt_stdio_output::string_output_adapter<char>,__crt_stdio_output::positional_parameter_base<char,__crt_stdio_output::string_output_adapter<char> > >::state_case_normal()
FUNC 2bd70 74 0 __crt_stdio_output::output_processor<char,__crt_stdio_output::string_output_adapter<char>,__crt_stdio_output::standard_base<char,__crt_stdio_output::string_output_adapter<char> > >::state_case_normal()
FUNC 2be04 58 0 __crt_stdio_output::output_processor<wchar_t,__crt_stdio_output::stream_output_adapter<wchar_t>,__crt_stdio_output::format_validation_base<wchar_t,__crt_stdio_output::stream_output_adapter<wchar_t> > >::state_case_normal()
FUNC 2be74 7a 0 __crt_stdio_output::output_processor<wchar_t,__crt_stdio_output::stream_output_adapter<wchar_t>,__crt_stdio_output::positional_parameter_base<wchar_t,__crt_stdio_output::stream_output_adapter<wchar_t> > >::state_case_normal()
FUNC 2bf0c 58 0 __crt_stdio_output::output_processor<wchar_t,__crt_stdio_output::stream_output_adapter<wchar_t>,__crt_stdio_output::standard_base<wchar_t,__crt_stdio_output::stream_output_adapter<wchar_t> > >::state_case_normal()
FUNC 2bf7c 54 0 __crt_stdio_output::output_processor<wchar_t,__crt_stdio_output::string_output_adapter<wchar_t>,__crt_stdio_output::format_validation_base<wchar_t,__crt_stdio_output::string_output_adapter<wchar_t> > >::state_case_normal()
FUNC 2bfe8 73 0 __crt_stdio_output::output_processor<wchar_t,__crt_stdio_output::string_output_adapter<wchar_t>,__crt_stdio_output::positional_parameter_base<wchar_t,__crt_stdio_output::string_output_adapter<wchar_t> > >::state_case_normal()
FUNC 2c078 54 0 __crt_stdio_output::output_processor<wchar_t,__crt_stdio_output::string_output_adapter<wchar_t>,__crt_stdio_output::standard_base<wchar_t,__crt_stdio_output::string_output_adapter<wchar_t> > >::state_case_normal()
FUNC 2c0e4 5c 0 __crt_stdio_output::output_processor<char,__crt_stdio_output::stream_output_adapter<char>,__crt_stdio_output::format_validation_base<char,__crt_stdio_output::stream_output_adapter<char> > >::state_case_normal_common()
FUNC 2c158 5c 0 __crt_stdio_output::output_processor<char,__crt_stdio_output::stream_output_adapter<char>,__crt_stdio_output::positional_parameter_base<char,__crt_stdio_output::stream_output_adapter<char> > >::state_case_normal_common()
FUNC 2c1cc 5c 0 __crt_stdio_output::output_processor<char,__crt_stdio_output::stream_output_adapter<char>,__crt_stdio_output::standard_base<char,__crt_stdio_output::stream_output_adapter<char> > >::state_case_normal_common()
FUNC 2c240 60 0 __crt_stdio_output::output_processor<char,__crt_stdio_output::string_output_adapter<char>,__crt_stdio_output::format_validation_base<char,__crt_stdio_output::string_output_adapter<char> > >::state_case_normal_common()
FUNC 2c2b8 60 0 __crt_stdio_output::output_processor<char,__crt_stdio_output::string_output_adapter<char>,__crt_stdio_output::positional_parameter_base<char,__crt_stdio_output::string_output_adapter<char> > >::state_case_normal_common()
FUNC 2c330 60 0 __crt_stdio_output::output_processor<char,__crt_stdio_output::string_output_adapter<char>,__crt_stdio_output::standard_base<char,__crt_stdio_output::string_output_adapter<char> > >::state_case_normal_common()
FUNC 2c3a8 58 0 __crt_stdio_output::output_processor<wchar_t,__crt_stdio_output::stream_output_adapter<wchar_t>,__crt_stdio_output::format_validation_base<wchar_t,__crt_stdio_output::stream_output_adapter<wchar_t> > >::state_case_normal_common()
FUNC 2c418 58 0 __crt_stdio_output::output_processor<wchar_t,__crt_stdio_output::stream_output_adapter<wchar_t>,__crt_stdio_output::positional_parameter_base<wchar_t,__crt_stdio_output::stream_output_adapter<wchar_t> > >::state_case_normal_common()
FUNC 2c488 58 0 __crt_stdio_output::output_processor<wchar_t,__crt_stdio_output::stream_output_adapter<wchar_t>,__crt_stdio_output::standard_base<wchar_t,__crt_stdio_output::stream_output_adapter<wchar_t> > >::state_case_normal_common()
FUNC 2c4f8 54 0 __crt_stdio_output::output_processor<wchar_t,__crt_stdio_output::string_output_adapter<wchar_t>,__crt_stdio_output::format_validation_base<wchar_t,__crt_stdio_output::string_output_adapter<wchar_t> > >::state_case_normal_common()
FUNC 2c564 54 0 __crt_stdio_output::output_processor<wchar_t,__crt_stdio_output::string_output_adapter<wchar_t>,__crt_stdio_output::positional_parameter_base<wchar_t,__crt_stdio_output::string_output_adapter<wchar_t> > >::state_case_normal_common()
FUNC 2c5d0 54 0 __crt_stdio_output::output_processor<wchar_t,__crt_stdio_output::string_output_adapter<wchar_t>,__crt_stdio_output::standard_base<wchar_t,__crt_stdio_output::string_output_adapter<wchar_t> > >::state_case_normal_common()
FUNC 2c63c 9b 0 __crt_stdio_output::output_processor<char,__crt_stdio_output::stream_output_adapter<char>,__crt_stdio_output::format_validation_base<char,__crt_stdio_output::stream_output_adapter<char> > >::state_case_normal_tchar(char)
FUNC 2c700 9b 0 __crt_stdio_output::output_processor<char,__crt_stdio_output::stream_output_adapter<char>,__crt_stdio_output::positional_parameter_base<char,__crt_stdio_output::stream_output_adapter<char> > >::state_case_normal_tchar(char)
FUNC 2c7c4 9b 0 __crt_stdio_output::output_processor<char,__crt_stdio_output::stream_output_adapter<char>,__crt_stdio_output::standard_base<char,__crt_stdio_output::stream_output_adapter<char> > >::state_case_normal_tchar(char)
FUNC 2c888 97 0 __crt_stdio_output::output_processor<char,__crt_stdio_output::string_output_adapter<char>,__crt_stdio_output::format_validation_base<char,__crt_stdio_output::string_output_adapter<char> > >::state_case_normal_tchar(char)
FUNC 2c944 97 0 __crt_stdio_output::output_processor<char,__crt_stdio_output::string_output_adapter<char>,__crt_stdio_output::positional_parameter_base<char,__crt_stdio_output::string_output_adapter<char> > >::state_case_normal_tchar(char)
FUNC 2ca00 97 0 __crt_stdio_output::output_processor<char,__crt_stdio_output::string_output_adapter<char>,__crt_stdio_output::standard_base<char,__crt_stdio_output::string_output_adapter<char> > >::state_case_normal_tchar(char)
FUNC 2cabc 7 0 __crt_stdio_output::output_processor<wchar_t,__crt_stdio_output::stream_output_adapter<wchar_t>,__crt_stdio_output::format_validation_base<wchar_t,__crt_stdio_output::stream_output_adapter<wchar_t> > >::state_case_normal_tchar(wchar_t)
FUNC 2cac4 7 0 __crt_stdio_output::output_processor<wchar_t,__crt_stdio_output::stream_output_adapter<wchar_t>,__crt_stdio_output::positional_parameter_base<wchar_t,__crt_stdio_output::stream_output_adapter<wchar_t> > >::state_case_normal_tchar(wchar_t)
FUNC 2cacc 7 0 __crt_stdio_output::output_processor<wchar_t,__crt_stdio_output::stream_output_adapter<wchar_t>,__crt_stdio_output::standard_base<wchar_t,__crt_stdio_output::stream_output_adapter<wchar_t> > >::state_case_normal_tchar(wchar_t)
FUNC 2cad4 7 0 __crt_stdio_output::output_processor<wchar_t,__crt_stdio_output::string_output_adapter<wchar_t>,__crt_stdio_output::format_validation_base<wchar_t,__crt_stdio_output::string_output_adapter<wchar_t> > >::state_case_normal_tchar(wchar_t)
FUNC 2cadc 7 0 __crt_stdio_output::output_processor<wchar_t,__crt_stdio_output::string_output_adapter<wchar_t>,__crt_stdio_output::positional_parameter_base<wchar_t,__crt_stdio_output::string_output_adapter<wchar_t> > >::state_case_normal_tchar(wchar_t)
FUNC 2cae4 7 0 __crt_stdio_output::output_processor<wchar_t,__crt_stdio_output::string_output_adapter<wchar_t>,__crt_stdio_output::standard_base<wchar_t,__crt_stdio_output::string_output_adapter<wchar_t> > >::state_case_normal_tchar(wchar_t)
FUNC 2caec 16 0 __crt_stdio_output::output_processor<char,__crt_stdio_output::stream_output_adapter<char>,__crt_stdio_output::format_validation_base<char,__crt_stdio_output::stream_output_adapter<char> > >::state_case_percent()
FUNC 2cb08 16 0 __crt_stdio_output::output_processor<char,__crt_stdio_output::stream_output_adapter<char>,__crt_stdio_output::positional_parameter_base<char,__crt_stdio_output::stream_output_adapter<char> > >::state_case_percent()
FUNC 2cb24 16 0 __crt_stdio_output::output_processor<char,__crt_stdio_output::stream_output_adapter<char>,__crt_stdio_output::standard_base<char,__crt_stdio_output::stream_output_adapter<char> > >::state_case_percent()
FUNC 2cb40 16 0 __crt_stdio_output::output_processor<char,__crt_stdio_output::string_output_adapter<char>,__crt_stdio_output::format_validation_base<char,__crt_stdio_output::string_output_adapter<char> > >::state_case_percent()
FUNC 2cb5c 16 0 __crt_stdio_output::output_processor<char,__crt_stdio_output::string_output_adapter<char>,__crt_stdio_output::positional_parameter_base<char,__crt_stdio_output::string_output_adapter<char> > >::state_case_percent()
FUNC 2cb78 16 0 __crt_stdio_output::output_processor<char,__crt_stdio_output::string_output_adapter<char>,__crt_stdio_output::standard_base<char,__crt_stdio_output::string_output_adapter<char> > >::state_case_percent()
FUNC 2cb94 16 0 __crt_stdio_output::output_processor<wchar_t,__crt_stdio_output::stream_output_adapter<wchar_t>,__crt_stdio_output::format_validation_base<wchar_t,__crt_stdio_output::stream_output_adapter<wchar_t> > >::state_case_percent()
FUNC 2cbb0 16 0 __crt_stdio_output::output_processor<wchar_t,__crt_stdio_output::stream_output_adapter<wchar_t>,__crt_stdio_output::positional_parameter_base<wchar_t,__crt_stdio_output::stream_output_adapter<wchar_t> > >::state_case_percent()
FUNC 2cbcc 16 0 __crt_stdio_output::output_processor<wchar_t,__crt_stdio_output::stream_output_adapter<wchar_t>,__crt_stdio_output::standard_base<wchar_t,__crt_stdio_output::stream_output_adapter<wchar_t> > >::state_case_percent()
FUNC 2cbe8 16 0 __crt_stdio_output::output_processor<wchar_t,__crt_stdio_output::string_output_adapter<wchar_t>,__crt_stdio_output::format_validation_base<wchar_t,__crt_stdio_output::string_output_adapter<wchar_t> > >::state_case_percent()
FUNC 2cc04 16 0 __crt_stdio_output::output_processor<wchar_t,__crt_stdio_output::string_output_adapter<wchar_t>,__crt_stdio_output::positional_parameter_base<wchar_t,__crt_stdio_output::string_output_adapter<wchar_t> > >::state_case_percent()
FUNC 2cc20 16 0 __crt_stdio_output::output_processor<wchar_t,__crt_stdio_output::string_output_adapter<wchar_t>,__crt_stdio_output::standard_base<wchar_t,__crt_stdio_output::string_output_adapter<wchar_t> > >::state_case_percent()
FUNC 2cc3c 27 0 __crt_stdio_output::output_processor<char,__crt_stdio_output::stream_output_adapter<char>,__crt_stdio_output::format_validation_base<char,__crt_stdio_output::stream_output_adapter<char> > >::state_case_precision()
FUNC 2cc6c 4a 0 __crt_stdio_output::output_processor<char,__crt_stdio_output::stream_output_adapter<char>,__crt_stdio_output::positional_parameter_base<char,__crt_stdio_output::stream_output_adapter<char> > >::state_case_precision()
FUNC 2ccc8 27 0 __crt_stdio_output::output_processor<char,__crt_stdio_output::stream_output_adapter<char>,__crt_stdio_output::standard_base<char,__crt_stdio_output::stream_output_adapter<char> > >::state_case_precision()
FUNC 2ccf8 27 0 __crt_stdio_output::output_processor<char,__crt_stdio_output::string_output_adapter<char>,__crt_stdio_output::format_validation_base<char,__crt_stdio_output::string_output_adapter<char> > >::state_case_precision()
FUNC 2cd28 4a 0 __crt_stdio_output::output_processor<char,__crt_stdio_output::string_output_adapter<char>,__crt_stdio_output::positional_parameter_base<char,__crt_stdio_output::string_output_adapter<char> > >::state_case_precision()
FUNC 2cd84 27 0 __crt_stdio_output::output_processor<char,__crt_stdio_output::string_output_adapter<char>,__crt_stdio_output::standard_base<char,__crt_stdio_output::string_output_adapter<char> > >::state_case_precision()
FUNC 2cdb4 28 0 __crt_stdio_output::output_processor<wchar_t,__crt_stdio_output::stream_output_adapter<wchar_t>,__crt_stdio_output::format_validation_base<wchar_t,__crt_stdio_output::stream_output_adapter<wchar_t> > >::state_case_precision()
FUNC 2cde8 4b 0 __crt_stdio_output::output_processor<wchar_t,__crt_stdio_output::stream_output_adapter<wchar_t>,__crt_stdio_output::positional_parameter_base<wchar_t,__crt_stdio_output::stream_output_adapter<wchar_t> > >::state_case_precision()
FUNC 2ce48 28 0 __crt_stdio_output::output_processor<wchar_t,__crt_stdio_output::stream_output_adapter<wchar_t>,__crt_stdio_output::standard_base<wchar_t,__crt_stdio_output::stream_output_adapter<wchar_t> > >::state_case_precision()
FUNC 2ce7c 28 0 __crt_stdio_output::output_processor<wchar_t,__crt_stdio_output::string_output_adapter<wchar_t>,__crt_stdio_output::format_validation_base<wchar_t,__crt_stdio_output::string_output_adapter<wchar_t> > >::state_case_precision()
FUNC 2ceb0 4b 0 __crt_stdio_output::output_processor<wchar_t,__crt_stdio_output::string_output_adapter<wchar_t>,__crt_stdio_output::positional_parameter_base<wchar_t,__crt_stdio_output::string_output_adapter<wchar_t> > >::state_case_precision()
FUNC 2cf10 28 0 __crt_stdio_output::output_processor<wchar_t,__crt_stdio_output::string_output_adapter<wchar_t>,__crt_stdio_output::standard_base<wchar_t,__crt_stdio_output::string_output_adapter<wchar_t> > >::state_case_precision()
FUNC 2cf44 173 0 __crt_stdio_output::output_processor<char,__crt_stdio_output::stream_output_adapter<char>,__crt_stdio_output::format_validation_base<char,__crt_stdio_output::stream_output_adapter<char> > >::state_case_size()
FUNC 2d114 173 0 __crt_stdio_output::output_processor<char,__crt_stdio_output::stream_output_adapter<char>,__crt_stdio_output::positional_parameter_base<char,__crt_stdio_output::stream_output_adapter<char> > >::state_case_size()
FUNC 2d2e4 173 0 __crt_stdio_output::output_processor<char,__crt_stdio_output::stream_output_adapter<char>,__crt_stdio_output::standard_base<char,__crt_stdio_output::stream_output_adapter<char> > >::state_case_size()
FUNC 2d4b4 173 0 __crt_stdio_output::output_processor<char,__crt_stdio_output::string_output_adapter<char>,__crt_stdio_output::format_validation_base<char,__crt_stdio_output::string_output_adapter<char> > >::state_case_size()
FUNC 2d684 173 0 __crt_stdio_output::output_processor<char,__crt_stdio_output::string_output_adapter<char>,__crt_stdio_output::positional_parameter_base<char,__crt_stdio_output::string_output_adapter<char> > >::state_case_size()
FUNC 2d854 173 0 __crt_stdio_output::output_processor<char,__crt_stdio_output::string_output_adapter<char>,__crt_stdio_output::standard_base<char,__crt_stdio_output::string_output_adapter<char> > >::state_case_size()
FUNC 2da24 197 0 __crt_stdio_output::output_processor<wchar_t,__crt_stdio_output::stream_output_adapter<wchar_t>,__crt_stdio_output::format_validation_base<wchar_t,__crt_stdio_output::stream_output_adapter<wchar_t> > >::state_case_size()
FUNC 2dc20 197 0 __crt_stdio_output::output_processor<wchar_t,__crt_stdio_output::stream_output_adapter<wchar_t>,__crt_stdio_output::positional_parameter_base<wchar_t,__crt_stdio_output::stream_output_adapter<wchar_t> > >::state_case_size()
FUNC 2de1c 197 0 __crt_stdio_output::output_processor<wchar_t,__crt_stdio_output::stream_output_adapter<wchar_t>,__crt_stdio_output::standard_base<wchar_t,__crt_stdio_output::stream_output_adapter<wchar_t> > >::state_case_size()
FUNC 2e018 197 0 __crt_stdio_output::output_processor<wchar_t,__crt_stdio_output::string_output_adapter<wchar_t>,__crt_stdio_output::format_validation_base<wchar_t,__crt_stdio_output::string_output_adapter<wchar_t> > >::state_case_size()
FUNC 2e214 197 0 __crt_stdio_output::output_processor<wchar_t,__crt_stdio_output::string_output_adapter<wchar_t>,__crt_stdio_output::positional_parameter_base<wchar_t,__crt_stdio_output::string_output_adapter<wchar_t> > >::state_case_size()
FUNC 2e410 197 0 __crt_stdio_output::output_processor<wchar_t,__crt_stdio_output::string_output_adapter<wchar_t>,__crt_stdio_output::standard_base<wchar_t,__crt_stdio_output::string_output_adapter<wchar_t> > >::state_case_size()
FUNC 2e60c 28f 0 __crt_stdio_output::output_processor<char,__crt_stdio_output::stream_output_adapter<char>,__crt_stdio_output::format_validation_base<char,__crt_stdio_output::stream_output_adapter<char> > >::state_case_type()
FUNC 2e940 2a5 0 __crt_stdio_output::output_processor<char,__crt_stdio_output::stream_output_adapter<char>,__crt_stdio_output::positional_parameter_base<char,__crt_stdio_output::stream_output_adapter<char> > >::state_case_type()
FUNC 2ec90 28f 0 __crt_stdio_output::output_processor<char,__crt_stdio_output::stream_output_adapter<char>,__crt_stdio_output::standard_base<char,__crt_stdio_output::stream_output_adapter<char> > >::state_case_type()
FUNC 2efc4 26c 0 __crt_stdio_output::output_processor<char,__crt_stdio_output::string_output_adapter<char>,__crt_stdio_output::format_validation_base<char,__crt_stdio_output::string_output_adapter<char> > >::state_case_type()
FUNC 2f2cc 282 0 __crt_stdio_output::output_processor<char,__crt_stdio_output::string_output_adapter<char>,__crt_stdio_output::positional_parameter_base<char,__crt_stdio_output::string_output_adapter<char> > >::state_case_type()
FUNC 2f5f0 26c 0 __crt_stdio_output::output_processor<char,__crt_stdio_output::string_output_adapter<char>,__crt_stdio_output::standard_base<char,__crt_stdio_output::string_output_adapter<char> > >::state_case_type()
FUNC 2f8f8 2e9 0 __crt_stdio_output::output_processor<wchar_t,__crt_stdio_output::stream_output_adapter<wchar_t>,__crt_stdio_output::format_validation_base<wchar_t,__crt_stdio_output::stream_output_adapter<wchar_t> > >::state_case_type()
FUNC 2fc9c 2fb 0 __crt_stdio_output::output_processor<wchar_t,__crt_stdio_output::stream_output_adapter<wchar_t>,__crt_stdio_output::positional_parameter_base<wchar_t,__crt_stdio_output::stream_output_adapter<wchar_t> > >::state_case_type()
FUNC 30058 2e9 0 __crt_stdio_output::output_processor<wchar_t,__crt_stdio_output::stream_output_adapter<wchar_t>,__crt_stdio_output::standard_base<wchar_t,__crt_stdio_output::stream_output_adapter<wchar_t> > >::state_case_type()
FUNC 303fc 2d4 0 __crt_stdio_output::output_processor<wchar_t,__crt_stdio_output::string_output_adapter<wchar_t>,__crt_stdio_output::format_validation_base<wchar_t,__crt_stdio_output::string_output_adapter<wchar_t> > >::state_case_type()
FUNC 30788 2e6 0 __crt_stdio_output::output_processor<wchar_t,__crt_stdio_output::string_output_adapter<wchar_t>,__crt_stdio_output::positional_parameter_base<wchar_t,__crt_stdio_output::string_output_adapter<wchar_t> > >::state_case_type()
FUNC 30b28 2d4 0 __crt_stdio_output::output_processor<wchar_t,__crt_stdio_output::string_output_adapter<wchar_t>,__crt_stdio_output::standard_base<wchar_t,__crt_stdio_output::string_output_adapter<wchar_t> > >::state_case_type()
FUNC 30eb4 31 0 __crt_stdio_output::output_processor<char,__crt_stdio_output::stream_output_adapter<char>,__crt_stdio_output::format_validation_base<char,__crt_stdio_output::stream_output_adapter<char> > >::state_case_width()
FUNC 30ef4 50 0 __crt_stdio_output::output_processor<char,__crt_stdio_output::stream_output_adapter<char>,__crt_stdio_output::positional_parameter_base<char,__crt_stdio_output::stream_output_adapter<char> > >::state_case_width()
FUNC 30f58 31 0 __crt_stdio_output::output_processor<char,__crt_stdio_output::stream_output_adapter<char>,__crt_stdio_output::standard_base<char,__crt_stdio_output::stream_output_adapter<char> > >::state_case_width()
FUNC 30f98 31 0 __crt_stdio_output::output_processor<char,__crt_stdio_output::string_output_adapter<char>,__crt_stdio_output::format_validation_base<char,__crt_stdio_output::string_output_adapter<char> > >::state_case_width()
FUNC 30fd8 50 0 __crt_stdio_output::output_processor<char,__crt_stdio_output::string_output_adapter<char>,__crt_stdio_output::positional_parameter_base<char,__crt_stdio_output::string_output_adapter<char> > >::state_case_width()
FUNC 3103c 31 0 __crt_stdio_output::output_processor<char,__crt_stdio_output::string_output_adapter<char>,__crt_stdio_output::standard_base<char,__crt_stdio_output::string_output_adapter<char> > >::state_case_width()
FUNC 3107c 32 0 __crt_stdio_output::output_processor<wchar_t,__crt_stdio_output::stream_output_adapter<wchar_t>,__crt_stdio_output::format_validation_base<wchar_t,__crt_stdio_output::stream_output_adapter<wchar_t> > >::state_case_width()
FUNC 310bc 51 0 __crt_stdio_output::output_processor<wchar_t,__crt_stdio_output::stream_output_adapter<wchar_t>,__crt_stdio_output::positional_parameter_base<wchar_t,__crt_stdio_output::stream_output_adapter<wchar_t> > >::state_case_width()
FUNC 31124 32 0 __crt_stdio_output::output_processor<wchar_t,__crt_stdio_output::stream_output_adapter<wchar_t>,__crt_stdio_output::standard_base<wchar_t,__crt_stdio_output::stream_output_adapter<wchar_t> > >::state_case_width()
FUNC 31164 32 0 __crt_stdio_output::output_processor<wchar_t,__crt_stdio_output::string_output_adapter<wchar_t>,__crt_stdio_output::format_validation_base<wchar_t,__crt_stdio_output::string_output_adapter<wchar_t> > >::state_case_width()
FUNC 311a4 51 0 __crt_stdio_output::output_processor<wchar_t,__crt_stdio_output::string_output_adapter<wchar_t>,__crt_stdio_output::positional_parameter_base<wchar_t,__crt_stdio_output::string_output_adapter<wchar_t> > >::state_case_width()
FUNC 3120c 32 0 __crt_stdio_output::output_processor<wchar_t,__crt_stdio_output::string_output_adapter<wchar_t>,__crt_stdio_output::standard_base<wchar_t,__crt_stdio_output::string_output_adapter<wchar_t> > >::state_case_width()
FUNC 3124c 6 0 __crt_stdio_output::format_validation_base<char,__crt_stdio_output::stream_output_adapter<char> >::state_count()
FUNC 31254 6 0 __crt_stdio_output::format_validation_base<char,__crt_stdio_output::string_output_adapter<char> >::state_count()
FUNC 3125c 6 0 __crt_stdio_output::format_validation_base<wchar_t,__crt_stdio_output::stream_output_adapter<wchar_t> >::state_count()
FUNC 31264 6 0 __crt_stdio_output::format_validation_base<wchar_t,__crt_stdio_output::string_output_adapter<wchar_t> >::state_count()
FUNC 3126c 6 0 __crt_stdio_output::standard_base<char,__crt_stdio_output::stream_output_adapter<char> >::state_count()
FUNC 31274 6 0 __crt_stdio_output::standard_base<char,__crt_stdio_output::string_output_adapter<char> >::state_count()
FUNC 3127c 6 0 __crt_stdio_output::standard_base<wchar_t,__crt_stdio_output::stream_output_adapter<wchar_t> >::state_count()
FUNC 31284 6 0 __crt_stdio_output::standard_base<wchar_t,__crt_stdio_output::string_output_adapter<wchar_t> >::state_count()
FUNC 3128c 8 0 __crt_stdio_output::format_validation_base<char,__crt_stdio_output::stream_output_adapter<char> >::state_transition_table()
FUNC 31298 8 0 __crt_stdio_output::format_validation_base<char,__crt_stdio_output::string_output_adapter<char> >::state_transition_table()
FUNC 312a4 8 0 __crt_stdio_output::format_validation_base<wchar_t,__crt_stdio_output::stream_output_adapter<wchar_t> >::state_transition_table()
FUNC 312b0 8 0 __crt_stdio_output::format_validation_base<wchar_t,__crt_stdio_output::string_output_adapter<wchar_t> >::state_transition_table()
FUNC 312bc 8 0 __crt_stdio_output::standard_base<char,__crt_stdio_output::stream_output_adapter<char> >::state_transition_table()
FUNC 312c8 8 0 __crt_stdio_output::standard_base<char,__crt_stdio_output::string_output_adapter<char> >::state_transition_table()
FUNC 312d4 8 0 __crt_stdio_output::standard_base<wchar_t,__crt_stdio_output::stream_output_adapter<wchar_t> >::state_transition_table()
FUNC 312e0 8 0 __crt_stdio_output::standard_base<wchar_t,__crt_stdio_output::string_output_adapter<wchar_t> >::state_transition_table()
FUNC 312ec 5 0 __crt_stdio_output::common_data<char>::tchar_string(char)
FUNC 312f4 5 0 __crt_stdio_output::common_data<char>::tchar_string()
FUNC 312fc 5 0 __crt_stdio_output::common_data<wchar_t>::tchar_string()
FUNC 31304 5 0 __crt_stdio_output::common_data<wchar_t>::tchar_string(wchar_t)
FUNC 3130c 4b 0 __crt_stdio_output::to_integer_size(__crt_stdio_output::length_modifier)
FUNC 3136c d 0 __crt_stdio_output::output_processor<char,__crt_stdio_output::stream_output_adapter<char>,__crt_stdio_output::format_validation_base<char,__crt_stdio_output::stream_output_adapter<char> > >::type_case_X()
FUNC 3137c d 0 __crt_stdio_output::output_processor<char,__crt_stdio_output::stream_output_adapter<char>,__crt_stdio_output::positional_parameter_base<char,__crt_stdio_output::stream_output_adapter<char> > >::type_case_X()
FUNC 3138c d 0 __crt_stdio_output::output_processor<char,__crt_stdio_output::stream_output_adapter<char>,__crt_stdio_output::standard_base<char,__crt_stdio_output::stream_output_adapter<char> > >::type_case_X()
FUNC 3139c d 0 __crt_stdio_output::output_processor<char,__crt_stdio_output::string_output_adapter<char>,__crt_stdio_output::format_validation_base<char,__crt_stdio_output::string_output_adapter<char> > >::type_case_X()
FUNC 313ac d 0 __crt_stdio_output::output_processor<char,__crt_stdio_output::string_output_adapter<char>,__crt_stdio_output::positional_parameter_base<char,__crt_stdio_output::string_output_adapter<char> > >::type_case_X()
FUNC 313bc d 0 __crt_stdio_output::output_processor<char,__crt_stdio_output::string_output_adapter<char>,__crt_stdio_output::standard_base<char,__crt_stdio_output::string_output_adapter<char> > >::type_case_X()
FUNC 313cc d 0 __crt_stdio_output::output_processor<wchar_t,__crt_stdio_output::stream_output_adapter<wchar_t>,__crt_stdio_output::format_validation_base<wchar_t,__crt_stdio_output::stream_output_adapter<wchar_t> > >::type_case_X()
FUNC 313dc d 0 __crt_stdio_output::output_processor<wchar_t,__crt_stdio_output::stream_output_adapter<wchar_t>,__crt_stdio_output::positional_parameter_base<wchar_t,__crt_stdio_output::stream_output_adapter<wchar_t> > >::type_case_X()
FUNC 313ec d 0 __crt_stdio_output::output_processor<wchar_t,__crt_stdio_output::stream_output_adapter<wchar_t>,__crt_stdio_output::standard_base<wchar_t,__crt_stdio_output::stream_output_adapter<wchar_t> > >::type_case_X()
FUNC 313fc d 0 __crt_stdio_output::output_processor<wchar_t,__crt_stdio_output::string_output_adapter<wchar_t>,__crt_stdio_output::format_validation_base<wchar_t,__crt_stdio_output::string_output_adapter<wchar_t> > >::type_case_X()
FUNC 3140c d 0 __crt_stdio_output::output_processor<wchar_t,__crt_stdio_output::string_output_adapter<wchar_t>,__crt_stdio_output::positional_parameter_base<wchar_t,__crt_stdio_output::string_output_adapter<wchar_t> > >::type_case_X()
FUNC 3141c d 0 __crt_stdio_output::output_processor<wchar_t,__crt_stdio_output::string_output_adapter<wchar_t>,__crt_stdio_output::standard_base<wchar_t,__crt_stdio_output::string_output_adapter<wchar_t> > >::type_case_X()
FUNC 3142c 76 0 __crt_stdio_output::output_processor<char,__crt_stdio_output::stream_output_adapter<char>,__crt_stdio_output::format_validation_base<char,__crt_stdio_output::stream_output_adapter<char> > >::type_case_Z()
FUNC 314c0 15b 0 __crt_stdio_output::output_processor<char,__crt_stdio_output::stream_output_adapter<char>,__crt_stdio_output::positional_parameter_base<char,__crt_stdio_output::stream_output_adapter<char> > >::type_case_Z()
FUNC 31674 76 0 __crt_stdio_output::output_processor<char,__crt_stdio_output::stream_output_adapter<char>,__crt_stdio_output::standard_base<char,__crt_stdio_output::stream_output_adapter<char> > >::type_case_Z()
FUNC 31708 76 0 __crt_stdio_output::output_processor<char,__crt_stdio_output::string_output_adapter<char>,__crt_stdio_output::format_validation_base<char,__crt_stdio_output::string_output_adapter<char> > >::type_case_Z()
FUNC 3179c 15b 0 __crt_stdio_output::output_processor<char,__crt_stdio_output::string_output_adapter<char>,__crt_stdio_output::positional_parameter_base<char,__crt_stdio_output::string_output_adapter<char> > >::type_case_Z()
FUNC 31950 76 0 __crt_stdio_output::output_processor<char,__crt_stdio_output::string_output_adapter<char>,__crt_stdio_output::standard_base<char,__crt_stdio_output::string_output_adapter<char> > >::type_case_Z()
FUNC 319e4 7c 0 __crt_stdio_output::output_processor<wchar_t,__crt_stdio_output::stream_output_adapter<wchar_t>,__crt_stdio_output::format_validation_base<wchar_t,__crt_stdio_output::stream_output_adapter<wchar_t> > >::type_case_Z()
FUNC 31a80 141 0 __crt_stdio_output::output_processor<wchar_t,__crt_stdio_output::stream_output_adapter<wchar_t>,__crt_stdio_output::positional_parameter_base<wchar_t,__crt_stdio_output::stream_output_adapter<wchar_t> > >::type_case_Z()
FUNC 31c14 7c 0 __crt_stdio_output::output_processor<wchar_t,__crt_stdio_output::stream_output_adapter<wchar_t>,__crt_stdio_output::standard_base<wchar_t,__crt_stdio_output::stream_output_adapter<wchar_t> > >::type_case_Z()
FUNC 31cb0 7c 0 __crt_stdio_output::output_processor<wchar_t,__crt_stdio_output::string_output_adapter<wchar_t>,__crt_stdio_output::format_validation_base<wchar_t,__crt_stdio_output::string_output_adapter<wchar_t> > >::type_case_Z()
FUNC 31d4c 141 0 __crt_stdio_output::output_processor<wchar_t,__crt_stdio_output::string_output_adapter<wchar_t>,__crt_stdio_output::positional_parameter_base<wchar_t,__crt_stdio_output::string_output_adapter<wchar_t> > >::type_case_Z()
FUNC 31ee0 7c 0 __crt_stdio_output::output_processor<wchar_t,__crt_stdio_output::string_output_adapter<wchar_t>,__crt_stdio_output::standard_base<wchar_t,__crt_stdio_output::string_output_adapter<wchar_t> > >::type_case_Z()
FUNC 31f7c 1ba 0 __crt_stdio_output::output_processor<char,__crt_stdio_output::stream_output_adapter<char>,__crt_stdio_output::format_validation_base<char,__crt_stdio_output::stream_output_adapter<char> > >::type_case_a()
FUNC 321a4 1ec 0 __crt_stdio_output::output_processor<char,__crt_stdio_output::stream_output_adapter<char>,__crt_stdio_output::positional_parameter_base<char,__crt_stdio_output::stream_output_adapter<char> > >::type_case_a()
FUNC 3240c 1ba 0 __crt_stdio_output::output_processor<char,__crt_stdio_output::stream_output_adapter<char>,__crt_stdio_output::standard_base<char,__crt_stdio_output::stream_output_adapter<char> > >::type_case_a()
FUNC 32634 1ba 0 __crt_stdio_output::output_processor<char,__crt_stdio_output::string_output_adapter<char>,__crt_stdio_output::format_validation_base<char,__crt_stdio_output::string_output_adapter<char> > >::type_case_a()
FUNC 3285c 1ec 0 __crt_stdio_output::output_processor<char,__crt_stdio_output::string_output_adapter<char>,__crt_stdio_output::positional_parameter_base<char,__crt_stdio_output::string_output_adapter<char> > >::type_case_a()
FUNC 32ac4 1ba 0 __crt_stdio_output::output_processor<char,__crt_stdio_output::string_output_adapter<char>,__crt_stdio_output::standard_base<char,__crt_stdio_output::string_output_adapter<char> > >::type_case_a()
FUNC 32cec 1de 0 __crt_stdio_output::output_processor<wchar_t,__crt_stdio_output::stream_output_adapter<wchar_t>,__crt_stdio_output::format_validation_base<wchar_t,__crt_stdio_output::stream_output_adapter<wchar_t> > >::type_case_a()
FUNC 32f44 210 0 __crt_stdio_output::output_processor<wchar_t,__crt_stdio_output::stream_output_adapter<wchar_t>,__crt_stdio_output::positional_parameter_base<wchar_t,__crt_stdio_output::stream_output_adapter<wchar_t> > >::type_case_a()
FUNC 331d8 1de 0 __crt_stdio_output::output_processor<wchar_t,__crt_stdio_output::stream_output_adapter<wchar_t>,__crt_stdio_output::standard_base<wchar_t,__crt_stdio_output::stream_output_adapter<wchar_t> > >::type_case_a()
FUNC 33430 1de 0 __crt_stdio_output::output_processor<wchar_t,__crt_stdio_output::string_output_adapter<wchar_t>,__crt_stdio_output::format_validation_base<wchar_t,__crt_stdio_output::string_output_adapter<wchar_t> > >::type_case_a()
FUNC 33688 210 0 __crt_stdio_output::output_processor<wchar_t,__crt_stdio_output::string_output_adapter<wchar_t>,__crt_stdio_output::positional_parameter_base<wchar_t,__crt_stdio_output::string_output_adapter<wchar_t> > >::type_case_a()
FUNC 3391c 1de 0 __crt_stdio_output::output_processor<wchar_t,__crt_stdio_output::string_output_adapter<wchar_t>,__crt_stdio_output::standard_base<wchar_t,__crt_stdio_output::string_output_adapter<wchar_t> > >::type_case_a()
FUNC 33b74 7 0 __crt_stdio_output::output_processor<char,__crt_stdio_output::stream_output_adapter<char>,__crt_stdio_output::format_validation_base<char,__crt_stdio_output::stream_output_adapter<char> > >::type_case_c()
FUNC 33b7c 7 0 __crt_stdio_output::output_processor<char,__crt_stdio_output::stream_output_adapter<char>,__crt_stdio_output::positional_parameter_base<char,__crt_stdio_output::stream_output_adapter<char> > >::type_case_c()
FUNC 33b84 7 0 __crt_stdio_output::output_processor<char,__crt_stdio_output::stream_output_adapter<char>,__crt_stdio_output::standard_base<char,__crt_stdio_output::stream_output_adapter<char> > >::type_case_c()
FUNC 33b8c 7 0 __crt_stdio_output::output_processor<char,__crt_stdio_output::string_output_adapter<char>,__crt_stdio_output::format_validation_base<char,__crt_stdio_output::string_output_adapter<char> > >::type_case_c()
FUNC 33b94 7 0 __crt_stdio_output::output_processor<char,__crt_stdio_output::string_output_adapter<char>,__crt_stdio_output::positional_parameter_base<char,__crt_stdio_output::string_output_adapter<char> > >::type_case_c()
FUNC 33b9c 7 0 __crt_stdio_output::output_processor<char,__crt_stdio_output::string_output_adapter<char>,__crt_stdio_output::standard_base<char,__crt_stdio_output::string_output_adapter<char> > >::type_case_c()
FUNC 33ba4 7 0 __crt_stdio_output::output_processor<wchar_t,__crt_stdio_output::stream_output_adapter<wchar_t>,__crt_stdio_output::format_validation_base<wchar_t,__crt_stdio_output::stream_output_adapter<wchar_t> > >::type_case_c()
FUNC 33bac 7 0 __crt_stdio_output::output_processor<wchar_t,__crt_stdio_output::stream_output_adapter<wchar_t>,__crt_stdio_output::positional_parameter_base<wchar_t,__crt_stdio_output::stream_output_adapter<wchar_t> > >::type_case_c()
FUNC 33bb4 7 0 __crt_stdio_output::output_processor<wchar_t,__crt_stdio_output::stream_output_adapter<wchar_t>,__crt_stdio_output::standard_base<wchar_t,__crt_stdio_output::stream_output_adapter<wchar_t> > >::type_case_c()
FUNC 33bbc 7 0 __crt_stdio_output::output_processor<wchar_t,__crt_stdio_output::string_output_adapter<wchar_t>,__crt_stdio_output::format_validation_base<wchar_t,__crt_stdio_output::string_output_adapter<wchar_t> > >::type_case_c()
FUNC 33bc4 7 0 __crt_stdio_output::output_processor<wchar_t,__crt_stdio_output::string_output_adapter<wchar_t>,__crt_stdio_output::positional_parameter_base<wchar_t,__crt_stdio_output::string_output_adapter<wchar_t> > >::type_case_c()
FUNC 33bcc 7 0 __crt_stdio_output::output_processor<wchar_t,__crt_stdio_output::string_output_adapter<wchar_t>,__crt_stdio_output::standard_base<wchar_t,__crt_stdio_output::string_output_adapter<wchar_t> > >::type_case_c()
FUNC 33bd4 c4 0 __crt_stdio_output::output_processor<char,__crt_stdio_output::stream_output_adapter<char>,__crt_stdio_output::format_validation_base<char,__crt_stdio_output::stream_output_adapter<char> > >::type_case_c_tchar(char)
FUNC 33ccc 10f 0 __crt_stdio_output::output_processor<char,__crt_stdio_output::stream_output_adapter<char>,__crt_stdio_output::positional_parameter_base<char,__crt_stdio_output::stream_output_adapter<char> > >::type_case_c_tchar(char)
FUNC 33e20 c4 0 __crt_stdio_output::output_processor<char,__crt_stdio_output::stream_output_adapter<char>,__crt_stdio_output::standard_base<char,__crt_stdio_output::stream_output_adapter<char> > >::type_case_c_tchar(char)
FUNC 33f18 c4 0 __crt_stdio_output::output_processor<char,__crt_stdio_output::string_output_adapter<char>,__crt_stdio_output::format_validation_base<char,__crt_stdio_output::string_output_adapter<char> > >::type_case_c_tchar(char)
FUNC 34010 10f 0 __crt_stdio_output::output_processor<char,__crt_stdio_output::string_output_adapter<char>,__crt_stdio_output::positional_parameter_base<char,__crt_stdio_output::string_output_adapter<char> > >::type_case_c_tchar(char)
FUNC 34164 c4 0 __crt_stdio_output::output_processor<char,__crt_stdio_output::string_output_adapter<char>,__crt_stdio_output::standard_base<char,__crt_stdio_output::string_output_adapter<char> > >::type_case_c_tchar(char)
FUNC 3425c a6 0 __crt_stdio_output::output_processor<wchar_t,__crt_stdio_output::stream_output_adapter<wchar_t>,__crt_stdio_output::format_validation_base<wchar_t,__crt_stdio_output::stream_output_adapter<wchar_t> > >::type_case_c_tchar(wchar_t)
FUNC 3432c cc 0 __crt_stdio_output::output_processor<wchar_t,__crt_stdio_output::stream_output_adapter<wchar_t>,__crt_stdio_output::positional_parameter_base<wchar_t,__crt_stdio_output::stream_output_adapter<wchar_t> > >::type_case_c_tchar(wchar_t)
FUNC 3442c a6 0 __crt_stdio_output::output_processor<wchar_t,__crt_stdio_output::stream_output_adapter<wchar_t>,__crt_stdio_output::standard_base<wchar_t,__crt_stdio_output::stream_output_adapter<wchar_t> > >::type_case_c_tchar(wchar_t)
FUNC 344fc a6 0 __crt_stdio_output::output_processor<wchar_t,__crt_stdio_output::string_output_adapter<wchar_t>,__crt_stdio_output::format_validation_base<wchar_t,__crt_stdio_output::string_output_adapter<wchar_t> > >::type_case_c_tchar(wchar_t)
FUNC 345cc cc 0 __crt_stdio_output::output_processor<wchar_t,__crt_stdio_output::string_output_adapter<wchar_t>,__crt_stdio_output::positional_parameter_base<wchar_t,__crt_stdio_output::string_output_adapter<wchar_t> > >::type_case_c_tchar(wchar_t)
FUNC 346cc a6 0 __crt_stdio_output::output_processor<wchar_t,__crt_stdio_output::string_output_adapter<wchar_t>,__crt_stdio_output::standard_base<wchar_t,__crt_stdio_output::string_output_adapter<wchar_t> > >::type_case_c_tchar(wchar_t)
FUNC 3479c 10 0 __crt_stdio_output::output_processor<char,__crt_stdio_output::stream_output_adapter<char>,__crt_stdio_output::format_validation_base<char,__crt_stdio_output::stream_output_adapter<char> > >::type_case_d()
FUNC 347b0 10 0 __crt_stdio_output::output_processor<char,__crt_stdio_output::stream_output_adapter<char>,__crt_stdio_output::positional_parameter_base<char,__crt_stdio_output::stream_output_adapter<char> > >::type_case_d()
FUNC 347c4 10 0 __crt_stdio_output::output_processor<char,__crt_stdio_output::stream_output_adapter<char>,__crt_stdio_output::standard_base<char,__crt_stdio_output::stream_output_adapter<char> > >::type_case_d()
FUNC 347d8 10 0 __crt_stdio_output::output_processor<char,__crt_stdio_output::string_output_adapter<char>,__crt_stdio_output::format_validation_base<char,__crt_stdio_output::string_output_adapter<char> > >::type_case_d()
FUNC 347ec 10 0 __crt_stdio_output::output_processor<char,__crt_stdio_output::string_output_adapter<char>,__crt_stdio_output::positional_parameter_base<char,__crt_stdio_output::string_output_adapter<char> > >::type_case_d()
FUNC 34800 10 0 __crt_stdio_output::output_processor<char,__crt_stdio_output::string_output_adapter<char>,__crt_stdio_output::standard_base<char,__crt_stdio_output::string_output_adapter<char> > >::type_case_d()
FUNC 34814 10 0 __crt_stdio_output::output_processor<wchar_t,__crt_stdio_output::stream_output_adapter<wchar_t>,__crt_stdio_output::format_validation_base<wchar_t,__crt_stdio_output::stream_output_adapter<wchar_t> > >::type_case_d()
FUNC 34828 10 0 __crt_stdio_output::output_processor<wchar_t,__crt_stdio_output::stream_output_adapter<wchar_t>,__crt_stdio_output::positional_parameter_base<wchar_t,__crt_stdio_output::stream_output_adapter<wchar_t> > >::type_case_d()
FUNC 3483c 10 0 __crt_stdio_output::output_processor<wchar_t,__crt_stdio_output::stream_output_adapter<wchar_t>,__crt_stdio_output::standard_base<wchar_t,__crt_stdio_output::stream_output_adapter<wchar_t> > >::type_case_d()
FUNC 34850 10 0 __crt_stdio_output::output_processor<wchar_t,__crt_stdio_output::string_output_adapter<wchar_t>,__crt_stdio_output::format_validation_base<wchar_t,__crt_stdio_output::string_output_adapter<wchar_t> > >::type_case_d()
FUNC 34864 10 0 __crt_stdio_output::output_processor<wchar_t,__crt_stdio_output::string_output_adapter<wchar_t>,__crt_stdio_output::positional_parameter_base<wchar_t,__crt_stdio_output::string_output_adapter<wchar_t> > >::type_case_d()
FUNC 34878 10 0 __crt_stdio_output::output_processor<wchar_t,__crt_stdio_output::string_output_adapter<wchar_t>,__crt_stdio_output::standard_base<wchar_t,__crt_stdio_output::string_output_adapter<wchar_t> > >::type_case_d()
FUNC 3488c 1c5 0 __crt_stdio_output::output_processor<char,__crt_stdio_output::stream_output_adapter<char>,__crt_stdio_output::format_validation_base<char,__crt_stdio_output::stream_output_adapter<char> > >::type_case_integer(unsigned int,bool)
FUNC 34ac4 202 0 __crt_stdio_output::output_processor<char,__crt_stdio_output::stream_output_adapter<char>,__crt_stdio_output::positional_parameter_base<char,__crt_stdio_output::stream_output_adapter<char> > >::type_case_integer(unsigned int,bool)
FUNC 34d48 1c5 0 __crt_stdio_output::output_processor<char,__crt_stdio_output::stream_output_adapter<char>,__crt_stdio_output::standard_base<char,__crt_stdio_output::stream_output_adapter<char> > >::type_case_integer(unsigned int,bool)
FUNC 34f80 1c5 0 __crt_stdio_output::output_processor<char,__crt_stdio_output::string_output_adapter<char>,__crt_stdio_output::format_validation_base<char,__crt_stdio_output::string_output_adapter<char> > >::type_case_integer(unsigned int,bool)
FUNC 351b8 202 0 __crt_stdio_output::output_processor<char,__crt_stdio_output::string_output_adapter<char>,__crt_stdio_output::positional_parameter_base<char,__crt_stdio_output::string_output_adapter<char> > >::type_case_integer(unsigned int,bool)
FUNC 3543c 1c5 0 __crt_stdio_output::output_processor<char,__crt_stdio_output::string_output_adapter<char>,__crt_stdio_output::standard_base<char,__crt_stdio_output::string_output_adapter<char> > >::type_case_integer(unsigned int,bool)
FUNC 35674 1cb 0 __crt_stdio_output::output_processor<wchar_t,__crt_stdio_output::stream_output_adapter<wchar_t>,__crt_stdio_output::format_validation_base<wchar_t,__crt_stdio_output::stream_output_adapter<wchar_t> > >::type_case_integer(unsigned int,bool)
FUNC 358b4 208 0 __crt_stdio_output::output_processor<wchar_t,__crt_stdio_output::stream_output_adapter<wchar_t>,__crt_stdio_output::positional_parameter_base<wchar_t,__crt_stdio_output::stream_output_adapter<wchar_t> > >::type_case_integer(unsigned int,bool)
FUNC 35b40 1cb 0 __crt_stdio_output::output_processor<wchar_t,__crt_stdio_output::stream_output_adapter<wchar_t>,__crt_stdio_output::standard_base<wchar_t,__crt_stdio_output::stream_output_adapter<wchar_t> > >::type_case_integer(unsigned int,bool)
FUNC 35d80 1cb 0 __crt_stdio_output::output_processor<wchar_t,__crt_stdio_output::string_output_adapter<wchar_t>,__crt_stdio_output::format_validation_base<wchar_t,__crt_stdio_output::string_output_adapter<wchar_t> > >::type_case_integer(unsigned int,bool)
FUNC 35fc0 208 0 __crt_stdio_output::output_processor<wchar_t,__crt_stdio_output::string_output_adapter<wchar_t>,__crt_stdio_output::positional_parameter_base<wchar_t,__crt_stdio_output::string_output_adapter<wchar_t> > >::type_case_integer(unsigned int,bool)
FUNC 3624c 1cb 0 __crt_stdio_output::output_processor<wchar_t,__crt_stdio_output::string_output_adapter<wchar_t>,__crt_stdio_output::standard_base<wchar_t,__crt_stdio_output::string_output_adapter<wchar_t> > >::type_case_integer(unsigned int,bool)
FUNC 3648c db 0 __crt_stdio_output::output_processor<char,__crt_stdio_output::stream_output_adapter<char>,__crt_stdio_output::format_validation_base<char,__crt_stdio_output::stream_output_adapter<char> > >::type_case_n()
FUNC 365a0 104 0 __crt_stdio_output::output_processor<char,__crt_stdio_output::stream_output_adapter<char>,__crt_stdio_output::positional_parameter_base<char,__crt_stdio_output::stream_output_adapter<char> > >::type_case_n()
FUNC 366e8 db 0 __crt_stdio_output::output_processor<char,__crt_stdio_output::stream_output_adapter<char>,__crt_stdio_output::standard_base<char,__crt_stdio_output::stream_output_adapter<char> > >::type_case_n()
FUNC 367fc db 0 __crt_stdio_output::output_processor<char,__crt_stdio_output::string_output_adapter<char>,__crt_stdio_output::format_validation_base<char,__crt_stdio_output::string_output_adapter<char> > >::type_case_n()
FUNC 36910 104 0 __crt_stdio_output::output_processor<char,__crt_stdio_output::string_output_adapter<char>,__crt_stdio_output::positional_parameter_base<char,__crt_stdio_output::string_output_adapter<char> > >::type_case_n()
FUNC 36a58 db 0 __crt_stdio_output::output_processor<char,__crt_stdio_output::string_output_adapter<char>,__crt_stdio_output::standard_base<char,__crt_stdio_output::string_output_adapter<char> > >::type_case_n()
FUNC 36b6c db 0 __crt_stdio_output::output_processor<wchar_t,__crt_stdio_output::stream_output_adapter<wchar_t>,__crt_stdio_output::format_validation_base<wchar_t,__crt_stdio_output::stream_output_adapter<wchar_t> > >::type_case_n()
FUNC 36c80 104 0 __crt_stdio_output::output_processor<wchar_t,__crt_stdio_output::stream_output_adapter<wchar_t>,__crt_stdio_output::positional_parameter_base<wchar_t,__crt_stdio_output::stream_output_adapter<wchar_t> > >::type_case_n()
FUNC 36dc8 db 0 __crt_stdio_output::output_processor<wchar_t,__crt_stdio_output::stream_output_adapter<wchar_t>,__crt_stdio_output::standard_base<wchar_t,__crt_stdio_output::stream_output_adapter<wchar_t> > >::type_case_n()
FUNC 36edc db 0 __crt_stdio_output::output_processor<wchar_t,__crt_stdio_output::string_output_adapter<wchar_t>,__crt_stdio_output::format_validation_base<wchar_t,__crt_stdio_output::string_output_adapter<wchar_t> > >::type_case_n()
FUNC 36ff0 104 0 __crt_stdio_output::output_processor<wchar_t,__crt_stdio_output::string_output_adapter<wchar_t>,__crt_stdio_output::positional_parameter_base<wchar_t,__crt_stdio_output::string_output_adapter<wchar_t> > >::type_case_n()
FUNC 37138 db 0 __crt_stdio_output::output_processor<wchar_t,__crt_stdio_output::string_output_adapter<wchar_t>,__crt_stdio_output::standard_base<wchar_t,__crt_stdio_output::string_output_adapter<wchar_t> > >::type_case_n()
FUNC 3724c 1f 0 __crt_stdio_output::output_processor<char,__crt_stdio_output::stream_output_adapter<char>,__crt_stdio_output::format_validation_base<char,__crt_stdio_output::stream_output_adapter<char> > >::type_case_o()
FUNC 37274 1f 0 __crt_stdio_output::output_processor<char,__crt_stdio_output::stream_output_adapter<char>,__crt_stdio_output::positional_parameter_base<char,__crt_stdio_output::stream_output_adapter<char> > >::type_case_o()
FUNC 3729c 1f 0 __crt_stdio_output::output_processor<char,__crt_stdio_output::stream_output_adapter<char>,__crt_stdio_output::standard_base<char,__crt_stdio_output::stream_output_adapter<char> > >::type_case_o()
FUNC 372c4 1f 0 __crt_stdio_output::output_processor<char,__crt_stdio_output::string_output_adapter<char>,__crt_stdio_output::format_validation_base<char,__crt_stdio_output::string_output_adapter<char> > >::type_case_o()
FUNC 372ec 1f 0 __crt_stdio_output::output_processor<char,__crt_stdio_output::string_output_adapter<char>,__crt_stdio_output::positional_parameter_base<char,__crt_stdio_output::string_output_adapter<char> > >::type_case_o()
FUNC 37314 1f 0 __crt_stdio_output::output_processor<char,__crt_stdio_output::string_output_adapter<char>,__crt_stdio_output::standard_base<char,__crt_stdio_output::string_output_adapter<char> > >::type_case_o()
FUNC 3733c 1f 0 __crt_stdio_output::output_processor<wchar_t,__crt_stdio_output::stream_output_adapter<wchar_t>,__crt_stdio_output::format_validation_base<wchar_t,__crt_stdio_output::stream_output_adapter<wchar_t> > >::type_case_o()
FUNC 37364 1f 0 __crt_stdio_output::output_processor<wchar_t,__crt_stdio_output::stream_output_adapter<wchar_t>,__crt_stdio_output::positional_parameter_base<wchar_t,__crt_stdio_output::stream_output_adapter<wchar_t> > >::type_case_o()
FUNC 3738c 1f 0 __crt_stdio_output::output_processor<wchar_t,__crt_stdio_output::stream_output_adapter<wchar_t>,__crt_stdio_output::standard_base<wchar_t,__crt_stdio_output::stream_output_adapter<wchar_t> > >::type_case_o()
FUNC 373b4 1f 0 __crt_stdio_output::output_processor<wchar_t,__crt_stdio_output::string_output_adapter<wchar_t>,__crt_stdio_output::format_validation_base<wchar_t,__crt_stdio_output::string_output_adapter<wchar_t> > >::type_case_o()
FUNC 373dc 1f 0 __crt_stdio_output::output_processor<wchar_t,__crt_stdio_output::string_output_adapter<wchar_t>,__crt_stdio_output::positional_parameter_base<wchar_t,__crt_stdio_output::string_output_adapter<wchar_t> > >::type_case_o()
FUNC 37404 1f 0 __crt_stdio_output::output_processor<wchar_t,__crt_stdio_output::string_output_adapter<wchar_t>,__crt_stdio_output::standard_base<wchar_t,__crt_stdio_output::string_output_adapter<wchar_t> > >::type_case_o()
FUNC 3742c 17 0 __crt_stdio_output::output_processor<char,__crt_stdio_output::stream_output_adapter<char>,__crt_stdio_output::format_validation_base<char,__crt_stdio_output::stream_output_adapter<char> > >::type_case_p()
FUNC 37448 17 0 __crt_stdio_output::output_processor<char,__crt_stdio_output::stream_output_adapter<char>,__crt_stdio_output::positional_parameter_base<char,__crt_stdio_output::stream_output_adapter<char> > >::type_case_p()
FUNC 37464 17 0 __crt_stdio_output::output_processor<char,__crt_stdio_output::stream_output_adapter<char>,__crt_stdio_output::standard_base<char,__crt_stdio_output::stream_output_adapter<char> > >::type_case_p()
FUNC 37480 17 0 __crt_stdio_output::output_processor<char,__crt_stdio_output::string_output_adapter<char>,__crt_stdio_output::format_validation_base<char,__crt_stdio_output::string_output_adapter<char> > >::type_case_p()
FUNC 3749c 17 0 __crt_stdio_output::output_processor<char,__crt_stdio_output::string_output_adapter<char>,__crt_stdio_output::positional_parameter_base<char,__crt_stdio_output::string_output_adapter<char> > >::type_case_p()
FUNC 374b8 17 0 __crt_stdio_output::output_processor<char,__crt_stdio_output::string_output_adapter<char>,__crt_stdio_output::standard_base<char,__crt_stdio_output::string_output_adapter<char> > >::type_case_p()
FUNC 374d4 17 0 __crt_stdio_output::output_processor<wchar_t,__crt_stdio_output::stream_output_adapter<wchar_t>,__crt_stdio_output::format_validation_base<wchar_t,__crt_stdio_output::stream_output_adapter<wchar_t> > >::type_case_p()
FUNC 374f0 17 0 __crt_stdio_output::output_processor<wchar_t,__crt_stdio_output::stream_output_adapter<wchar_t>,__crt_stdio_output::positional_parameter_base<wchar_t,__crt_stdio_output::stream_output_adapter<wchar_t> > >::type_case_p()
FUNC 3750c 17 0 __crt_stdio_output::output_processor<wchar_t,__crt_stdio_output::stream_output_adapter<wchar_t>,__crt_stdio_output::standard_base<wchar_t,__crt_stdio_output::stream_output_adapter<wchar_t> > >::type_case_p()
FUNC 37528 17 0 __crt_stdio_output::output_processor<wchar_t,__crt_stdio_output::string_output_adapter<wchar_t>,__crt_stdio_output::format_validation_base<wchar_t,__crt_stdio_output::string_output_adapter<wchar_t> > >::type_case_p()
FUNC 37544 17 0 __crt_stdio_output::output_processor<wchar_t,__crt_stdio_output::string_output_adapter<wchar_t>,__crt_stdio_output::positional_parameter_base<wchar_t,__crt_stdio_output::string_output_adapter<wchar_t> > >::type_case_p()
FUNC 37560 17 0 __crt_stdio_output::output_processor<wchar_t,__crt_stdio_output::string_output_adapter<wchar_t>,__crt_stdio_output::standard_base<wchar_t,__crt_stdio_output::string_output_adapter<wchar_t> > >::type_case_p()
FUNC 3757c 96 0 __crt_stdio_output::output_processor<char,__crt_stdio_output::stream_output_adapter<char>,__crt_stdio_output::format_validation_base<char,__crt_stdio_output::stream_output_adapter<char> > >::type_case_s()
FUNC 37638 b5 0 __crt_stdio_output::output_processor<char,__crt_stdio_output::stream_output_adapter<char>,__crt_stdio_output::positional_parameter_base<char,__crt_stdio_output::stream_output_adapter<char> > >::type_case_s()
FUNC 3771c 96 0 __crt_stdio_output::output_processor<char,__crt_stdio_output::stream_output_adapter<char>,__crt_stdio_output::standard_base<char,__crt_stdio_output::stream_output_adapter<char> > >::type_case_s()
FUNC 377d8 96 0 __crt_stdio_output::output_processor<char,__crt_stdio_output::string_output_adapter<char>,__crt_stdio_output::format_validation_base<char,__crt_stdio_output::string_output_adapter<char> > >::type_case_s()
FUNC 37894 b5 0 __crt_stdio_output::output_processor<char,__crt_stdio_output::string_output_adapter<char>,__crt_stdio_output::positional_parameter_base<char,__crt_stdio_output::string_output_adapter<char> > >::type_case_s()
FUNC 37978 96 0 __crt_stdio_output::output_processor<char,__crt_stdio_output::string_output_adapter<char>,__crt_stdio_output::standard_base<char,__crt_stdio_output::string_output_adapter<char> > >::type_case_s()
FUNC 37a34 c3 0 __crt_stdio_output::output_processor<wchar_t,__crt_stdio_output::stream_output_adapter<wchar_t>,__crt_stdio_output::format_validation_base<wchar_t,__crt_stdio_output::stream_output_adapter<wchar_t> > >::type_case_s()
FUNC 37b28 f2 0 __crt_stdio_output::output_processor<wchar_t,__crt_stdio_output::stream_output_adapter<wchar_t>,__crt_stdio_output::positional_parameter_base<wchar_t,__crt_stdio_output::stream_output_adapter<wchar_t> > >::type_case_s()
FUNC 37c58 c3 0 __crt_stdio_output::output_processor<wchar_t,__crt_stdio_output::stream_output_adapter<wchar_t>,__crt_stdio_output::standard_base<wchar_t,__crt_stdio_output::stream_output_adapter<wchar_t> > >::type_case_s()
FUNC 37d4c c3 0 __crt_stdio_output::output_processor<wchar_t,__crt_stdio_output::string_output_adapter<wchar_t>,__crt_stdio_output::format_validation_base<wchar_t,__crt_stdio_output::string_output_adapter<wchar_t> > >::type_case_s()
FUNC 37e40 f2 0 __crt_stdio_output::output_processor<wchar_t,__crt_stdio_output::string_output_adapter<wchar_t>,__crt_stdio_output::positional_parameter_base<wchar_t,__crt_stdio_output::string_output_adapter<wchar_t> > >::type_case_s()
FUNC 37f70 c3 0 __crt_stdio_output::output_processor<wchar_t,__crt_stdio_output::string_output_adapter<wchar_t>,__crt_stdio_output::standard_base<wchar_t,__crt_stdio_output::string_output_adapter<wchar_t> > >::type_case_s()
FUNC 38064 c 0 __crt_stdio_output::output_processor<char,__crt_stdio_output::stream_output_adapter<char>,__crt_stdio_output::format_validation_base<char,__crt_stdio_output::stream_output_adapter<char> > >::type_case_s_compute_narrow_string_length(int,char)
FUNC 38074 c 0 __crt_stdio_output::output_processor<char,__crt_stdio_output::stream_output_adapter<char>,__crt_stdio_output::positional_parameter_base<char,__crt_stdio_output::stream_output_adapter<char> > >::type_case_s_compute_narrow_string_length(int,char)
FUNC 38084 c 0 __crt_stdio_output::output_processor<char,__crt_stdio_output::stream_output_adapter<char>,__crt_stdio_output::standard_base<char,__crt_stdio_output::stream_output_adapter<char> > >::type_case_s_compute_narrow_string_length(int,char)
FUNC 38094 c 0 __crt_stdio_output::output_processor<char,__crt_stdio_output::string_output_adapter<char>,__crt_stdio_output::format_validation_base<char,__crt_stdio_output::string_output_adapter<char> > >::type_case_s_compute_narrow_string_length(int,char)
FUNC 380a4 c 0 __crt_stdio_output::output_processor<char,__crt_stdio_output::string_output_adapter<char>,__crt_stdio_output::positional_parameter_base<char,__crt_stdio_output::string_output_adapter<char> > >::type_case_s_compute_narrow_string_length(int,char)
FUNC 380b4 c 0 __crt_stdio_output::output_processor<char,__crt_stdio_output::string_output_adapter<char>,__crt_stdio_output::standard_base<char,__crt_stdio_output::string_output_adapter<char> > >::type_case_s_compute_narrow_string_length(int,char)
FUNC 380c4 4c 0 __crt_stdio_output::output_processor<wchar_t,__crt_stdio_output::stream_output_adapter<wchar_t>,__crt_stdio_output::format_validation_base<wchar_t,__crt_stdio_output::stream_output_adapter<wchar_t> > >::type_case_s_compute_narrow_string_length(int,wchar_t)
FUNC 38124 4c 0 __crt_stdio_output::output_processor<wchar_t,__crt_stdio_output::stream_output_adapter<wchar_t>,__crt_stdio_output::positional_parameter_base<wchar_t,__crt_stdio_output::stream_output_adapter<wchar_t> > >::type_case_s_compute_narrow_string_length(int,wchar_t)
FUNC 38184 4c 0 __crt_stdio_output::output_processor<wchar_t,__crt_stdio_output::stream_output_adapter<wchar_t>,__crt_stdio_output::standard_base<wchar_t,__crt_stdio_output::stream_output_adapter<wchar_t> > >::type_case_s_compute_narrow_string_length(int,wchar_t)
FUNC 381e4 4c 0 __crt_stdio_output::output_processor<wchar_t,__crt_stdio_output::string_output_adapter<wchar_t>,__crt_stdio_output::format_validation_base<wchar_t,__crt_stdio_output::string_output_adapter<wchar_t> > >::type_case_s_compute_narrow_string_length(int,wchar_t)
FUNC 38244 4c 0 __crt_stdio_output::output_processor<wchar_t,__crt_stdio_output::string_output_adapter<wchar_t>,__crt_stdio_output::positional_parameter_base<wchar_t,__crt_stdio_output::string_output_adapter<wchar_t> > >::type_case_s_compute_narrow_string_length(int,wchar_t)
FUNC 382a4 4c 0 __crt_stdio_output::output_processor<wchar_t,__crt_stdio_output::string_output_adapter<wchar_t>,__crt_stdio_output::standard_base<wchar_t,__crt_stdio_output::string_output_adapter<wchar_t> > >::type_case_s_compute_narrow_string_length(int,wchar_t)
FUNC 38304 c 0 __crt_stdio_output::output_processor<char,__crt_stdio_output::stream_output_adapter<char>,__crt_stdio_output::format_validation_base<char,__crt_stdio_output::stream_output_adapter<char> > >::type_case_u()
FUNC 38314 c 0 __crt_stdio_output::output_processor<char,__crt_stdio_output::stream_output_adapter<char>,__crt_stdio_output::positional_parameter_base<char,__crt_stdio_output::stream_output_adapter<char> > >::type_case_u()
FUNC 38324 c 0 __crt_stdio_output::output_processor<char,__crt_stdio_output::stream_output_adapter<char>,__crt_stdio_output::standard_base<char,__crt_stdio_output::stream_output_adapter<char> > >::type_case_u()
FUNC 38334 c 0 __crt_stdio_output::output_processor<char,__crt_stdio_output::string_output_adapter<char>,__crt_stdio_output::format_validation_base<char,__crt_stdio_output::string_output_adapter<char> > >::type_case_u()
FUNC 38344 c 0 __crt_stdio_output::output_processor<char,__crt_stdio_output::string_output_adapter<char>,__crt_stdio_output::positional_parameter_base<char,__crt_stdio_output::string_output_adapter<char> > >::type_case_u()
FUNC 38354 c 0 __crt_stdio_output::output_processor<char,__crt_stdio_output::string_output_adapter<char>,__crt_stdio_output::standard_base<char,__crt_stdio_output::string_output_adapter<char> > >::type_case_u()
FUNC 38364 c 0 __crt_stdio_output::output_processor<wchar_t,__crt_stdio_output::stream_output_adapter<wchar_t>,__crt_stdio_output::format_validation_base<wchar_t,__crt_stdio_output::stream_output_adapter<wchar_t> > >::type_case_u()
FUNC 38374 c 0 __crt_stdio_output::output_processor<wchar_t,__crt_stdio_output::stream_output_adapter<wchar_t>,__crt_stdio_output::positional_parameter_base<wchar_t,__crt_stdio_output::stream_output_adapter<wchar_t> > >::type_case_u()
FUNC 38384 c 0 __crt_stdio_output::output_processor<wchar_t,__crt_stdio_output::stream_output_adapter<wchar_t>,__crt_stdio_output::standard_base<wchar_t,__crt_stdio_output::stream_output_adapter<wchar_t> > >::type_case_u()
FUNC 38394 c 0 __crt_stdio_output::output_processor<wchar_t,__crt_stdio_output::string_output_adapter<wchar_t>,__crt_stdio_output::format_validation_base<wchar_t,__crt_stdio_output::string_output_adapter<wchar_t> > >::type_case_u()
FUNC 383a4 c 0 __crt_stdio_output::output_processor<wchar_t,__crt_stdio_output::string_output_adapter<wchar_t>,__crt_stdio_output::positional_parameter_base<wchar_t,__crt_stdio_output::string_output_adapter<wchar_t> > >::type_case_u()
FUNC 383b4 c 0 __crt_stdio_output::output_processor<wchar_t,__crt_stdio_output::string_output_adapter<wchar_t>,__crt_stdio_output::standard_base<wchar_t,__crt_stdio_output::string_output_adapter<wchar_t> > >::type_case_u()
FUNC 383c4 c 0 __crt_stdio_output::output_processor<char,__crt_stdio_output::stream_output_adapter<char>,__crt_stdio_output::format_validation_base<char,__crt_stdio_output::stream_output_adapter<char> > >::type_case_x()
FUNC 383d4 c 0 __crt_stdio_output::output_processor<char,__crt_stdio_output::stream_output_adapter<char>,__crt_stdio_output::positional_parameter_base<char,__crt_stdio_output::stream_output_adapter<char> > >::type_case_x()
FUNC 383e4 c 0 __crt_stdio_output::output_processor<char,__crt_stdio_output::stream_output_adapter<char>,__crt_stdio_output::standard_base<char,__crt_stdio_output::stream_output_adapter<char> > >::type_case_x()
FUNC 383f4 c 0 __crt_stdio_output::output_processor<char,__crt_stdio_output::string_output_adapter<char>,__crt_stdio_output::format_validation_base<char,__crt_stdio_output::string_output_adapter<char> > >::type_case_x()
FUNC 38404 c 0 __crt_stdio_output::output_processor<char,__crt_stdio_output::string_output_adapter<char>,__crt_stdio_output::positional_parameter_base<char,__crt_stdio_output::string_output_adapter<char> > >::type_case_x()
FUNC 38414 c 0 __crt_stdio_output::output_processor<char,__crt_stdio_output::string_output_adapter<char>,__crt_stdio_output::standard_base<char,__crt_stdio_output::string_output_adapter<char> > >::type_case_x()
FUNC 38424 c 0 __crt_stdio_output::output_processor<wchar_t,__crt_stdio_output::stream_output_adapter<wchar_t>,__crt_stdio_output::format_validation_base<wchar_t,__crt_stdio_output::stream_output_adapter<wchar_t> > >::type_case_x()
FUNC 38434 c 0 __crt_stdio_output::output_processor<wchar_t,__crt_stdio_output::stream_output_adapter<wchar_t>,__crt_stdio_output::positional_parameter_base<wchar_t,__crt_stdio_output::stream_output_adapter<wchar_t> > >::type_case_x()
FUNC 38444 c 0 __crt_stdio_output::output_processor<wchar_t,__crt_stdio_output::stream_output_adapter<wchar_t>,__crt_stdio_output::standard_base<wchar_t,__crt_stdio_output::stream_output_adapter<wchar_t> > >::type_case_x()
FUNC 38454 c 0 __crt_stdio_output::output_processor<wchar_t,__crt_stdio_output::string_output_adapter<wchar_t>,__crt_stdio_output::format_validation_base<wchar_t,__crt_stdio_output::string_output_adapter<wchar_t> > >::type_case_x()
FUNC 38464 c 0 __crt_stdio_output::output_processor<wchar_t,__crt_stdio_output::string_output_adapter<wchar_t>,__crt_stdio_output::positional_parameter_base<wchar_t,__crt_stdio_output::string_output_adapter<wchar_t> > >::type_case_x()
FUNC 38474 c 0 __crt_stdio_output::output_processor<wchar_t,__crt_stdio_output::string_output_adapter<wchar_t>,__crt_stdio_output::standard_base<wchar_t,__crt_stdio_output::string_output_adapter<wchar_t> > >::type_case_x()
FUNC 38484 6 0 __crt_stdio_output::output_processor<char,__crt_stdio_output::stream_output_adapter<char>,__crt_stdio_output::format_validation_base<char,__crt_stdio_output::stream_output_adapter<char> > >::unset_flag(unsigned int)
FUNC 3848c 6 0 __crt_stdio_output::output_processor<char,__crt_stdio_output::stream_output_adapter<char>,__crt_stdio_output::positional_parameter_base<char,__crt_stdio_output::stream_output_adapter<char> > >::unset_flag(unsigned int)
FUNC 38494 6 0 __crt_stdio_output::output_processor<char,__crt_stdio_output::stream_output_adapter<char>,__crt_stdio_output::standard_base<char,__crt_stdio_output::stream_output_adapter<char> > >::unset_flag(unsigned int)
FUNC 3849c 6 0 __crt_stdio_output::output_processor<char,__crt_stdio_output::string_output_adapter<char>,__crt_stdio_output::format_validation_base<char,__crt_stdio_output::string_output_adapter<char> > >::unset_flag(unsigned int)
FUNC 384a4 6 0 __crt_stdio_output::output_processor<char,__crt_stdio_output::string_output_adapter<char>,__crt_stdio_output::positional_parameter_base<char,__crt_stdio_output::string_output_adapter<char> > >::unset_flag(unsigned int)
FUNC 384ac 6 0 __crt_stdio_output::output_processor<char,__crt_stdio_output::string_output_adapter<char>,__crt_stdio_output::standard_base<char,__crt_stdio_output::string_output_adapter<char> > >::unset_flag(unsigned int)
FUNC 384b4 6 0 __crt_stdio_output::output_processor<wchar_t,__crt_stdio_output::stream_output_adapter<wchar_t>,__crt_stdio_output::format_validation_base<wchar_t,__crt_stdio_output::stream_output_adapter<wchar_t> > >::unset_flag(unsigned int)
FUNC 384bc 6 0 __crt_stdio_output::output_processor<wchar_t,__crt_stdio_output::stream_output_adapter<wchar_t>,__crt_stdio_output::positional_parameter_base<wchar_t,__crt_stdio_output::stream_output_adapter<wchar_t> > >::unset_flag(unsigned int)
FUNC 384c4 6 0 __crt_stdio_output::output_processor<wchar_t,__crt_stdio_output::stream_output_adapter<wchar_t>,__crt_stdio_output::standard_base<wchar_t,__crt_stdio_output::stream_output_adapter<wchar_t> > >::unset_flag(unsigned int)
FUNC 384cc 6 0 __crt_stdio_output::output_processor<wchar_t,__crt_stdio_output::string_output_adapter<wchar_t>,__crt_stdio_output::format_validation_base<wchar_t,__crt_stdio_output::string_output_adapter<wchar_t> > >::unset_flag(unsigned int)
FUNC 384d4 6 0 __crt_stdio_output::output_processor<wchar_t,__crt_stdio_output::string_output_adapter<wchar_t>,__crt_stdio_output::positional_parameter_base<wchar_t,__crt_stdio_output::string_output_adapter<wchar_t> > >::unset_flag(unsigned int)
FUNC 384dc 6 0 __crt_stdio_output::output_processor<wchar_t,__crt_stdio_output::string_output_adapter<wchar_t>,__crt_stdio_output::standard_base<wchar_t,__crt_stdio_output::string_output_adapter<wchar_t> > >::unset_flag(unsigned int)
FUNC 384e4 115 0 __crt_stdio_output::positional_parameter_base<char,__crt_stdio_output::stream_output_adapter<char> >::update_field_width()
FUNC 38640 115 0 __crt_stdio_output::positional_parameter_base<char,__crt_stdio_output::string_output_adapter<char> >::update_field_width()
FUNC 3879c 118 0 __crt_stdio_output::positional_parameter_base<wchar_t,__crt_stdio_output::stream_output_adapter<wchar_t> >::update_field_width()
FUNC 388fc 118 0 __crt_stdio_output::positional_parameter_base<wchar_t,__crt_stdio_output::string_output_adapter<wchar_t> >::update_field_width()
FUNC 38a5c 12 0 __crt_stdio_output::standard_base<char,__crt_stdio_output::stream_output_adapter<char> >::update_field_width()
FUNC 38a74 12 0 __crt_stdio_output::standard_base<char,__crt_stdio_output::string_output_adapter<char> >::update_field_width()
FUNC 38a8c 12 0 __crt_stdio_output::standard_base<wchar_t,__crt_stdio_output::stream_output_adapter<wchar_t> >::update_field_width()
FUNC 38aa4 12 0 __crt_stdio_output::standard_base<wchar_t,__crt_stdio_output::string_output_adapter<wchar_t> >::update_field_width()
FUNC 38abc 115 0 __crt_stdio_output::positional_parameter_base<char,__crt_stdio_output::stream_output_adapter<char> >::update_precision()
FUNC 38c18 115 0 __crt_stdio_output::positional_parameter_base<char,__crt_stdio_output::string_output_adapter<char> >::update_precision()
FUNC 38d74 118 0 __crt_stdio_output::positional_parameter_base<wchar_t,__crt_stdio_output::stream_output_adapter<wchar_t> >::update_precision()
FUNC 38ed4 118 0 __crt_stdio_output::positional_parameter_base<wchar_t,__crt_stdio_output::string_output_adapter<wchar_t> >::update_precision()
FUNC 39034 12 0 __crt_stdio_output::standard_base<char,__crt_stdio_output::stream_output_adapter<char> >::update_precision()
FUNC 3904c 12 0 __crt_stdio_output::standard_base<char,__crt_stdio_output::string_output_adapter<char> >::update_precision()
FUNC 39064 12 0 __crt_stdio_output::standard_base<wchar_t,__crt_stdio_output::stream_output_adapter<wchar_t> >::update_precision()
FUNC 3907c 12 0 __crt_stdio_output::standard_base<wchar_t,__crt_stdio_output::string_output_adapter<wchar_t> >::update_precision()
FUNC 39094 8 0 __crt_stdio_stream::valid()
FUNC 390a0 2c 0 __crt_stdio_output::stream_output_adapter<char>::validate()
FUNC 390d8 25 0 __crt_stdio_output::stream_output_adapter<wchar_t>::validate()
FUNC 39108 25 0 __crt_stdio_output::string_output_adapter<char>::validate()
FUNC 39138 25 0 __crt_stdio_output::string_output_adapter<wchar_t>::validate()
FUNC 39168 3f 0 __crt_stdio_output::positional_parameter_base<char,__crt_stdio_output::stream_output_adapter<char> >::validate_and_store_parameter_data(__crt_stdio_output::positional_parameter_base<char,__crt_stdio_output::stream_output_adapter<char> >::parameter_data &,__crt_stdio_output::positional_parameter_base<char,__crt_stdio_output::stream_output_adapter<char> >::parameter_type,char,__crt_stdio_output::length_modifier)
FUNC 391b8 3f 0 __crt_stdio_output::positional_parameter_base<char,__crt_stdio_output::string_output_adapter<char> >::validate_and_store_parameter_data(__crt_stdio_output::positional_parameter_base<char,__crt_stdio_output::string_output_adapter<char> >::parameter_data &,__crt_stdio_output::positional_parameter_base<char,__crt_stdio_output::string_output_adapter<char> >::parameter_type,char,__crt_stdio_output::length_modifier)
FUNC 39208 40 0 __crt_stdio_output::positional_parameter_base<wchar_t,__crt_stdio_output::stream_output_adapter<wchar_t> >::validate_and_store_parameter_data(__crt_stdio_output::positional_parameter_base<wchar_t,__crt_stdio_output::stream_output_adapter<wchar_t> >::parameter_data &,__crt_stdio_output::positional_parameter_base<wchar_t,__crt_stdio_output::stream_output_adapter<wchar_t> >::parameter_type,wchar_t,__crt_stdio_output::length_modifier)
FUNC 39258 40 0 __crt_stdio_output::positional_parameter_base<wchar_t,__crt_stdio_output::string_output_adapter<wchar_t> >::validate_and_store_parameter_data(__crt_stdio_output::positional_parameter_base<wchar_t,__crt_stdio_output::string_output_adapter<wchar_t> >::parameter_data &,__crt_stdio_output::positional_parameter_base<wchar_t,__crt_stdio_output::string_output_adapter<wchar_t> >::parameter_type,wchar_t,__crt_stdio_output::length_modifier)
FUNC 392a8 10b 0 __crt_stdio_output::positional_parameter_base<char,__crt_stdio_output::stream_output_adapter<char> >::validate_and_update_state_at_beginning_of_format_character()
FUNC 393f8 10b 0 __crt_stdio_output::positional_parameter_base<char,__crt_stdio_output::string_output_adapter<char> >::validate_and_update_state_at_beginning_of_format_character()
FUNC 39548 114 0 __crt_stdio_output::positional_parameter_base<wchar_t,__crt_stdio_output::stream_output_adapter<wchar_t> >::validate_and_update_state_at_beginning_of_format_character()
FUNC 396a4 114 0 __crt_stdio_output::positional_parameter_base<wchar_t,__crt_stdio_output::string_output_adapter<wchar_t> >::validate_and_update_state_at_beginning_of_format_character()
FUNC 39800 3 0 __crt_stdio_output::standard_base<char,__crt_stdio_output::stream_output_adapter<char> >::validate_and_update_state_at_beginning_of_format_character()
FUNC 39804 3 0 __crt_stdio_output::standard_base<char,__crt_stdio_output::string_output_adapter<char> >::validate_and_update_state_at_beginning_of_format_character()
FUNC 39808 3 0 __crt_stdio_output::standard_base<wchar_t,__crt_stdio_output::stream_output_adapter<wchar_t> >::validate_and_update_state_at_beginning_of_format_character()
FUNC 3980c 3 0 __crt_stdio_output::standard_base<wchar_t,__crt_stdio_output::string_output_adapter<wchar_t> >::validate_and_update_state_at_beginning_of_format_character()
FUNC 39810 2b 0 __crt_stdio_output::format_validation_base<char,__crt_stdio_output::stream_output_adapter<char> >::validate_and_update_state_at_end_of_format_string()
FUNC 39848 2b 0 __crt_stdio_output::format_validation_base<char,__crt_stdio_output::string_output_adapter<char> >::validate_and_update_state_at_end_of_format_string()
FUNC 39880 2b 0 __crt_stdio_output::format_validation_base<wchar_t,__crt_stdio_output::stream_output_adapter<wchar_t> >::validate_and_update_state_at_end_of_format_string()
FUNC 398b8 2b 0 __crt_stdio_output::format_validation_base<wchar_t,__crt_stdio_output::string_output_adapter<wchar_t> >::validate_and_update_state_at_end_of_format_string()
FUNC 398f0 90 0 __crt_stdio_output::positional_parameter_base<char,__crt_stdio_output::stream_output_adapter<char> >::validate_and_update_state_at_end_of_format_string()
FUNC 399a4 90 0 __crt_stdio_output::positional_parameter_base<char,__crt_stdio_output::string_output_adapter<char> >::validate_and_update_state_at_end_of_format_string()
FUNC 39a58 90 0 __crt_stdio_output::positional_parameter_base<wchar_t,__crt_stdio_output::stream_output_adapter<wchar_t> >::validate_and_update_state_at_end_of_format_string()
FUNC 39b0c 90 0 __crt_stdio_output::positional_parameter_base<wchar_t,__crt_stdio_output::string_output_adapter<wchar_t> >::validate_and_update_state_at_end_of_format_string()
FUNC 39bc0 3 0 __crt_stdio_output::standard_base<char,__crt_stdio_output::stream_output_adapter<char> >::validate_and_update_state_at_end_of_format_string()
FUNC 39bc4 3 0 __crt_stdio_output::standard_base<char,__crt_stdio_output::string_output_adapter<char> >::validate_and_update_state_at_end_of_format_string()
FUNC 39bc8 3 0 __crt_stdio_output::standard_base<wchar_t,__crt_stdio_output::stream_output_adapter<wchar_t> >::validate_and_update_state_at_end_of_format_string()
FUNC 39bcc 3 0 __crt_stdio_output::standard_base<wchar_t,__crt_stdio_output::string_output_adapter<wchar_t> >::validate_and_update_state_at_end_of_format_string()
FUNC 39bd0 9b 0 __crt_stdio_output::positional_parameter_base<char,__crt_stdio_output::stream_output_adapter<char> >::validate_state_for_type_case_a()
FUNC 39c94 9b 0 __crt_stdio_output::positional_parameter_base<char,__crt_stdio_output::string_output_adapter<char> >::validate_state_for_type_case_a()
FUNC 39d58 9d 0 __crt_stdio_output::positional_parameter_base<wchar_t,__crt_stdio_output::stream_output_adapter<wchar_t> >::validate_state_for_type_case_a()
FUNC 39e1c 9d 0 __crt_stdio_output::positional_parameter_base<wchar_t,__crt_stdio_output::string_output_adapter<wchar_t> >::validate_state_for_type_case_a()
FUNC 39ee0 3 0 __crt_stdio_output::standard_base<char,__crt_stdio_output::stream_output_adapter<char> >::validate_state_for_type_case_a()
FUNC 39ee4 3 0 __crt_stdio_output::standard_base<char,__crt_stdio_output::string_output_adapter<char> >::validate_state_for_type_case_a()
FUNC 39ee8 3 0 __crt_stdio_output::standard_base<wchar_t,__crt_stdio_output::stream_output_adapter<wchar_t> >::validate_state_for_type_case_a()
FUNC 39eec 3 0 __crt_stdio_output::standard_base<wchar_t,__crt_stdio_output::string_output_adapter<wchar_t> >::validate_state_for_type_case_a()
FUNC 39ef0 92 0 __acrt_stdio_char_traits<char>::validate_stream_is_ansi_if_required(_iobuf * const)
FUNC 39fa8 3 0 __acrt_stdio_char_traits<wchar_t>::validate_stream_is_ansi_if_required(_iobuf * const)
FUNC 39fac 8 0 __crt_stdio_output::output_processor<char,__crt_stdio_output::stream_output_adapter<char>,__crt_stdio_output::format_validation_base<char,__crt_stdio_output::stream_output_adapter<char> > >::wide_null_string()
FUNC 39fb8 8 0 __crt_stdio_output::output_processor<char,__crt_stdio_output::stream_output_adapter<char>,__crt_stdio_output::positional_parameter_base<char,__crt_stdio_output::stream_output_adapter<char> > >::wide_null_string()
FUNC 39fc4 8 0 __crt_stdio_output::output_processor<char,__crt_stdio_output::stream_output_adapter<char>,__crt_stdio_output::standard_base<char,__crt_stdio_output::stream_output_adapter<char> > >::wide_null_string()
FUNC 39fd0 8 0 __crt_stdio_output::output_processor<char,__crt_stdio_output::string_output_adapter<char>,__crt_stdio_output::format_validation_base<char,__crt_stdio_output::string_output_adapter<char> > >::wide_null_string()
FUNC 39fdc 8 0 __crt_stdio_output::output_processor<char,__crt_stdio_output::string_output_adapter<char>,__crt_stdio_output::positional_parameter_base<char,__crt_stdio_output::string_output_adapter<char> > >::wide_null_string()
FUNC 39fe8 8 0 __crt_stdio_output::output_processor<char,__crt_stdio_output::string_output_adapter<char>,__crt_stdio_output::standard_base<char,__crt_stdio_output::string_output_adapter<char> > >::wide_null_string()
FUNC 39ff4 8 0 __crt_stdio_output::output_processor<wchar_t,__crt_stdio_output::stream_output_adapter<wchar_t>,__crt_stdio_output::format_validation_base<wchar_t,__crt_stdio_output::stream_output_adapter<wchar_t> > >::wide_null_string()
FUNC 3a000 8 0 __crt_stdio_output::output_processor<wchar_t,__crt_stdio_output::stream_output_adapter<wchar_t>,__crt_stdio_output::positional_parameter_base<wchar_t,__crt_stdio_output::stream_output_adapter<wchar_t> > >::wide_null_string()
FUNC 3a00c 8 0 __crt_stdio_output::output_processor<wchar_t,__crt_stdio_output::stream_output_adapter<wchar_t>,__crt_stdio_output::standard_base<wchar_t,__crt_stdio_output::stream_output_adapter<wchar_t> > >::wide_null_string()
FUNC 3a018 8 0 __crt_stdio_output::output_processor<wchar_t,__crt_stdio_output::string_output_adapter<wchar_t>,__crt_stdio_output::format_validation_base<wchar_t,__crt_stdio_output::string_output_adapter<wchar_t> > >::wide_null_string()
FUNC 3a024 8 0 __crt_stdio_output::output_processor<wchar_t,__crt_stdio_output::string_output_adapter<wchar_t>,__crt_stdio_output::positional_parameter_base<wchar_t,__crt_stdio_output::string_output_adapter<wchar_t> > >::wide_null_string()
FUNC 3a030 8 0 __crt_stdio_output::output_processor<wchar_t,__crt_stdio_output::string_output_adapter<wchar_t>,__crt_stdio_output::standard_base<wchar_t,__crt_stdio_output::string_output_adapter<wchar_t> > >::wide_null_string()
FUNC 3a03c 48 0 __crt_stdio_output::output_adapter_common<char,__crt_stdio_output::stream_output_adapter<char> >::write_character(char,int * const)
FUNC 3a098 4b 0 __crt_stdio_output::output_adapter_common<wchar_t,__crt_stdio_output::stream_output_adapter<wchar_t> >::write_character(wchar_t,int * const)
FUNC 3a0f8 45 0 __crt_stdio_output::string_output_adapter<char>::write_character(char,int * const)
FUNC 3a150 48 0 __crt_stdio_output::string_output_adapter<wchar_t>::write_character(wchar_t,int * const)
FUNC 3a1ac 40 0 __crt_stdio_output::stream_output_adapter<char>::write_character_without_count_update(char)
FUNC 3a1fc 43 0 __crt_stdio_output::stream_output_adapter<wchar_t>::write_character_without_count_update(wchar_t)
FUNC 3a250 121 0 __crt_stdio_output::output_processor<char,__crt_stdio_output::stream_output_adapter<char>,__crt_stdio_output::format_validation_base<char,__crt_stdio_output::stream_output_adapter<char> > >::write_stored_string_tchar(char)
FUNC 3a3bc 121 0 __crt_stdio_output::output_processor<char,__crt_stdio_output::stream_output_adapter<char>,__crt_stdio_output::positional_parameter_base<char,__crt_stdio_output::stream_output_adapter<char> > >::write_stored_string_tchar(char)
FUNC 3a528 121 0 __crt_stdio_output::output_processor<char,__crt_stdio_output::stream_output_adapter<char>,__crt_stdio_output::standard_base<char,__crt_stdio_output::stream_output_adapter<char> > >::write_stored_string_tchar(char)
FUNC 3a694 d5 0 __crt_stdio_output::output_processor<char,__crt_stdio_output::string_output_adapter<char>,__crt_stdio_output::format_validation_base<char,__crt_stdio_output::string_output_adapter<char> > >::write_stored_string_tchar(char)
FUNC 3a7a0 d5 0 __crt_stdio_output::output_processor<char,__crt_stdio_output::string_output_adapter<char>,__crt_stdio_output::positional_parameter_base<char,__crt_stdio_output::string_output_adapter<char> > >::write_stored_string_tchar(char)
FUNC 3a8ac d5 0 __crt_stdio_output::output_processor<char,__crt_stdio_output::string_output_adapter<char>,__crt_stdio_output::standard_base<char,__crt_stdio_output::string_output_adapter<char> > >::write_stored_string_tchar(char)
FUNC 3a9b8 106 0 __crt_stdio_output::output_processor<wchar_t,__crt_stdio_output::stream_output_adapter<wchar_t>,__crt_stdio_output::format_validation_base<wchar_t,__crt_stdio_output::stream_output_adapter<wchar_t> > >::write_stored_string_tchar(wchar_t)
FUNC 3ab00 106 0 __crt_stdio_output::output_processor<wchar_t,__crt_stdio_output::stream_output_adapter<wchar_t>,__crt_stdio_output::positional_parameter_base<wchar_t,__crt_stdio_output::stream_output_adapter<wchar_t> > >::write_stored_string_tchar(wchar_t)
FUNC 3ac48 106 0 __crt_stdio_output::output_processor<wchar_t,__crt_stdio_output::stream_output_adapter<wchar_t>,__crt_stdio_output::standard_base<wchar_t,__crt_stdio_output::stream_output_adapter<wchar_t> > >::write_stored_string_tchar(wchar_t)
FUNC 3ad90 eb 0 __crt_stdio_output::output_processor<wchar_t,__crt_stdio_output::string_output_adapter<wchar_t>,__crt_stdio_output::format_validation_base<wchar_t,__crt_stdio_output::string_output_adapter<wchar_t> > >::write_stored_string_tchar(wchar_t)
FUNC 3aeb8 eb 0 __crt_stdio_output::output_processor<wchar_t,__crt_stdio_output::string_output_adapter<wchar_t>,__crt_stdio_output::positional_parameter_base<wchar_t,__crt_stdio_output::string_output_adapter<wchar_t> > >::write_stored_string_tchar(wchar_t)
FUNC 3afe0 eb 0 __crt_stdio_output::output_processor<wchar_t,__crt_stdio_output::string_output_adapter<wchar_t>,__crt_stdio_output::standard_base<wchar_t,__crt_stdio_output::string_output_adapter<wchar_t> > >::write_stored_string_tchar(wchar_t)
FUNC 3b108 24 0 __crt_stdio_output::stream_output_adapter<char>::write_string(char const * const,int,int * const,__crt_deferred_errno_cache &)
FUNC 3b138 24 0 __crt_stdio_output::stream_output_adapter<wchar_t>::write_string(wchar_t const * const,int,int * const,__crt_deferred_errno_cache &)
FUNC 3b168 a3 0 __crt_stdio_output::string_output_adapter<char>::write_string(char const * const,int,int * const,__crt_deferred_errno_cache &)
FUNC 3b234 a5 0 __crt_stdio_output::string_output_adapter<wchar_t>::write_string(wchar_t const * const,int,int * const,__crt_deferred_errno_cache &)
FUNC 3b304 f5 0 __crt_stdio_output::output_adapter_common<char,__crt_stdio_output::stream_output_adapter<char> >::write_string_impl(char const * const,int,int * const,__crt_deferred_errno_cache &)
FUNC 3b438 103 0 __crt_stdio_output::output_adapter_common<wchar_t,__crt_stdio_output::stream_output_adapter<wchar_t> >::write_string_impl(wchar_t const * const,int,int * const,__crt_deferred_errno_cache &)
FUNC 3b57c 15 0 _acrt_isleadbyte_l_noupdate
FUNC 3b598 b 0 _acrt_locale_changed
FUNC 3b5a8 8b 0 _stdio_common_vfprintf
FUNC 3b658 8b 0 _stdio_common_vfprintf_p
FUNC 3b708 8b 0 _stdio_common_vfprintf_s
FUNC 3b7b8 8b 0 _stdio_common_vfwprintf
FUNC 3b868 8b 0 _stdio_common_vfwprintf_p
FUNC 3b918 8b 0 _stdio_common_vfwprintf_s
FUNC 3b9c8 134 0 _stdio_common_vsnprintf_s
FUNC 3bb4c 143 0 _stdio_common_vsnwprintf_s
FUNC 3bce0 5 0 _stdio_common_vsprintf
FUNC 3bce8 5 0 _stdio_common_vsprintf_p
FUNC 3bcf0 63 0 _stdio_common_vsprintf_s
FUNC 3bd6c 5 0 _stdio_common_vswprintf
FUNC 3bd74 5 0 _stdio_common_vswprintf_p
FUNC 3bd7c 6e 0 _stdio_common_vswprintf_s
FUNC 3be08 25 0 __crt_strtox::is_overflow_condition<unsigned long>(unsigned int,unsigned long)
FUNC 3be38 30 0 __crt_strtox::is_overflow_condition<unsigned __int64>(unsigned int,unsigned __int64)
FUNC 3be74 13 0 __crt_strtox::make_c_string_character_source<char,std::nullptr_t>(char const * const,std::nullptr_t)
FUNC 3be8c 13 0 __crt_strtox::make_c_string_character_source<wchar_t,std::nullptr_t>(wchar_t const * const,std::nullptr_t)
FUNC 3bea4 33a 0 __crt_strtox::parse_integer<unsigned long,__crt_strtox::c_string_character_source<char> >(__crt_locale_pointers * const,__crt_strtox::c_string_character_source<char>,int,bool)
FUNC 3c2ac 6b2 0 __crt_strtox::parse_integer<unsigned long,__crt_strtox::c_string_character_source<wchar_t> >(__crt_locale_pointers * const,__crt_strtox::c_string_character_source<wchar_t>,int,bool)
FUNC 3cb0c 333 0 __crt_strtox::parse_integer<unsigned __int64,__crt_strtox::c_string_character_source<char> >(__crt_locale_pointers * const,__crt_strtox::c_string_character_source<char>,int,bool)
FUNC 3cf0c 765 0 __crt_strtox::parse_integer<unsigned __int64,__crt_strtox::c_string_character_source<wchar_t> >(__crt_locale_pointers * const,__crt_strtox::c_string_character_source<wchar_t>,int,bool)
FUNC 3d84c 2e 0 __crt_strtox::parse_integer_from_string<long,char,std::nullptr_t>(char const * const,std::nullptr_t,int,__crt_locale_pointers * const)
FUNC 3d888 2e 0 __crt_strtox::parse_integer_from_string<long,wchar_t,std::nullptr_t>(wchar_t const * const,std::nullptr_t,int,__crt_locale_pointers * const)
FUNC 3d8c4 2e 0 __crt_strtox::parse_integer_from_string<__int64,char,std::nullptr_t>(char const * const,std::nullptr_t,int,__crt_locale_pointers * const)
FUNC 3d900 2e 0 __crt_strtox::parse_integer_from_string<__int64,wchar_t,std::nullptr_t>(wchar_t const * const,std::nullptr_t,int,__crt_locale_pointers * const)
FUNC 3d93c 13 0 __crt_strtox::c_string_character_source<char>::c_string_character_source<char>(char const * const,char const * * const)
FUNC 3d954 13 0 __crt_strtox::c_string_character_source<wchar_t>::c_string_character_source<wchar_t>(wchar_t const * const,wchar_t const * * const)
FUNC 3d96c 10 0 __crt_strtox::c_string_character_source<char>::~c_string_character_source<char>()
FUNC 3d980 10 0 __crt_strtox::c_string_character_source<wchar_t>::~c_string_character_source<wchar_t>()
FUNC 3d994 c 0 __crt_strtox::c_string_character_source<char>::get()
FUNC 3d9a4 e 0 __crt_strtox::c_string_character_source<wchar_t>::get()
FUNC 3d9b8 47 0 __crt_strtox::is_space(char,__crt_locale_pointers * const)
FUNC 3da10 18 0 __crt_strtox::is_space(wchar_t,__crt_locale_pointers *)
FUNC 3da30 6 0 __crt_strtox::maximum_signed_value(unsigned long)
FUNC 3da38 b 0 __crt_strtox::maximum_signed_value(unsigned __int64)
FUNC 3da48 6 0 __crt_strtox::minimum_signed_value(unsigned long)
FUNC 3da50 b 0 __crt_strtox::minimum_signed_value(unsigned __int64)
FUNC 3da60 2e 0 __crt_strtox::parse_digit(char)
FUNC 3da9c 1d3 0 __crt_strtox::parse_digit(wchar_t)
FUNC 3dce4 6 0 __crt_strtox::c_string_character_source<char>::restore_state(char const * const)
FUNC 3dcec 6 0 __crt_strtox::c_string_character_source<wchar_t>::restore_state(wchar_t const * const)
FUNC 3dcf4 4 0 __crt_strtox::c_string_character_source<char>::save_state()
FUNC 3dcf8 4 0 __crt_strtox::c_string_character_source<wchar_t>::save_state()
FUNC 3dcfc 2a 0 __crt_strtox::c_string_character_source<char>::unget(char)
FUNC 3dd30 2d 0 __crt_strtox::c_string_character_source<wchar_t>::unget(wchar_t)
FUNC 3dd68 25 0 __crt_strtox::c_string_character_source<char>::validate()
FUNC 3dd98 25 0 __crt_strtox::c_string_character_source<wchar_t>::validate()
FUNC 3ddc8 195 0 __crt_strtox::wide_character_to_digit(wchar_t)
FUNC 3dfc4 4 0 _acrt_get_locale_data_prefix
FUNC 3dfc8 29 0 atoi64
FUNC 3dffc 2d 0 atoi64_l
FUNC 3e034 2d 0 atoi_l
FUNC 3e06c 2d 0 atol_l
FUNC 3e0a4 2d 0 atoll_l
FUNC 3e0dc 36 0 chvalidchk_l
FUNC 3e120 4e 0 ischartype_l
FUNC 3e184 29 0 wtoi
FUNC 3e1b8 29 0 wtoi64
FUNC 3e1ec 2d 0 wtoi64_l
FUNC 3e224 2d 0 wtoi_l
FUNC 3e25c 29 0 wtol
FUNC 3e290 2d 0 wtol_l
FUNC 3e2c8 29 0 wtoll
FUNC 3e2fc 2d 0 wtoll_l
FUNC 3e334 29 0 atoi
FUNC 3e368 29 0 atol
FUNC 3e39c 29 0 atoll
FUNC 3e3e0 7d 0 strncmp
FUNC 3e480 8 0 __crt_internal_free_policy::operator()<__acrt_ptd>(__acrt_ptd const * const)
FUNC 3e48c 3f 0 __crt_seh_guarded_call<void>::operator()<<lambda_0ae27a3a962d80f24befdcbee591983d>,<lambda_8d0ee55de4b1038c4002e0adecdf1839> & __ptr64,<lambda_dc504788e8f1664fe9b84e20bfb512f2> >
FUNC 3e4dc 3d 0 __crt_seh_guarded_call<void>::operator()<<lambda_2d41944a1d46af3157314b8a01080d33>,<lambda_8f455de75cd7d7f24b4096f044d8b9e6> & __ptr64,<lambda_aa500f224e6afead328df44964fe2772> >
FUNC 3e528 45 0 __crt_seh_guarded_call<void>::operator()<<lambda_aa87e3671a710a21b5dc78c0bdf72e11>,<lambda_92619d2358a28f41a33ba319515a20b9> & __ptr64,<lambda_6992ecaafeb10aed2b74cb1fae11a551> >
FUNC 3e580 5f 0 __crt_seh_guarded_call<void>::operator()<<lambda_f2e299630e499de9f9a165e60fcd3db5>,<lambda_2ae9d31cdba2644fcbeaf08da7c24588> & __ptr64,<lambda_40d01ff24d0e7b3814fdbdcee8eab3c7> >
FUNC 3e5f8 26 0 __acrt_lock_and_call<<lambda_2ae9d31cdba2644fcbeaf08da7c24588> >
FUNC 3e628 26 0 __acrt_lock_and_call<<lambda_8d0ee55de4b1038c4002e0adecdf1839> >
FUNC 3e658 26 0 __acrt_lock_and_call<<lambda_8f455de75cd7d7f24b4096f044d8b9e6> >
FUNC 3e688 26 0 __acrt_lock_and_call<<lambda_92619d2358a28f41a33ba319515a20b9> >
FUNC 3e6b8 8 0 <lambda_0ae27a3a962d80f24befdcbee591983d>::<lambda_0ae27a3a962d80f24befdcbee591983d>
FUNC 3e6c4 7 0 <lambda_2ae9d31cdba2644fcbeaf08da7c24588>::<lambda_2ae9d31cdba2644fcbeaf08da7c24588>
FUNC 3e6cc 8 0 <lambda_2d41944a1d46af3157314b8a01080d33>::<lambda_2d41944a1d46af3157314b8a01080d33>
FUNC 3e6d8 8 0 <lambda_40d01ff24d0e7b3814fdbdcee8eab3c7>::<lambda_40d01ff24d0e7b3814fdbdcee8eab3c7>
FUNC 3e6e4 8 0 <lambda_6992ecaafeb10aed2b74cb1fae11a551>::<lambda_6992ecaafeb10aed2b74cb1fae11a551>
FUNC 3e6f0 7 0 <lambda_8d0ee55de4b1038c4002e0adecdf1839>::<lambda_8d0ee55de4b1038c4002e0adecdf1839>
FUNC 3e6f8 7 0 <lambda_8f455de75cd7d7f24b4096f044d8b9e6>::<lambda_8f455de75cd7d7f24b4096f044d8b9e6>
FUNC 3e700 b 0 <lambda_92619d2358a28f41a33ba319515a20b9>::<lambda_92619d2358a28f41a33ba319515a20b9>
FUNC 3e710 8 0 <lambda_aa500f224e6afead328df44964fe2772>::<lambda_aa500f224e6afead328df44964fe2772>
FUNC 3e71c 8 0 <lambda_aa87e3671a710a21b5dc78c0bdf72e11>::<lambda_aa87e3671a710a21b5dc78c0bdf72e11>
FUNC 3e728 8 0 <lambda_dc504788e8f1664fe9b84e20bfb512f2>::<lambda_dc504788e8f1664fe9b84e20bfb512f2>
FUNC 3e734 8 0 <lambda_f2e299630e499de9f9a165e60fcd3db5>::<lambda_f2e299630e499de9f9a165e60fcd3db5>
FUNC 3e740 7 0 __crt_unique_heap_ptr<__acrt_ptd,__crt_internal_free_policy>::__crt_unique_heap_ptr<__acrt_ptd,__crt_internal_free_policy>(__acrt_ptd * const)
FUNC 3e748 1a 0 __crt_scoped_get_last_error_reset::__crt_scoped_get_last_error_reset()
FUNC 3e768 1b 0 __crt_unique_heap_ptr<__acrt_ptd,__crt_internal_free_policy>::~__crt_unique_heap_ptr<__acrt_ptd,__crt_internal_free_policy>()
FUNC 3e78c 9 0 __crt_scoped_get_last_error_reset::~__crt_scoped_get_last_error_reset()
FUNC 3e798 8 0 __crt_unique_heap_ptr<__acrt_ptd,__crt_internal_free_policy>::operator bool()
FUNC 3e7a4 7 0 <lambda_0ae27a3a962d80f24befdcbee591983d>::operator()
FUNC 3e7ac 38 0 <lambda_2ae9d31cdba2644fcbeaf08da7c24588>::operator()
FUNC 3e7f4 7 0 <lambda_2d41944a1d46af3157314b8a01080d33>::operator()
FUNC 3e7fc 7 0 <lambda_40d01ff24d0e7b3814fdbdcee8eab3c7>::operator()
FUNC 3e804 7 0 <lambda_6992ecaafeb10aed2b74cb1fae11a551>::operator()
FUNC 3e80c 11 0 <lambda_8d0ee55de4b1038c4002e0adecdf1839>::operator()
FUNC 3e824 d 0 <lambda_8f455de75cd7d7f24b4096f044d8b9e6>::operator()
FUNC 3e834 15 0 <lambda_92619d2358a28f41a33ba319515a20b9>::operator()
FUNC 3e850 7 0 <lambda_aa500f224e6afead328df44964fe2772>::operator()
FUNC 3e858 7 0 <lambda_aa87e3671a710a21b5dc78c0bdf72e11>::operator()
FUNC 3e860 7 0 <lambda_dc504788e8f1664fe9b84e20bfb512f2>::operator()
FUNC 3e868 7 0 <lambda_f2e299630e499de9f9a165e60fcd3db5>::operator()
FUNC 3e870 c5 0 construct_ptd
FUNC 3e968 cd 0 construct_ptd_array
FUNC 3ea68 4 0 __crt_state_management::dual_state_global<__crt_locale_data *>::dangerous_get_state_array()
FUNC 3ea6c 20 0 destroy_fls
FUNC 3ea94 f5 0 destroy_ptd
FUNC 3ebc8 f5 0 destroy_ptd_array
FUNC 3ecfc 8 0 __crt_unique_heap_ptr<__acrt_ptd,__crt_internal_free_policy>::detach()
FUNC 3ed08 4 0 __crt_unique_heap_ptr<__acrt_ptd,__crt_internal_free_policy>::get()
FUNC 3ed0c 3 0 __crt_state_management::get_current_state_index(__crt_scoped_get_last_error_reset const &)
FUNC 3ed10 a1 0 internal_get_ptd_head
FUNC 3eddc c8 0 internal_getptd_noexit
FUNC 3eed8 8 0 __crt_unique_heap_ptr<__acrt_ptd,__crt_internal_free_policy>::is_valid()
FUNC 3eee4 1b 0 __crt_unique_heap_ptr<__acrt_ptd,__crt_internal_free_policy>::release()
FUNC 3ef08 67 0 replace_current_thread_locale_nolock
FUNC 3ef88 13 0 try_get_ptd_head
FUNC 3efa0 41 0 _acrt_freeptd
FUNC 3eff4 c2 0 _acrt_getptd
FUNC 3f0e8 a7 0 _acrt_getptd_head
FUNC 3f1b8 b7 0 _acrt_getptd_noexit
FUNC 3f29c 39 0 _acrt_initialize_ptd
FUNC 3f2e4 22 0 _acrt_uninitialize_ptd
FUNC 3f310 7 0 _threadhandle
FUNC 3f318 7 0 _threadid
FUNC 3f320 16 0 __crt_fast_decode_pointer<void (*)(wchar_t const *,wchar_t const *,wchar_t const *,unsigned int,unsigned __int64)>(void (*const)(wchar_t const *,wchar_t const *,wchar_t const *,unsigned int,unsigned __int64))
FUNC 3f33c 1e 0 __crt_fast_encode_pointer<void (*)(wchar_t const *,wchar_t const *,wchar_t const *,unsigned int,unsigned __int64)>(void (*const)(wchar_t const *,wchar_t const *,wchar_t const *,unsigned int,unsigned __int64))
FUNC 3f364 7 0 __crt_state_management::dual_state_global<void (*)(wchar_t const *,wchar_t const *,wchar_t const *,unsigned int,unsigned __int64)>::initialize_from_array<void (*[1])(wchar_t const *,wchar_t const *,wchar_t const *,unsigned int,unsigned __int64)>(void (*(&)[1])(wchar_t const *,wchar_t const *,wchar_t const *,unsigned int,unsigned __int64))
FUNC 3f36c 6d 0 capture_current_context
FUNC 3f3f4 4 0 __crt_state_management::dual_state_global<void (*)(wchar_t const *,wchar_t const *,wchar_t const *,unsigned int,unsigned __int64)>::dangerous_get_state_array()
FUNC 3f3f8 4 0 __crt_state_management::dual_state_global<void (*)(wchar_t const *,wchar_t const *,wchar_t const *,unsigned int,unsigned __int64)>::value()
FUNC 3f3fc 15b 0 _acrt_call_reportfault
FUNC 3f5b0 8 0 _acrt_initialize_invalid_parameter_handler
FUNC 3f5bc 17 0 get_invalid_parameter_handler
FUNC 3f5d8 1a 0 get_thread_local_invalid_parameter_handler
FUNC 3f5f8 ae 0 invalid_parameter
FUNC 3f6d4 1e 0 invalid_parameter_noinfo
FUNC 3f6fc 2f 0 invalid_parameter_noinfo_noreturn
FUNC 3f738 47 0 invoke_watson
FUNC 3f790 34 0 set_invalid_parameter_handler
FUNC 3f7d4 25 0 set_thread_local_invalid_parameter_handler
FUNC 3f804 40 0 set_error_mode
FUNC 3f854 91 0 common_tcscat_s<wchar_t>
FUNC 3f90c 89 0 wcscat_s
FUNC 3f9b8 7c 0 common_tcscpy_s<wchar_t>
FUNC 3fa54 75 0 wcscpy_s
FUNC 3fae8 ec 0 common_tcsncpy_s<wchar_t>
FUNC 3fc10 f3 0 wcsncpy_s
FUNC 3fd40 a3 0 common_show_message_box<char>
FUNC 3fe0c a4 0 common_show_message_box<wchar_t>
FUNC 3fedc 11 0 __crt_char_traits<char>::message_box<std::nullptr_t,char const * const &,char const * const &,unsigned long>( ?? :: ?? ::Z::$TAEBQEBD1$$QEAK &&, ?? )
FUNC 3fef4 11 0 __crt_char_traits<wchar_t>::message_box<std::nullptr_t,wchar_t const * const &,wchar_t const * const &,unsigned long>( ?? :: ?? ::Z::$TAEBQEB_W1$$QEAK &&, ?? )
FUNC 3ff0c 11 0 __crt_char_traits<char>::message_box<HWND__ *,char const * const &,char const * const &,unsigned int const &>(HWND__ * &&,char const * const &,char const * const &,unsigned int const &)
FUNC 3ff24 11 0 __crt_char_traits<wchar_t>::message_box<HWND__ *,wchar_t const * const &,wchar_t const * const &,unsigned int const &>(HWND__ * &&,wchar_t const * const &,wchar_t const * const &,unsigned int const &)
FUNC 3ff3c 8 0 __crt_char_traits<char>::output_debug_string<char const * const &>(char const * const &)
FUNC 3ff48 a 0 __crt_char_traits<wchar_t>::output_debug_string<wchar_t const * const &>(wchar_t const * const &)
FUNC 3ff54 a3 0 _acrt_show_narrow_message_box
FUNC 40020 a4 0 _acrt_show_wide_message_box
FUNC 400f0 45 0 _acrt_errno_from_os_error
FUNC 40148 4e 0 _acrt_errno_map_os_error
FUNC 401ac 20 0 _doserrno
FUNC 401d4 20 0 errno
FUNC 401fc 3b 0 get_doserrno
FUNC 40248 3b 0 get_errno
FUNC 40294 3a 0 set_doserrno
FUNC 402dc 3a 0 set_errno
FUNC 40324 75 0 calloc_base
FUNC 403b8 8 0 select_heap
FUNC 403c4 3d 0 free_base
FUNC 40410 12 0 <lambda_12d38c6669c8ed1a74067c1f99674cc4>::<lambda_invoker_cdecl>
FUNC 40428 12 0 <lambda_c2303d2482d7c3675ea2e24c4cfb6115>::<lambda_invoker_cdecl>
FUNC 40440 209 0 common_expand_argv_wildcards<char>
FUNC 406cc 22f 0 common_expand_argv_wildcards<wchar_t>
FUNC 40988 19c 0 copy_and_add_argument_to_buffer<char>
FUNC 40b8c 19e 0 copy_and_add_argument_to_buffer<wchar_t>
FUNC 40d94 1aa 0 expand_argument_wildcards<char>
FUNC 40fa8 1b3 0 expand_argument_wildcards<wchar_t>
FUNC 411c8 2a 0 __crt_char_traits<char>::find_first_file_ex<char * const &,_FINDEX_INFO_LEVELS,_WIN32_FIND_DATAA *,_FINDEX_SEARCH_OPS,std::nullptr_t,int>(char * const &,_FINDEX_INFO_LEVELS &&,_WIN32_FIND_DATAA * &&,_FINDEX_SEARCH_OPS &&, ?? :: ?? ::Z::$T$$QEAH &&, ?? )
FUNC 411fc 2c 0 __crt_char_traits<wchar_t>::find_first_file_ex<wchar_t * const &,_FINDEX_INFO_LEVELS,_WIN32_FIND_DATAW *,_FINDEX_SEARCH_OPS,std::nullptr_t,int>(wchar_t * const &,_FINDEX_INFO_LEVELS &&,_WIN32_FIND_DATAW * &&,_FINDEX_SEARCH_OPS &&, ?? :: ?? ::Z::$T$$QEAH &&, ?? )
FUNC 41234 b 0 __crt_char_traits<char>::find_next_file<void *,_WIN32_FIND_DATAA *>(void * &&,_WIN32_FIND_DATAA * &&)
FUNC 41244 d 0 __crt_char_traits<wchar_t>::find_next_file<void *,_WIN32_FIND_DATAW *>(void * &&,_WIN32_FIND_DATAW * &&)
FUNC 41254 11 0 __crt_char_traits<char>::tcslen<char const * const &>(char const * const &)
FUNC 4126c 12 0 __crt_char_traits<wchar_t>::tcslen<wchar_t const * const &>(wchar_t const * const &)
FUNC 41284 11 0 __crt_char_traits<char>::tcsncpy_s<char * &,unsigned __int64,char * &,unsigned __int64 const &>(char * &,unsigned __int64 &&,char * &,unsigned __int64 const &)
FUNC 4129c 11 0 __crt_char_traits<wchar_t>::tcsncpy_s<wchar_t * &,unsigned __int64,wchar_t * &,unsigned __int64 const &>(wchar_t * &,unsigned __int64 &&,wchar_t * &,unsigned __int64 const &)
FUNC 412b4 11 0 __crt_char_traits<char>::tcsncpy_s<char *,unsigned __int64 const &,char const * const &,unsigned __int64 const &>(char * &&,unsigned __int64 const &,char const * const &,unsigned __int64 const &)
FUNC 412cc 11 0 __crt_char_traits<char>::tcsncpy_s<char *,unsigned __int64,char const * const &,unsigned __int64 const &>(char * &&,unsigned __int64 &&,char const * const &,unsigned __int64 const &)
FUNC 412e4 11 0 __crt_char_traits<wchar_t>::tcsncpy_s<wchar_t *,unsigned __int64 const &,wchar_t const * const &,unsigned __int64 const &>(wchar_t * &&,unsigned __int64 const &,wchar_t const * const &,unsigned __int64 const &)
FUNC 412fc 11 0 __crt_char_traits<wchar_t>::tcsncpy_s<wchar_t *,unsigned __int64,wchar_t const * const &,unsigned __int64 const &>(wchar_t * &&,unsigned __int64 &&,wchar_t const * const &,unsigned __int64 const &)
FUNC 41314 8 0 __crt_char_traits<char>::tcspbrk<char * &,char const (&)[3]>(char * &,char const (&)[3])
FUNC 41320 8 0 __crt_char_traits<wchar_t>::tcspbrk<wchar_t * &,wchar_t const (&)[3]>(wchar_t * &,wchar_t const (&)[3])
FUNC 4132c 7 0 __crt_unique_handle_t<__crt_findfile_traits>::__crt_unique_handle_t<__crt_findfile_traits>(void * const)
FUNC 41334 11 0 `anonymous namespace'::argument_list<char>::argument_list<char>
FUNC 4134c 11 0 `anonymous namespace'::argument_list<wchar_t>::argument_list<wchar_t>
FUNC 41364 22 0 __crt_unique_handle_t<__crt_findfile_traits>::~__crt_unique_handle_t<__crt_findfile_traits>()
FUNC 41390 3d 0 `anonymous namespace'::argument_list<char>::~argument_list<char>
FUNC 413dc 3d 0 `anonymous namespace'::argument_list<wchar_t>::~argument_list<wchar_t>
FUNC 41428 8 0 <lambda_12d38c6669c8ed1a74067c1f99674cc4>::operator int (__cdecl*)(void const * __ptr64,void const * __ptr64)
FUNC 41434 8 0 <lambda_c2303d2482d7c3675ea2e24c4cfb6115>::operator int (__cdecl*)(void const * __ptr64,void const * __ptr64)
FUNC 41440 12 0 <lambda_12d38c6669c8ed1a74067c1f99674cc4>::operator()
FUNC 41458 12 0 <lambda_c2303d2482d7c3675ea2e24c4cfb6115>::operator()
FUNC 41470 23 0 <lambda_cc44a96f04e0393500626269309609b4>::operator()
FUNC 4149c 22 0 <lambda_cfae5a0e6efa98e0d1aa03c4cec8f74e>::operator()
FUNC 414c8 de 0 `anonymous namespace'::argument_list<char>::append
FUNC 415e0 de 0 `anonymous namespace'::argument_list<wchar_t>::append
FUNC 416f8 4 0 `anonymous namespace'::argument_list<char>::begin
FUNC 416fc 4 0 `anonymous namespace'::argument_list<wchar_t>::begin
FUNC 41700 22 0 __crt_unique_handle_t<__crt_findfile_traits>::close()
FUNC 4172c 14 0 __crt_findfile_traits::close(void *)
FUNC 41748 5 0 `anonymous namespace'::argument_list<char>::end
FUNC 41750 5 0 `anonymous namespace'::argument_list<wchar_t>::end
FUNC 41758 c7 0 `anonymous namespace'::argument_list<char>::expand_if_necessary
FUNC 41850 c7 0 `anonymous namespace'::argument_list<wchar_t>::expand_if_necessary
FUNC 41948 4 0 __crt_unique_handle_t<__crt_findfile_traits>::get()
FUNC 4194c 5 0 __crt_findfile_traits::get_invalid_value()
FUNC 41954 5 0 previous_character
FUNC 4195c 5 0 previous_character
FUNC 41964 c 0 `anonymous namespace'::argument_list<char>::size
FUNC 41974 c 0 `anonymous namespace'::argument_list<wchar_t>::size
FUNC 41984 5 0 strpbrk(char * const,char const * const)
FUNC 4198c 5 0 wcspbrk(wchar_t *,wchar_t const *)
FUNC 41994 5 0 _acrt_expand_narrow_argv_wildcards
FUNC 4199c 5 0 _acrt_expand_wide_argv_wildcards
FUNC 419a4 7c 0 _acrt_GetModuleFileNameA
FUNC 41a40 1ba 0 __crt_seh_guarded_call<void>::operator()<<lambda_efdfa57d1f175319df784efa44bb7b81>,<lambda_5f0a4c1567f8adc6734073e5d1e1b35c> & __ptr64,<lambda_2e8a7d3640ea6ccb4c2413664c2db6fd> >
FUNC 41c68 26 0 __acrt_lock_and_call<<lambda_5f0a4c1567f8adc6734073e5d1e1b35c> >
FUNC 41c98 4 0 __crt_state_management::dual_state_global<unsigned char *>::initialize_from_array<unsigned char [1][256]>(unsigned char (&)[1][256])
FUNC 41c9c 4 0 __crt_state_management::dual_state_global<unsigned char *>::initialize_from_array<unsigned char [1][257]>(unsigned char (&)[1][257])
FUNC 41ca0 8 0 <lambda_2e8a7d3640ea6ccb4c2413664c2db6fd>::<lambda_2e8a7d3640ea6ccb4c2413664c2db6fd>
FUNC 41cac b 0 <lambda_5f0a4c1567f8adc6734073e5d1e1b35c>::<lambda_5f0a4c1567f8adc6734073e5d1e1b35c>
FUNC 41cbc 8 0 <lambda_efdfa57d1f175319df784efa44bb7b81>::<lambda_efdfa57d1f175319df784efa44bb7b81>
FUNC 41cc8 7 0 <lambda_2e8a7d3640ea6ccb4c2413664c2db6fd>::operator()
FUNC 41cd0 1a0 0 <lambda_5f0a4c1567f8adc6734073e5d1e1b35c>::operator()
FUNC 41ed8 7 0 <lambda_efdfa57d1f175319df784efa44bb7b81>::operator()
FUNC 41ee0 3a 0 CPtoLocaleName
FUNC 41f28 4 0 __crt_state_management::dual_state_global<unsigned char *>::dangerous_get_state_array()
FUNC 41f2c 4 0 __crt_state_management::dual_state_global<__crt_multibyte_data *>::dangerous_get_state_array()
FUNC 41f30 7d 0 getSystemCP
FUNC 41fcc 27 0 __crt_state_management::dual_state_global<__crt_multibyte_data *>::initialize(__crt_multibyte_data * const)
FUNC 41ffc 90 0 setSBCS
FUNC 420b0 1e3 0 setSBUpLow
FUNC 4230c 1c2 0 setmbcp_internal
FUNC 42540 b8 0 update_thread_multibyte_data_internal
FUNC 42628 4 0 __crt_state_management::dual_state_global<unsigned char *>::value()
FUNC 4262c 4 0 __crt_state_management::dual_state_global<__crt_multibyte_data *>::value()
FUNC 42630 60 0 _acrt_initialize_multibyte
FUNC 426a8 1c 0 _acrt_update_thread_multibyte_data
FUNC 426cc 8 0 _p__mbcasemap
FUNC 426d8 8 0 _p__mbctype
FUNC 426e4 3a 0 getmbcp
FUNC 4272c 25 0 setmbcp
FUNC 4275c 2b7 0 setmbcp_nolock
FUNC 42ac0 87 0 memcpy_s
FUNC 42b68 75 0 x_ismbbtype_l
FUNC 42bfc 15 0 ismbbalnum
FUNC 42c18 19 0 ismbbalnum_l
FUNC 42c38 15 0 ismbbalpha
FUNC 42c54 19 0 ismbbalpha_l
FUNC 42c74 1c 0 ismbbblank
FUNC 42c98 20 0 ismbbblank_l
FUNC 42cc0 15 0 ismbbgraph
FUNC 42cdc 19 0 ismbbgraph_l
FUNC 42cfc 12 0 ismbbkalnum
FUNC 42d14 16 0 ismbbkalnum_l
FUNC 42d30 7 0 ismbbkana
FUNC 42d38 65 0 ismbbkana_l
FUNC 42db8 12 0 ismbbkprint
FUNC 42dd0 16 0 ismbbkprint_l
FUNC 42dec 12 0 ismbbkpunct
FUNC 42e04 16 0 ismbbkpunct_l
FUNC 42e20 12 0 ismbblead
FUNC 42e38 16 0 ismbblead_l
FUNC 42e54 15 0 ismbbprint
FUNC 42e70 19 0 ismbbprint_l
FUNC 42e90 13 0 ismbbpunct
FUNC 42ea8 17 0 ismbbpunct_l
FUNC 42ec4 12 0 ismbbtrail
FUNC 42edc 16 0 ismbbtrail_l
FUNC 42ef8 55 0 filter_mbtowcs_flags
FUNC 42f64 5a 0 _acrt_MultiByteToWideChar
FUNC 42fd4 56 0 filter_wcstomb_flags
FUNC 43040 96 0 _acrt_WideCharToMultiByte
FUNC 430fc 7 0 __crt_unique_handle_t<`anonymous namespace'::environment_strings_traits>::__crt_unique_handle_t<`anonymous namespace'::environment_strings_traits>
FUNC 43104 21 0 __crt_unique_handle_t<`anonymous namespace'::environment_strings_traits>::~__crt_unique_handle_t<`anonymous namespace'::environment_strings_traits>
FUNC 43130 8 0 __crt_unique_handle_t<`anonymous namespace'::environment_strings_traits>::operator bool
FUNC 4313c 21 0 __crt_unique_handle_t<`anonymous namespace'::environment_strings_traits>::close
FUNC 43168 11 0 `anonymous namespace'::environment_strings_traits::close
FUNC 43180 23 0 find_end_of_double_null_terminated_sequence
FUNC 431ac 4 0 __crt_unique_handle_t<`anonymous namespace'::environment_strings_traits>::get
FUNC 431b0 3 0 `anonymous namespace'::environment_strings_traits::get_invalid_value
FUNC 431b4 8 0 __crt_unique_handle_t<`anonymous namespace'::environment_strings_traits>::is_valid
FUNC 431c0 101 0 _dcrt_get_narrow_environment_from_os
FUNC 43304 9f 0 _dcrt_get_wide_environment_from_os
FUNC 433cc 320 0 common_set_variable_in_environment_nolock<char>
FUNC 437b4 322 0 common_set_variable_in_environment_nolock<wchar_t>
FUNC 43ba0 eb 0 copy_environment<char>
FUNC 43cc8 f5 0 copy_environment<wchar_t>
FUNC 43dfc 25 0 ensure_current_environment_is_not_initial_environment_nolock<char>
FUNC 43e2c 25 0 ensure_current_environment_is_not_initial_environment_nolock<wchar_t>
FUNC 43e5c 81 0 find_in_environment_nolock<char>
FUNC 43f00 91 0 find_in_environment_nolock<wchar_t>
FUNC 43fb8 5 0 __crt_char_traits<char>::get_or_create_environment_nolock<>()
FUNC 43fc0 5 0 __crt_char_traits<wchar_t>::get_or_create_environment_nolock<>()
FUNC 43fc8 b 0 __crt_char_traits<char>::set_environment_variable<char * const &,char * const>(char * const &,char * const &&)
FUNC 43fd8 d 0 __crt_char_traits<wchar_t>::set_environment_variable<wchar_t * const &,wchar_t * const>(wchar_t * const &,wchar_t * const &&)
FUNC 43fe8 b 0 __crt_char_traits<char>::tcschr<char * const &,char>(char * const &,char &&)
FUNC 43ff8 b 0 __crt_char_traits<wchar_t>::tcschr<wchar_t * const &,char>(wchar_t * const &,char &&)
FUNC 44008 e 0 __crt_char_traits<char>::tcscpy_s<char * &,unsigned __int64 const &,char * &>(char * &,unsigned __int64 const &,char * &)
FUNC 4401c e 0 __crt_char_traits<wchar_t>::tcscpy_s<wchar_t * &,unsigned __int64 const &,wchar_t * &>(wchar_t * &,unsigned __int64 const &,wchar_t * &)
FUNC 44030 e 0 __crt_char_traits<char>::tcscpy_s<char * const &,unsigned __int64 const &,char * const &>(char * const &,unsigned __int64 const &,char * const &)
FUNC 44044 e 0 __crt_char_traits<wchar_t>::tcscpy_s<wchar_t * const &,unsigned __int64 const &,wchar_t * const &>(wchar_t * const &,unsigned __int64 const &,wchar_t * const &)
FUNC 44058 11 0 __crt_char_traits<char>::tcslen<char * const &>(char * const &)
FUNC 44070 12 0 __crt_char_traits<wchar_t>::tcslen<wchar_t * const &>(wchar_t * const &)
FUNC 44088 e 0 __crt_char_traits<char>::tcsnicoll<char const * const &,char * &,unsigned __int64 const &>(char const * const &,char * &,unsigned __int64 const &)
FUNC 4409c e 0 __crt_char_traits<wchar_t>::tcsnicoll<wchar_t const * const &,wchar_t * &,unsigned __int64 const &>(wchar_t const * const &,wchar_t * &,unsigned __int64 const &)
FUNC 440b0 8 0 get_environment
FUNC 440bc 8 0 get_environment
FUNC 440c8 8 0 get_initial_environment
FUNC 440d4 8 0 get_initial_environment
FUNC 440e0 8 0 get_other_environment
FUNC 440ec 8 0 get_other_environment
FUNC 440f8 5 0 strchr(char * const,int)
FUNC 44100 5 0 wcschr(wchar_t *,wchar_t)
FUNC 44108 5 0 _dcrt_set_variable_in_narrow_environment_nolock
FUNC 44110 5 0 _dcrt_set_variable_in_wide_environment_nolock
FUNC 44118 48 0 _acrt_initialize_locks
FUNC 44174 19 0 _acrt_lock
FUNC 44194 37 0 _acrt_uninitialize_locks
FUNC 441d8 19 0 _acrt_unlock
FUNC 441f8 1b 0 lock_locales
FUNC 4421c e 0 unlock_locales
FUNC 44230 4c 0 get_cached_win_policy<`__acrt_get_begin_thread_init_policy'::`2'::begin_thread_init_policy_properties>
FUNC 44290 4c 0 get_cached_win_policy<`__acrt_get_developer_information_policy'::`2'::developer_information_policy_properties>
FUNC 442f0 69 0 get_cached_win_policy<`__acrt_get_windowing_model_policy'::`2'::windowing_model_policy_properties>
FUNC 44374 38 0 get_win_policy<`__acrt_get_process_end_policy'::`2'::process_end_policy_properties>
FUNC 443bc 5 0 `__acrt_get_begin_thread_init_policy'::`2'::begin_thread_init_policy_properties::appmodel_get_policy
FUNC 443c4 5 0 `__acrt_get_developer_information_policy'::`2'::developer_information_policy_properties::appmodel_get_policy
FUNC 443cc 5 0 `__acrt_get_process_end_policy'::`2'::process_end_policy_properties::appmodel_get_policy
FUNC 443d4 5 0 `__acrt_get_windowing_model_policy'::`2'::windowing_model_policy_properties::appmodel_get_policy
FUNC 443dc b 0 `__acrt_get_begin_thread_init_policy'::`2'::begin_thread_init_policy_properties::appmodel_policy_to_policy_type
FUNC 443ec b 0 `__acrt_get_developer_information_policy'::`2'::developer_information_policy_properties::appmodel_policy_to_policy_type
FUNC 443fc 9 0 `__acrt_get_process_end_policy'::`2'::process_end_policy_properties::appmodel_policy_to_policy_type
FUNC 44408 27 0 `__acrt_get_windowing_model_policy'::`2'::windowing_model_policy_properties::appmodel_policy_to_policy_type
FUNC 44438 51 0 _acrt_get_begin_thread_init_policy
FUNC 444a0 51 0 _acrt_get_developer_information_policy
FUNC 44508 3c 0 _acrt_get_process_end_policy
FUNC 44554 6c 0 _acrt_get_windowing_model_policy
FUNC 445dc 8 0 __crt_internal_free_policy::operator()<__crt_lowio_handle_data>(__crt_lowio_handle_data const * const)
FUNC 445e8 7 0 __crt_unique_heap_ptr<__crt_lowio_handle_data,__crt_internal_free_policy>::__crt_unique_heap_ptr<__crt_lowio_handle_data,__crt_internal_free_policy>(__crt_lowio_handle_data * const)
FUNC 445f0 1b 0 __crt_unique_heap_ptr<__crt_lowio_handle_data,__crt_internal_free_policy>::~__crt_unique_heap_ptr<__crt_lowio_handle_data,__crt_internal_free_policy>()
FUNC 44614 8 0 __crt_unique_heap_ptr<__crt_lowio_handle_data,__crt_internal_free_policy>::operator bool()
FUNC 44620 8 0 __crt_unique_heap_ptr<__crt_lowio_handle_data,__crt_internal_free_policy>::detach()
FUNC 4462c 4 0 __crt_unique_heap_ptr<__crt_lowio_handle_data,__crt_internal_free_policy>::get()
FUNC 44630 8 0 __crt_unique_heap_ptr<__crt_lowio_handle_data,__crt_internal_free_policy>::is_valid()
FUNC 4463c 1b 0 __crt_unique_heap_ptr<__crt_lowio_handle_data,__crt_internal_free_policy>::release()
FUNC 44660 95 0 _acrt_lowio_create_handle_array
FUNC 4471c 50 0 _acrt_lowio_destroy_handle_array
FUNC 44780 a8 0 _acrt_lowio_ensure_fh_exists
FUNC 44854 23 0 _acrt_lowio_lock_fh
FUNC 44880 bf 0 _acrt_lowio_set_os_handle
FUNC 44970 23 0 _acrt_lowio_unlock_fh
FUNC 4499c 124 0 alloc_osfhnd
FUNC 44b0c ba 0 free_osfhnd
FUNC 44bf4 75 0 get_osfhandle
FUNC 44c88 101 0 open_osfhandle
FUNC 44dcc 8 0 _p__fmode
FUNC 44dd8 1b 0 get_std_handle_id
FUNC 44dfc eb 0 initialize_inherited_file_handles_nolock
FUNC 44f24 fb 0 initialize_stdio_handles_nolock
FUNC 45060 3b 0 _acrt_initialize_lowio
FUNC 450ac 40 0 _acrt_uninitialize_lowio
FUNC 450fc 8 0 __crt_internal_free_policy::operator()<unsigned short>(unsigned short const * const)
FUNC 45108 8 0 __crt_internal_free_policy::operator()<long>(long const * const)
FUNC 45114 7 0 __crt_unique_heap_ptr<unsigned short,__crt_internal_free_policy>::__crt_unique_heap_ptr<unsigned short,__crt_internal_free_policy>(unsigned short * const)
FUNC 4511c 7 0 __crt_unique_heap_ptr<long,__crt_internal_free_policy>::__crt_unique_heap_ptr<long,__crt_internal_free_policy>(long * const)
FUNC 45124 1b 0 __crt_unique_heap_ptr<unsigned short,__crt_internal_free_policy>::~__crt_unique_heap_ptr<unsigned short,__crt_internal_free_policy>()
FUNC 45148 1b 0 __crt_unique_heap_ptr<long,__crt_internal_free_policy>::~__crt_unique_heap_ptr<long,__crt_internal_free_policy>()
FUNC 4516c 8 0 __crt_unique_heap_ptr<unsigned short,__crt_internal_free_policy>::detach()
FUNC 45178 8 0 __crt_unique_heap_ptr<long,__crt_internal_free_policy>::detach()
FUNC 45184 1b 0 __crt_unique_heap_ptr<unsigned short,__crt_internal_free_policy>::release()
FUNC 451a8 1b 0 __crt_unique_heap_ptr<long,__crt_internal_free_policy>::release()
FUNC 451cc 2f 0 __lc_codepage_func
FUNC 45208 2f 0 __lc_collate_cp_func
FUNC 45244 32 0 __lc_locale_name_func
FUNC 45284 2f 0 __mb_cur_max_func
FUNC 452c0 10 0 __mb_cur_max_l_func
FUNC 452d4 65c 0 _acrt_locale_initialize_ctype
FUNC 45ac8 8 0 __crt_internal_free_policy::operator()<lconv>(lconv const * const)
FUNC 45ad4 7 0 __crt_unique_heap_ptr<lconv,__crt_internal_free_policy>::__crt_unique_heap_ptr<lconv,__crt_internal_free_policy>(lconv * const)
FUNC 45adc 1b 0 __crt_unique_heap_ptr<lconv,__crt_internal_free_policy>::~__crt_unique_heap_ptr<lconv,__crt_internal_free_policy>()
FUNC 45b00 8 0 __crt_unique_heap_ptr<lconv,__crt_internal_free_policy>::detach()
FUNC 45b0c 1b 0 __crt_unique_heap_ptr<lconv,__crt_internal_free_policy>::release()
FUNC 45b30 10a 0 _acrt_locale_free_monetary
FUNC 45c7c 533 0 _acrt_locale_initialize_monetary
FUNC 462fc 34 0 fix_grouping
FUNC 46340 6c 0 _acrt_locale_free_numeric
FUNC 463c8 2e8 0 _acrt_locale_initialize_numeric
FUNC 4676c 34 0 fix_grouping
FUNC 467b0 8 0 __crt_internal_free_policy::operator()<__crt_lc_time_data>(__crt_lc_time_data const * const)
FUNC 467bc a 0 free_crt_array<char,2>
FUNC 467c8 a 0 free_crt_array<char,7>
FUNC 467d4 a 0 free_crt_array<char,12>
FUNC 467e0 a 0 free_crt_array<wchar_t,2>
FUNC 467ec a 0 free_crt_array<wchar_t,7>
FUNC 467f8 a 0 free_crt_array<wchar_t,12>
FUNC 46804 7 0 __crt_unique_heap_ptr<__crt_lc_time_data,__crt_internal_free_policy>::__crt_unique_heap_ptr<__crt_lc_time_data,__crt_internal_free_policy>(__crt_lc_time_data * const)
FUNC 4680c 1b 0 __crt_unique_heap_ptr<__crt_lc_time_data,__crt_internal_free_policy>::~__crt_unique_heap_ptr<__crt_lc_time_data,__crt_internal_free_policy>()
FUNC 46830 8 0 __crt_unique_heap_ptr<__crt_lc_time_data,__crt_internal_free_policy>::operator bool()
FUNC 4683c 8 0 __crt_unique_heap_ptr<__crt_lc_time_data,__crt_internal_free_policy>::detach()
FUNC 46848 53 0 free_crt_array_internal
FUNC 468b0 4 0 __crt_unique_heap_ptr<__crt_lc_time_data,__crt_internal_free_policy>::get()
FUNC 468b4 77 0 get_or_create_lc_time
FUNC 46948 33e 0 initialize_lc_time
FUNC 46d58 8 0 __crt_unique_heap_ptr<__crt_lc_time_data,__crt_internal_free_policy>::is_valid()
FUNC 46d64 1b 0 __crt_unique_heap_ptr<__crt_lc_time_data,__crt_internal_free_policy>::release()
FUNC 46d88 108 0 _acrt_locale_free_time
FUNC 46ed4 9c 0 _acrt_locale_initialize_time
FUNC 46f98 30 0 _p___mb_cur_max
FUNC 46fd4 2f 0 _pctype_func
FUNC 47010 8 0 _pwctype_func
FUNC 4701c 5e 0 malloc_base
FUNC 47094 3f 0 wcscspn
FUNC 470e4 155 0 common_strnlen<1,unsigned short>
FUNC 47290 150 0 common_strnlen<0,unsigned char>
FUNC 47434 1c3 0 common_strnlen<0,unsigned short>
FUNC 47668 16 0 common_strnlen_c<1,unsigned short>
FUNC 47684 1d 0 common_strnlen_c<0,unsigned char>
FUNC 476a8 22 0 common_strnlen_c<0,unsigned short>
FUNC 476d4 96 0 common_strnlen_simd<1,1,unsigned short>
FUNC 47790 96 0 common_strnlen_simd<1,0,unsigned short>
FUNC 4784c 88 0 common_strnlen_simd<0,1,unsigned char>
FUNC 478f8 d0 0 common_strnlen_simd<0,1,unsigned short>
FUNC 479fc 85 0 common_strnlen_simd<0,0,unsigned char>
FUNC 47aa4 cd 0 common_strnlen_simd<0,0,unsigned short>
FUNC 47ba4 3 0 last_reached<1>
FUNC 47ba8 7 0 last_reached<0>
FUNC 47bb0 4 0 __crt_simd_cleanup_guard<1>::~__crt_simd_cleanup_guard<1>()
FUNC 47bb4 3 0 __crt_simd_cleanup_guard<0>::~__crt_simd_cleanup_guard<0>()
FUNC 47bb8 9 0 __crt_simd_traits<1,unsigned char>::compare_equals(__m256i,__m256i)
FUNC 47bc4 9 0 __crt_simd_traits<1,unsigned short>::compare_equals(__m256i,__m256i)
FUNC 47bd0 9 0 __crt_simd_traits<0,unsigned char>::compare_equals(__m128i,__m128i)
FUNC 47bdc 9 0 __crt_simd_traits<0,unsigned short>::compare_equals(__m128i,__m128i)
FUNC 47be8 c 0 __crt_simd_pack_traits<1>::compute_byte_mask(__m256i)
FUNC 47bf8 9 0 __crt_simd_pack_traits<0>::compute_byte_mask(__m128i)
FUNC 47c04 5 0 __crt_simd_pack_traits<1>::get_zero_pack()
FUNC 47c0c 4 0 __crt_simd_pack_traits<0>::get_zero_pack()
FUNC 47c10 150 0 strnlen
FUNC 47db4 129 0 wcslen
FUNC 47f28 1d6 0 wcsnlen
FUNC 48174 34 0 wcspbrk
FUNC 481b8 97 0 wcsicmp
FUNC 48274 fe 0 wcsicmp_l
FUNC 483b4 7 0 __crt_scoped_stack_ptr<wchar_t>::__crt_scoped_stack_ptr<wchar_t>(__crt_scoped_stack_ptr_tag<wchar_t>)
FUNC 483bc 7 0 __crt_scoped_stack_ptr_tag<wchar_t>::__crt_scoped_stack_ptr_tag<wchar_t>(wchar_t * const)
FUNC 483c4 22 0 __crt_scoped_stack_ptr<wchar_t>::~__crt_scoped_stack_ptr<wchar_t>()
FUNC 483f0 4 0 __crt_scoped_stack_ptr<wchar_t>::get()
FUNC 483f4 e 0 MallocaComputeSize
FUNC 48408 f 0 MarkAllocaS
FUNC 4841c 18d 0 _acrt_GetStringTypeA
FUNC 4860c 1f 0 freea_crt
FUNC 48634 8b 0 _acrt_add_locale_ref
FUNC 486e4 176 0 _acrt_free_locale
FUNC 488b8 27 0 _acrt_locale_add_lc_time_reference
FUNC 488e8 36 0 _acrt_locale_free_lc_time_if_unreferenced
FUNC 4892c 25 0 _acrt_locale_release_lc_time_reference
FUNC 4895c a8 0 _acrt_release_locale_ref
FUNC 48a30 6e 0 _acrt_update_thread_locale_data
FUNC 48abc 65 0 updatetlocinfoEx_nolock
FUNC 48b3c a5 0 GetLocaleNameFromDefault
FUNC 48c0c cd 0 GetLocaleNameFromLangCountry
FUNC 48d0c 9a 0 GetLocaleNameFromLanguage
FUNC 48dcc 2f 0 GetPrimaryLen
FUNC 48e08 3bb 0 LangCountryEnumProcEx
FUNC 492b4 ea 0 LanguageEnumProcEx
FUNC 493d8 c9 0 ProcessCodePage
FUNC 494d4 68 0 TestDefaultCountry
FUNC 49558 77 0 TestDefaultLanguage
FUNC 495ec 99 0 TranslateName
FUNC 496ac 278 0 _acrt_get_qualified_locale
FUNC 499c4 e8 0 CountryEnumProc
FUNC 49ae8 5f 0 GetLcidFromCountry
FUNC 49b60 21 0 GetLcidFromDefault
FUNC 49b8c cd 0 GetLcidFromLangCountry
FUNC 49c8c 98 0 GetLcidFromLanguage
FUNC 49d4c 26 0 GetPrimaryLen
FUNC 49d7c 248 0 LangCountryEnumProc
FUNC 4a058 108 0 LanguageEnumProc
FUNC 4a1a4 4e 0 LcidFromHexString
FUNC 4a208 ae 0 ProcessCodePage
FUNC 4a2e4 24 0 TestDefaultCountry
FUNC 4a314 ab 0 TestDefaultLanguage
FUNC 4a3ec 7f 0 TranslateName
FUNC 4a48c 27e 0 _acrt_get_qualified_locale_downlevel
FUNC 4a7ac 28 0 <lambda_795c6bd18aed400428efeb9a5f0e1479>::<lambda_invoker_cdecl>
FUNC 4a7e0 1c 0 __crt_fast_encoded_nullptr_t::operator<int > int (*)(wchar_t *,unsigned long,__int64)()
FUNC 4a804 9b 0 __crt_seh_guarded_call<int>::operator()<<lambda_bd00b5aa228bd7e7e5b2b5db5fd2933b>,<lambda_777d11615145f89ee95b9466d285deeb> & __ptr64,<lambda_6e5e48fbd24f9f8f81b203eb3d877683> >
FUNC 4a8c8 26 0 __acrt_lock_and_call<<lambda_777d11615145f89ee95b9466d285deeb> >
FUNC 4a8f8 16 0 __crt_fast_decode_pointer<int (*)(wchar_t *,unsigned long,__int64)>(int (*const)(wchar_t *,unsigned long,__int64))
FUNC 4a914 1e 0 __crt_fast_encode_pointer<int (*)(wchar_t *,unsigned long,__int64)>(int (*const)(wchar_t *,unsigned long,__int64))
FUNC 4a93c 8 0 <lambda_6e5e48fbd24f9f8f81b203eb3d877683>::<lambda_6e5e48fbd24f9f8f81b203eb3d877683>
FUNC 4a948 7 0 <lambda_777d11615145f89ee95b9466d285deeb>::<lambda_777d11615145f89ee95b9466d285deeb>
FUNC 4a950 8 0 <lambda_bd00b5aa228bd7e7e5b2b5db5fd2933b>::<lambda_bd00b5aa228bd7e7e5b2b5db5fd2933b>
FUNC 4a95c 8 0 <lambda_795c6bd18aed400428efeb9a5f0e1479>::operator int (__cdecl*)(wchar_t * __ptr64)
FUNC 4a968 7 0 <lambda_6e5e48fbd24f9f8f81b203eb3d877683>::operator()
FUNC 4a970 68 0 <lambda_777d11615145f89ee95b9466d285deeb>::operator()
FUNC 4a9f4 28 0 <lambda_795c6bd18aed400428efeb9a5f0e1479>::operator()
FUNC 4aa28 7 0 <lambda_bd00b5aa228bd7e7e5b2b5db5fd2933b>::operator()
FUNC 4aa30 62 0 enum_system_locales_ex_nolock
FUNC 4aaac 5 0 invalid_function_sentinel
FUNC 4aab4 1f 0 try_get_AppPolicyGetProcessTerminationMethod
FUNC 4aadc 1f 0 try_get_AppPolicyGetShowDeveloperDiagnostic
FUNC 4ab04 1f 0 try_get_AppPolicyGetThreadInitializationType
FUNC 4ab2c 1f 0 try_get_AppPolicyGetWindowingModel
FUNC 4ab54 1c 0 try_get_AreFileApisANSI
FUNC 4ab78 1f 0 try_get_CompareStringEx
FUNC 4aba0 1f 0 try_get_EnumSystemLocalesEx
FUNC 4abc8 1f 0 try_get_FlsAlloc
FUNC 4abf0 1f 0 try_get_FlsFree
FUNC 4ac18 1f 0 try_get_FlsGetValue
FUNC 4ac40 1f 0 try_get_FlsSetValue
FUNC 4ac68 1f 0 try_get_GetActiveWindow
FUNC 4ac90 1f 0 try_get_GetDateFormatEx
FUNC 4acb8 1f 0 try_get_GetEnabledXStateFeatures
FUNC 4ace0 1f 0 try_get_GetLastActivePopup
FUNC 4ad08 1f 0 try_get_GetLocaleInfoEx
FUNC 4ad30 1f 0 try_get_GetProcessWindowStation
FUNC 4ad58 1f 0 try_get_GetSystemTimePreciseAsFileTime
FUNC 4ad80 1f 0 try_get_GetTimeFormatEx
FUNC 4ada8 1f 0 try_get_GetUserDefaultLocaleName
FUNC 4add0 1f 0 try_get_GetUserObjectInformationW
FUNC 4adf8 1f 0 try_get_GetXStateFeaturesMask
FUNC 4ae20 1f 0 try_get_InitializeCriticalSectionEx
FUNC 4ae48 1f 0 try_get_IsValidLocaleName
FUNC 4ae70 1f 0 try_get_LCIDToLocaleName
FUNC 4ae98 1f 0 try_get_LCMapStringEx
FUNC 4aec0 1f 0 try_get_LocaleNameToLCID
FUNC 4aee8 1f 0 try_get_LocateXStateFeature
FUNC 4af10 1f 0 try_get_MessageBoxA
FUNC 4af38 1f 0 try_get_MessageBoxW
FUNC 4af60 1f 0 try_get_RoInitialize
FUNC 4af88 1f 0 try_get_RoUninitialize
FUNC 4afb0 1f 0 try_get_SetThreadStackGuarantee
FUNC 4afd8 1f 0 try_get_SystemFunction036
FUNC 4b000 119 0 try_get_first_available_module
FUNC 4b160 1d6 0 try_get_function
FUNC 4b3ac fe 0 try_get_module
FUNC 4b4ec 137 0 try_get_proc_address_from_first_available_module
FUNC 4b670 73 0 try_load_library_from_system_directory
FUNC 4b700 8 0 GetCurrentThreadEffectiveToken
FUNC 4b70c 4e 0 _acrt_AppPolicyGetProcessTerminationMethodInternal
FUNC 4b770 4e 0 _acrt_AppPolicyGetShowDeveloperDiagnosticInternal
FUNC 4b7d4 4e 0 _acrt_AppPolicyGetThreadInitializationTypeInternal
FUNC 4b838 4e 0 _acrt_AppPolicyGetWindowingModelInternal
FUNC 4b89c 3a 0 _acrt_AreFileApisANSI
FUNC 4b8e4 dc 0 _acrt_CompareStringEx
FUNC 4b9f8 95 0 _acrt_EnumSystemLocalesEx
FUNC 4bab4 48 0 _acrt_FlsAlloc
FUNC 4bb10 46 0 _acrt_FlsFree
FUNC 4bb68 46 0 _acrt_FlsGetValue
FUNC 4bbc0 51 0 _acrt_FlsSetValue
FUNC 4bc28 b6 0 _acrt_GetDateFormatEx
FUNC 4bd0c 39 0 _acrt_GetEnabledXStateFeatures
FUNC 4bd54 82 0 _acrt_GetLocaleInfoEx
FUNC 4bdf8 48 0 _acrt_GetSystemTimePreciseAsFileTime
FUNC 4be54 ab 0 _acrt_GetTimeFormatEx
FUNC 4bf2c 61 0 _acrt_GetUserDefaultLocaleName
FUNC 4bfa8 51 0 _acrt_GetXStateFeaturesMask
FUNC 4c010 61 0 _acrt_InitializeCriticalSectionEx
FUNC 4c08c 56 0 _acrt_IsValidLocaleName
FUNC 4c0f8 70 0 _acrt_LCIDToLocaleName
FUNC 4c184 dc 0 _acrt_LCMapStringEx
FUNC 4c298 50 0 _acrt_LocaleNameToLCID
FUNC 4c2fc 5f 0 _acrt_LocateXStateFeature
FUNC 4c374 71 0 _acrt_MessageBoxA
FUNC 4c404 71 0 _acrt_MessageBoxW
FUNC 4c494 40 0 _acrt_RoInitialize
FUNC 4c4e4 33 0 _acrt_RoUninitialize
FUNC 4c524 4f 0 _acrt_RtlGenRandom
FUNC 4c588 42 0 _acrt_SetThreadStackGuarantee
FUNC 4c5dc 6d 0 _acrt_can_show_message_box
FUNC 4c664 2e 0 _acrt_can_use_vista_locale_apis
FUNC 4c6a0 2e 0 _acrt_can_use_xstate_apis
FUNC 4c6dc 15a 0 _acrt_eagerly_load_locale_apis
FUNC 4c88c 7c 0 _acrt_get_parent_window
FUNC 4c928 45 0 _acrt_initialize_winapi_thunks
FUNC 4c980 c7 0 _acrt_is_interactive
FUNC 4ca78 41 0 _acrt_uninitialize_winapi_thunks
FUNC 4cacc 33 0 localeconv
FUNC 4cb0c 5 0 recalloc
FUNC 4cb14 95 0 recalloc_base
FUNC 4cbd0 8 0 _acrt_getheap
FUNC 4cbdc 1c 0 _acrt_initialize_heap
FUNC 4cc00 b 0 _acrt_uninitialize_heap
FUNC 4cc10 8 0 get_heap_handle
FUNC 4cc1c 80 0 _acrt_execute_initializers
FUNC 4ccbc 3c 0 _acrt_execute_uninitializers
FUNC 4cd08 1c 0 __crt_fast_encoded_nullptr_t::operator<int > int (*)(unsigned __int64)()
FUNC 4cd2c 16 0 __crt_fast_decode_pointer<int (*)(unsigned __int64)>(int (*const)(unsigned __int64))
FUNC 4cd48 1e 0 __crt_fast_encode_pointer<int (*)(unsigned __int64)>(int (*const)(unsigned __int64))
FUNC 4cd70 23 0 _set_new_handler(int)
FUNC 4cd9c 27 0 __crt_state_management::dual_state_global<int (*)(unsigned __int64)>::initialize(int (*const)(unsigned __int64))
FUNC 4cdcc 4 0 __crt_state_management::dual_state_global<int (*)(unsigned __int64)>::value()
FUNC 4cdd0 8 0 _acrt_initialize_new_handler
FUNC 4cddc 2f 0 callnewh
FUNC 4ce18 34 0 query_new_handler
FUNC 4ce5c 59 0 set_new_handler
FUNC 4cecc 1c 0 __crt_fast_encoded_nullptr_t::operator<void > void (*)(int)()
FUNC 4cef0 45 0 __crt_seh_guarded_call<void (__cdecl*)(int)>::operator()<<lambda_450d765d439847d4c735a33c368b5fc0>,<lambda_44731a7d0e6d81c3e6aa82d741081786> & __ptr64,<lambda_601a2a7da3b7a96e9554ac7215c4b07c> >
FUNC 4cf48 26 0 __acrt_lock_and_call<<lambda_44731a7d0e6d81c3e6aa82d741081786> >
FUNC 4cf78 16 0 __crt_fast_decode_pointer<void (*)(int)>(void (*const)(int))
FUNC 4cf94 1e 0 __crt_fast_encode_pointer<void (*)(int)>(void (*const)(int))
FUNC 4cfbc 8 0 <lambda_450d765d439847d4c735a33c368b5fc0>::<lambda_450d765d439847d4c735a33c368b5fc0>
FUNC 4cfc8 8 0 <lambda_601a2a7da3b7a96e9554ac7215c4b07c>::<lambda_601a2a7da3b7a96e9554ac7215c4b07c>
FUNC 4cfd4 17 0 <lambda_44731a7d0e6d81c3e6aa82d741081786>::operator()
FUNC 4cff0 7 0 <lambda_450d765d439847d4c735a33c368b5fc0>::operator()
FUNC 4cff8 7 0 <lambda_601a2a7da3b7a96e9554ac7215c4b07c>::operator()
FUNC 4d000 a7 0 ctrlevent_capture
FUNC 4d0d0 3c 0 get_global_action_nolock
FUNC 4d11c 27 0 __crt_state_management::dual_state_global<void (*)(int)>::initialize(void (*const)(int))
FUNC 4d14c 13 0 is_console_signal
FUNC 4d164 e 0 is_unsupported_signal
FUNC 4d178 25 0 siglookup
FUNC 4d1a8 27 0 signal_failed
FUNC 4d1d8 4 0 __crt_state_management::dual_state_global<void (*)(int)>::value()
FUNC 4d1dc 2e 0 _acrt_get_sigabrt_handler
FUNC 4d218 1d 0 _acrt_initialize_signal_handlers
FUNC 4d23c 12 0 _fpecode
FUNC 4d254 12 0 _pxcptinfoptrs
FUNC 4d26c 280 0 raise
FUNC 4d58c 1da 0 signal
FUNC 4d7dc 9a 0 __crt_seh_guarded_call<void>::operator()<<lambda_842d9ff0dc9ef11c61343bbaebe7f885>,<lambda_c5860995281e5c4ce005b3de8f5874ee> & __ptr64,<lambda_d90129c13df834fdcbf8d2b88dafcf2d> >
FUNC 4d89c e0 0 __crt_seh_guarded_call<void>::operator()<<lambda_886d6c58226a84441f68b9f2b8217b83>,<lambda_ab61a845afdef5b7c387490eaf3616ee> & __ptr64,<lambda_f7f22ab5edc0698d5f6905b0d3f44752> >
FUNC 4d9b4 40 0 __crt_seh_guarded_call<int>::operator()<<lambda_c376a267cfb53b6959b3b692ec76b120>,<lambda_9a32fed5bf61b6b509b2d3f6003082a1> & __ptr64,<lambda_572fbb9fa0ab338edf41edfd4b5fcc8d> >
FUNC 4da04 26 0 __acrt_lock_and_call<<lambda_ab61a845afdef5b7c387490eaf3616ee> >
FUNC 4da34 28 0 __acrt_lock_stream_and_call<<lambda_9a32fed5bf61b6b509b2d3f6003082a1> >
FUNC 4da68 28 0 __acrt_lock_stream_and_call<<lambda_c5860995281e5c4ce005b3de8f5874ee> >
FUNC 4da9c a 0 <lambda_572fbb9fa0ab338edf41edfd4b5fcc8d>::<lambda_572fbb9fa0ab338edf41edfd4b5fcc8d>
FUNC 4daa8 a 0 <lambda_842d9ff0dc9ef11c61343bbaebe7f885>::<lambda_842d9ff0dc9ef11c61343bbaebe7f885>
FUNC 4dab4 8 0 <lambda_886d6c58226a84441f68b9f2b8217b83>::<lambda_886d6c58226a84441f68b9f2b8217b83>
FUNC 4dac0 7 0 <lambda_9a32fed5bf61b6b509b2d3f6003082a1>::<lambda_9a32fed5bf61b6b509b2d3f6003082a1>
FUNC 4dac8 f 0 <lambda_ab61a845afdef5b7c387490eaf3616ee>::<lambda_ab61a845afdef5b7c387490eaf3616ee>
FUNC 4dadc a 0 <lambda_c376a267cfb53b6959b3b692ec76b120>::<lambda_c376a267cfb53b6959b3b692ec76b120>
FUNC 4dae8 18 0 <lambda_c5860995281e5c4ce005b3de8f5874ee>::<lambda_c5860995281e5c4ce005b3de8f5874ee>
FUNC 4db08 a 0 <lambda_d90129c13df834fdcbf8d2b88dafcf2d>::<lambda_d90129c13df834fdcbf8d2b88dafcf2d>
FUNC 4db14 8 0 <lambda_f7f22ab5edc0698d5f6905b0d3f44752>::<lambda_f7f22ab5edc0698d5f6905b0d3f44752>
FUNC 4db20 7 0 __crt_stdio_stream::__crt_stdio_stream(__crt_stdio_stream_data * const)
FUNC 4db28 8 0 <lambda_572fbb9fa0ab338edf41edfd4b5fcc8d>::operator()
FUNC 4db34 8 0 <lambda_842d9ff0dc9ef11c61343bbaebe7f885>::operator()
FUNC 4db40 7 0 <lambda_886d6c58226a84441f68b9f2b8217b83>::operator()
FUNC 4db48 b 0 <lambda_9a32fed5bf61b6b509b2d3f6003082a1>::operator()
FUNC 4db58 ae 0 <lambda_ab61a845afdef5b7c387490eaf3616ee>::operator()
FUNC 4dc34 8 0 <lambda_c376a267cfb53b6959b3b692ec76b120>::operator()
FUNC 4dc40 78 0 <lambda_c5860995281e5c4ce005b3de8f5874ee>::operator()
FUNC 4dcd8 8 0 <lambda_d90129c13df834fdcbf8d2b88dafcf2d>::operator()
FUNC 4dce4 7 0 <lambda_f7f22ab5edc0698d5f6905b0d3f44752>::operator()
FUNC 4dcec c 0 __acrt_stdio_reset_buffer(__crt_stdio_stream)
FUNC 4dcfc 5d 0 common_flush_all
FUNC 4dd70 32 0 common_flush_all_should_try_to_flush_stream
FUNC 4ddb0 e 0 __crt_stdio_stream::has_all_of(long)
FUNC 4ddc4 9 0 is_stream_allocated
FUNC 4ddd0 12 0 is_stream_flushable
FUNC 4dde8 19 0 is_stream_flushable_or_commitable
FUNC 4de08 1e 0 __crt_stdio_stream::set_flags(long)
FUNC 4de30 25 0 __crt_stdio_stream::unset_flags(long)
FUNC 4de60 7a 0 _acrt_stdio_flush_nolock
FUNC 4def8 4b 0 fflush_nolock
FUNC 4df58 7 0 flushall
FUNC 4df60 66 0 fflush
FUNC 4dfe0 8 0 __crt_internal_free_policy::operator()<__crt_stdio_stream_data *>(__crt_stdio_stream_data * const * const)
FUNC 4dfec 7 0 __crt_unique_heap_ptr<__crt_stdio_stream_data *,__crt_internal_free_policy>::__crt_unique_heap_ptr<__crt_stdio_stream_data *,__crt_internal_free_policy>(__crt_stdio_stream_data * * const)
FUNC 4dff4 1b 0 __crt_unique_heap_ptr<__crt_stdio_stream_data *,__crt_internal_free_policy>::~__crt_unique_heap_ptr<__crt_stdio_stream_data *,__crt_internal_free_policy>()
FUNC 4e018 8 0 __crt_unique_heap_ptr<__crt_stdio_stream_data *,__crt_internal_free_policy>::detach()
FUNC 4e024 1b 0 __crt_unique_heap_ptr<__crt_stdio_stream_data *,__crt_internal_free_policy>::release()
FUNC 4e048 11f 0 _acrt_initialize_stdio
FUNC 4e1b0 11 0 _acrt_iob_func
FUNC 4e1c8 5b 0 _acrt_uninitialize_stdio
FUNC 4e23c 47 0 get_stream_buffer_pointers
FUNC 4e294 b 0 lock_file
FUNC 4e2a4 b 0 unlock_file
FUNC 4e2b4 10 0 __crt_stdio_stream::has_any_buffer()
FUNC 4e2c8 c 0 __crt_stdio_stream::has_any_of(long)
FUNC 4e2d8 c 0 __crt_stdio_stream::has_temporary_buffer()
FUNC 4e2e8 cf 0 _acrt_stdio_begin_temporary_buffering_nolock
FUNC 4e3ec 39 0 _acrt_stdio_end_temporary_buffering_nolock
FUNC 4e434 13 0 fast_check
FUNC 4e44c c 0 _isascii
FUNC 4e45c 28 0 _iscsym
FUNC 4e490 25 0 _iscsymf
FUNC 4e4c0 6 0 _toascii
FUNC 4e4c8 5d 0 isalnum_l
FUNC 4e53c 5d 0 isalpha_l
FUNC 4e5b0 68 0 isblank_l
FUNC 4e634 5a 0 iscntrl_l
FUNC 4e6a4 6c 0 iscsym_l
FUNC 4e72c 6c 0 iscsymf_l
FUNC 4e7b4 5a 0 isdigit_l
FUNC 4e824 5d 0 isgraph_l
FUNC 4e898 5a 0 islower_l
FUNC 4e908 5d 0 isprint_l
FUNC 4e97c 5a 0 ispunct_l
FUNC 4e9ec 5a 0 isspace_l
FUNC 4ea5c 5a 0 isupper_l
FUNC 4eacc 5d 0 isxdigit_l
FUNC 4eb40 7e 0 isalnum
FUNC 4ebe0 7e 0 isalpha
FUNC 4ec80 94 0 isblank
FUNC 4ed3c 78 0 iscntrl
FUNC 4edd4 78 0 isdigit
FUNC 4ee6c 7e 0 isgraph
FUNC 4ef0c 78 0 islower
FUNC 4efa4 7e 0 isprint
FUNC 4f044 78 0 ispunct
FUNC 4f0dc 78 0 isspace
FUNC 4f174 78 0 isupper
FUNC 4f20c 7e 0 isxdigit
FUNC 4f2ac 13d 0 common_tox_l<&internal_islower_l,&internal_map_upper>
FUNC 4f438 13d 0 common_tox_l<&internal_isupper_l,&internal_map_lower>
FUNC 4f5c4 4e 0 internal_islower_l
FUNC 4f628 4e 0 internal_isupper_l
FUNC 4f68c 12 0 internal_map_lower
FUNC 4f6a4 12 0 internal_map_upper
FUNC 4f6bc 4 0 tolower
FUNC 4f6c0 13e 0 tolower_l
FUNC 4f850 4 0 toupper
FUNC 4f854 13e 0 toupper_l
FUNC 4f9e4 2a 0 tolower
FUNC 4fa18 2a 0 toupper
FUNC 4fa4c 13 0 __crt_strtox::make_c_string_character_source<char,char * *>(char const * const,char * * const)
FUNC 4fa64 13 0 __crt_strtox::make_c_string_character_source<wchar_t,wchar_t * *>(wchar_t const * const,wchar_t * * const)
FUNC 4fa7c 2e 0 __crt_strtox::parse_integer_from_string<long,char,char * *>(char const * const,char * * const,int,__crt_locale_pointers * const)
FUNC 4fab8 2e 0 __crt_strtox::parse_integer_from_string<long,wchar_t,wchar_t * *>(wchar_t const * const,wchar_t * * const,int,__crt_locale_pointers * const)
FUNC 4faf4 2e 0 __crt_strtox::parse_integer_from_string<unsigned long,char,char * *>(char const * const,char * * const,int,__crt_locale_pointers * const)
FUNC 4fb30 2e 0 __crt_strtox::parse_integer_from_string<unsigned long,wchar_t,wchar_t * *>(wchar_t const * const,wchar_t * * const,int,__crt_locale_pointers * const)
FUNC 4fb6c 2e 0 __crt_strtox::parse_integer_from_string<__int64,char,char * *>(char const * const,char * * const,int,__crt_locale_pointers * const)
FUNC 4fba8 2e 0 __crt_strtox::parse_integer_from_string<__int64,wchar_t,wchar_t * *>(wchar_t const * const,wchar_t * * const,int,__crt_locale_pointers * const)
FUNC 4fbe4 2e 0 __crt_strtox::parse_integer_from_string<unsigned __int64,char,char * *>(char const * const,char * * const,int,__crt_locale_pointers * const)
FUNC 4fc20 2e 0 __crt_strtox::parse_integer_from_string<unsigned __int64,wchar_t,wchar_t * *>(wchar_t const * const,wchar_t * * const,int,__crt_locale_pointers * const)
FUNC 4fc5c 2a 0 strtoi64
FUNC 4fc90 2e 0 strtoi64_l
FUNC 4fccc 2e 0 strtoimax_l
FUNC 4fd08 2e 0 strtol_l
FUNC 4fd44 2e 0 strtoll_l
FUNC 4fd80 2a 0 strtoui64
FUNC 4fdb4 2e 0 strtoui64_l
FUNC 4fdf0 2e 0 strtoul_l
FUNC 4fe2c 2e 0 strtoull_l
FUNC 4fe68 2e 0 strtoumax_l
FUNC 4fea4 2a 0 wcstoi64
FUNC 4fed8 2e 0 wcstoi64_l
FUNC 4ff14 2e 0 wcstoimax_l
FUNC 4ff50 2e 0 wcstol_l
FUNC 4ff8c 2e 0 wcstoll_l
FUNC 4ffc8 2a 0 wcstoui64
FUNC 4fffc 2e 0 wcstoui64_l
FUNC 50038 2e 0 wcstoul_l
FUNC 50074 2e 0 wcstoull_l
FUNC 500b0 2e 0 wcstoumax_l
FUNC 500ec 2a 0 strtoimax
FUNC 50120 2a 0 strtol
FUNC 50154 2a 0 strtoll
FUNC 50188 2a 0 strtoul
FUNC 501bc 2a 0 strtoull
FUNC 501f0 2a 0 strtoumax
FUNC 50224 2a 0 wcstoimax
FUNC 50258 2a 0 wcstol
FUNC 5028c 2a 0 wcstoll
FUNC 502c0 2a 0 wcstoul
FUNC 502f4 2a 0 wcstoull
FUNC 50328 2a 0 wcstoumax
FUNC 5035c 17c 0 mbtowc_l
FUNC 50538 8 0 mbtowc
FUNC 50544 72 0 wctomb_l
FUNC 505d4 183 0 wctomb_s_l
FUNC 507b8 4d 0 wctomb
FUNC 50818 14 0 wctomb_s
FUNC 50834 31 0 _acrt_update_locale_info
FUNC 50874 31 0 _acrt_update_multibyte_info
FUNC 508b4 5b 0 __acrt_fp_classify(double const &)
FUNC 50928 8 0 __acrt_fp_is_negative(double const &)
FUNC 50934 365 0 fp_format_a
FUNC 50d74 db 0 fp_format_e
FUNC 50e88 1d2 0 fp_format_e_internal
FUNC 510d0 a6 0 fp_format_f
FUNC 511a0 144 0 fp_format_f_internal
FUNC 51338 132 0 fp_format_g
FUNC 514b8 13f 0 fp_format_nan_or_infinity
FUNC 51648 30 0 shift_bytes
FUNC 51684 5 0 strrchr(char * const,int)
FUNC 5168c 288 0 _acrt_fp_format
FUNC 519b8 1c 0 fputwc_binary_nolock
FUNC 519dc 178 0 fputwc_nolock
FUNC 51bb4 23 0 fputwchar
FUNC 51be0 5 0 putwc_nolock
FUNC 51be8 5e 0 fputwc
FUNC 51c60 5 0 putwc
FUNC 51c68 5 0 putwchar
FUNC 51c70 7 0 __crt_stdio_stream::lowio_handle()
FUNC 51c78 26 0 fileno
FUNC 51ca8 16 0 fputc_nolock
FUNC 51cc4 21 0 fputchar
FUNC 51cf0 16 0 putc_nolock
FUNC 51d0c 114 0 fputc
FUNC 51e68 5 0 putc
FUNC 51e70 5 0 putchar
FUNC 51e78 18 0 get_printf_count_output
FUNC 51e98 27 0 set_printf_count_output
FUNC 51ec8 5 0 iswctype_l
FUNC 51ed0 6f 0 iswctype
FUNC 51f5c 22 0 isctype
FUNC 51f88 113 0 isctype_l
FUNC 520e0 9c 0 _acrt_OutputDebugStringA
FUNC 521b0 bc 0 shortsort
FUNC 522a0 29 0 swap
FUNC 522e0 3ad 0 qsort
FUNC 52778 d3 0 common_tcsncpy_s<char>
FUNC 52880 e5 0 strncpy_s
FUNC 529a0 9e 0 fallbackMethod
FUNC 52a70 3e0 0 strpbrk
FUNC 52f48 107 0 __acrt_convert_wcs_mbs<char,wchar_t,unsigned __int64 ,__crt_win32_buffer_internal_dynamic_resizing>(char const * const,__crt_win32_buffer<wchar_t,__crt_win32_buffer_internal_dynamic_resizing> &,unsigned __int64 (&)(wchar_t *,char const *,unsigned __int64,__crt_locale_pointers *),__crt_locale_pointers *)
FUNC 53090 f 0 __acrt_mbs_to_wcs<__crt_win32_buffer_internal_dynamic_resizing>(char const * const,__crt_win32_buffer<wchar_t,__crt_win32_buffer_internal_dynamic_resizing> &,__crt_locale_pointers *)
FUNC 530a4 1c 0 __crt_win32_buffer<wchar_t,__crt_win32_buffer_internal_dynamic_resizing>::__crt_win32_buffer<wchar_t,__crt_win32_buffer_internal_dynamic_resizing>()
FUNC 530c8 22 0 __crt_win32_buffer<wchar_t,__crt_win32_buffer_internal_dynamic_resizing>::~__crt_win32_buffer<wchar_t,__crt_win32_buffer_internal_dynamic_resizing>()
FUNC 530f4 22 0 __crt_win32_buffer<wchar_t,__crt_win32_buffer_internal_dynamic_resizing>::_deallocate()
FUNC 53120 5c 0 __crt_win32_buffer<wchar_t,__crt_win32_buffer_internal_dynamic_resizing>::allocate(unsigned __int64)
FUNC 53194 24 0 __crt_win32_buffer_internal_dynamic_resizing::allocate(void * * const,unsigned __int64,__crt_win32_buffer_empty_debug_info const &)
FUNC 531c4 5 0 __crt_win32_buffer<wchar_t,__crt_win32_buffer_internal_dynamic_resizing>::capacity()
FUNC 531cc 5 0 __crt_win32_buffer<wchar_t,__crt_win32_buffer_internal_dynamic_resizing>::data()
FUNC 531d4 5 0 __crt_win32_buffer_internal_dynamic_resizing::deallocate(void * const,__crt_win32_buffer_empty_debug_info const &)
FUNC 531dc 4 0 __crt_win32_buffer<wchar_t,__crt_win32_buffer_internal_dynamic_resizing>::debug_info()
FUNC 531e0 31 0 __crt_win32_buffer<wchar_t,__crt_win32_buffer_internal_dynamic_resizing>::set_to_nullptr()
FUNC 53220 5 0 __crt_win32_buffer<wchar_t,__crt_win32_buffer_internal_dynamic_resizing>::size(unsigned __int64)
FUNC 53228 a4 0 _acrt_FindFirstFileExA
FUNC 532f8 21 0 __crt_win32_buffer<char,__crt_win32_buffer_no_resizing>::__crt_win32_buffer<char,__crt_win32_buffer_no_resizing><260>(char (&)[260])
FUNC 53324 21 0 __crt_win32_buffer<char,__crt_win32_buffer_no_resizing>::__crt_win32_buffer<char,__crt_win32_buffer_no_resizing><14>(char (&)[14])
FUNC 53350 ca 0 __acrt_convert_wcs_mbs<wchar_t,char,unsigned __int64 ,__crt_win32_buffer_no_resizing>(wchar_t const * const,__crt_win32_buffer<char,__crt_win32_buffer_no_resizing> &,unsigned __int64 (&)(char *,wchar_t const *,unsigned __int64,__crt_locale_pointers *),__crt_locale_pointers *)
FUNC 5344c f 0 __acrt_wcs_to_mbs<__crt_win32_buffer_no_resizing>(wchar_t const * const,__crt_win32_buffer<char,__crt_win32_buffer_no_resizing> &,__crt_locale_pointers *)
FUNC 53460 b 0 __crt_win32_buffer<char,__crt_win32_buffer_no_resizing>::~__crt_win32_buffer<char,__crt_win32_buffer_no_resizing>()
FUNC 53470 b 0 __crt_win32_buffer<char,__crt_win32_buffer_no_resizing>::_deallocate()
FUNC 53480 30 0 __crt_win32_buffer<char,__crt_win32_buffer_no_resizing>::allocate(unsigned __int64)
FUNC 534bc 17 0 __crt_win32_buffer_no_resizing::allocate(void * * const,unsigned __int64,__crt_win32_buffer_empty_debug_info const &)
FUNC 534d8 5 0 __crt_win32_buffer<char,__crt_win32_buffer_no_resizing>::capacity()
FUNC 534e0 5 0 __crt_win32_buffer<char,__crt_win32_buffer_no_resizing>::data()
FUNC 534e8 3 0 __crt_win32_buffer_no_resizing::deallocate(void * const,__crt_win32_buffer_empty_debug_info const &)
FUNC 534ec 4 0 __crt_win32_buffer<char,__crt_win32_buffer_no_resizing>::debug_info()
FUNC 534f0 17 0 __crt_win32_buffer<char,__crt_win32_buffer_no_resizing>::set_to_nullptr()
FUNC 5350c 5 0 __crt_win32_buffer<char,__crt_win32_buffer_no_resizing>::size(unsigned __int64)
FUNC 53514 132 0 _acrt_FindNextFileA
FUNC 53694 8 0 mbsdec
FUNC 536a0 94 0 mbsdec_l
FUNC 5375c 202 0 _mbstowcs_l_helper
FUNC 539e0 5 0 mbstowcs_l
FUNC 539e8 133 0 mbstowcs_s_l
FUNC 53b68 1a 0 mbstowcs
FUNC 53b88 1e 0 mbstowcs_s
FUNC 53bb0 8 0 __crt_scoped_stack_ptr<wchar_t>::operator bool()
FUNC 53bbc 315 0 __acrt_LCMapStringA_stat
FUNC 53f98 96 0 _acrt_LCMapStringA
FUNC 54054 17 0 initialize_multibyte
FUNC 54070 ad 0 wcsnicoll
FUNC 54148 144 0 wcsnicoll_l
FUNC 542e0 15 0 strnicoll
FUNC 542fc 100 0 strnicoll_l
FUNC 5443c ff 0 _acrt_SetEnvironmentVariableA
FUNC 5457c 179 0 InternalGetLocaleInfoA
FUNC 54754 1c8 0 _acrt_GetLocaleInfoA
FUNC 54990 c4 0 towlower_l
FUNC 54a88 7 0 towlower
FUNC 54a90 c4 0 common_xtox<unsigned long,char>
FUNC 54b88 c1 0 common_xtox<unsigned long,wchar_t>
FUNC 54c7c ae 0 common_xtox<unsigned __int64,char>
FUNC 54d58 c5 0 common_xtox<unsigned __int64,wchar_t>
FUNC 54e50 67 0 common_xtox_s<unsigned long,char>
FUNC 54ed0 69 0 common_xtox_s<unsigned long,wchar_t>
FUNC 54f54 67 0 common_xtox_s<unsigned __int64,char>
FUNC 54fd4 69 0 common_xtox_s<unsigned __int64,wchar_t>
FUNC 55058 31 0 i64toa
FUNC 55098 21 0 i64toa_s
FUNC 550c4 31 0 i64tow
FUNC 55104 21 0 i64tow_s
FUNC 55130 30 0 itoa
FUNC 5516c 20 0 itoa_s
FUNC 55194 30 0 itow
FUNC 551d0 20 0 itow_s
FUNC 551f8 30 0 ltoa
FUNC 55234 20 0 ltoa_s
FUNC 5525c 30 0 ltow
FUNC 55298 20 0 ltow_s
FUNC 552c0 23 0 ui64toa
FUNC 552ec 13 0 ui64toa_s
FUNC 55304 23 0 ui64tow
FUNC 55330 13 0 ui64tow_s
FUNC 55348 23 0 ultoa
FUNC 55374 13 0 ultoa_s
FUNC 5538c 23 0 ultow
FUNC 553b8 13 0 ultow_s
FUNC 553d0 aa 0 wcsnicmp
FUNC 554a4 126 0 wcsnicmp_l
FUNC 55614 35 0 wcscmp
FUNC 55658 4b 0 GetTableIndexFromLcid
FUNC 556b8 e8 0 GetTableIndexFromLocaleName
FUNC 557dc 68 0 __wcsnicmp_ascii
FUNC 55860 e8 0 _acrt_DownlevelLCIDToLocaleName
FUNC 55984 31 0 _acrt_DownlevelLocaleNameToLCID
FUNC 559c4 5 0 msize
FUNC 559cc 39 0 msize_base
FUNC 55a14 7a 0 realloc_base
FUNC 55aac 8c 0 __crt_seh_guarded_call<int>::operator()<<lambda_a37b2b86f63e897a80ea819b0eb08c01>,<lambda_38ce7e780aa69e748d6df282ebc68efe> & __ptr64,<lambda_99fb1378e971ab6e7edea83e3a7a83a2> >
FUNC 55b5c 26 0 __acrt_lowio_lock_fh_and_call<<lambda_38ce7e780aa69e748d6df282ebc68efe> >
FUNC 55b8c 7 0 <lambda_38ce7e780aa69e748d6df282ebc68efe>::<lambda_38ce7e780aa69e748d6df282ebc68efe>
FUNC 55b94 8 0 <lambda_99fb1378e971ab6e7edea83e3a7a83a2>::<lambda_99fb1378e971ab6e7edea83e3a7a83a2>
FUNC 55ba0 8 0 <lambda_a37b2b86f63e897a80ea819b0eb08c01>::<lambda_a37b2b86f63e897a80ea819b0eb08c01>
FUNC 55bac 69 0 <lambda_38ce7e780aa69e748d6df282ebc68efe>::operator()
FUNC 55c30 7 0 <lambda_99fb1378e971ab6e7edea83e3a7a83a2>::operator()
FUNC 55c38 7 0 <lambda_a37b2b86f63e897a80ea819b0eb08c01>::operator()
FUNC 55c40 91 0 commit
FUNC 55cf8 6c 0 write_binary_nolock
FUNC 55d80 215 0 write_double_translated_ansi_nolock
FUNC 5601c 95 0 write_double_translated_unicode_nolock
FUNC 560d8 8d 0 write_requires_double_translation_nolock
FUNC 56188 102 0 write_text_ansi_nolock
FUNC 562cc 119 0 write_text_utf16le_nolock
FUNC 5642c 170 0 write_text_utf8_nolock
FUNC 565f8 e9 0 write
FUNC 5671c 2e0 0 write_nolock
FUNC 56ab4 c 0 __crt_stdio_stream::is_in_use()
FUNC 56ac4 b1 0 fcloseall
FUNC 56ba4 c 0 __crt_stdio_stream::has_crt_buffer()
FUNC 56bb4 40 0 _acrt_stdio_free_buffer_nolock
FUNC 56c04 5f 0 isatty
FUNC 56c7c 2c 0 _iswcsym
FUNC 56cb4 2c 0 _iswcsymf
FUNC 56cec 3f 0 isleadbyte_l
FUNC 56d3c a 0 iswalnum_l
FUNC 56d48 a 0 iswalpha_l
FUNC 56d54 16 0 iswblank_l
FUNC 56d70 a 0 iswcntrl_l
FUNC 56d7c 2c 0 iswcsym_l
FUNC 56db4 2c 0 iswcsymf_l
FUNC 56dec a 0 iswdigit_l
FUNC 56df8 a 0 iswgraph_l
FUNC 56e04 a 0 iswlower_l
FUNC 56e10 a 0 iswprint_l
FUNC 56e1c a 0 iswpunct_l
FUNC 56e28 a 0 iswspace_l
FUNC 56e34 a 0 iswupper_l
FUNC 56e40 a 0 iswxdigit_l
FUNC 56e4c 41 0 isleadbyte
FUNC 56ea0 a 0 iswalnum
FUNC 56eac a 0 iswalpha
FUNC 56eb8 e 0 iswascii
FUNC 56ecc 16 0 iswblank
FUNC 56ee8 a 0 iswcntrl
FUNC 56ef4 a 0 iswdigit
FUNC 56f00 a 0 iswgraph
FUNC 56f0c a 0 iswlower
FUNC 56f18 a 0 iswprint
FUNC 56f24 a 0 iswpunct
FUNC 56f30 a 0 iswspace
FUNC 56f3c a 0 iswupper
FUNC 56f48 a 0 iswxdigit
FUNC 56f54 27 0 <lambda_65851a7d604e5f7a386d3d3eba445cd2>::operator()
FUNC 56f84 39 0 __crt_mbstring::__mbrtowc_utf8(wchar_t *,char const *,unsigned __int64,_Mbstatet *)
FUNC 56fcc 176 0 __crt_mbstring::__mbsrtowcs_utf8(wchar_t *,char const * *,unsigned __int64,_Mbstatet *)
FUNC 571a0 251 0 _mbrtowc_s_l
FUNC 57488 15e 0 _mbsrtowcs_helper
FUNC 57640 68 0 btowc
FUNC 576c4 3e 0 mbrlen
FUNC 57714 60 0 mbrtowc
FUNC 5778c 5 0 mbsrtowcs
FUNC 57794 d4 0 mbsrtowcs_s
FUNC 578a0 e2 0 _acrt_fp_strflt_to_string
FUNC 579bc 1120 0 convert_to_fos_high_precision<double>
FUNC 58f30 2f 0 __crt_strtox::big_integer::big_integer(__crt_strtox::big_integer const &)
FUNC 58f70 a 0 __crt_strtox::big_integer::big_integer()
FUNC 58f7c 3b 0 `anonymous namespace'::scoped_fp_state_reset::scoped_fp_state_reset
FUNC 58fc8 14 0 `anonymous namespace'::scoped_fp_state_reset::~scoped_fp_state_reset
FUNC 58ff0 2f 0 __crt_strtox::big_integer::operator=(__crt_strtox::big_integer const &)
FUNC 59030 3e 0 __crt_strtox::operator==(__crt_strtox::big_integer const &,__crt_strtox::big_integer const &)
FUNC 59080 3e 0 __crt_strtox::operator!=(__crt_strtox::big_integer const &,__crt_strtox::big_integer const &)
FUNC 590d0 14 0 __crt_strtox::add_carry(unsigned int &,unsigned int,unsigned int)
FUNC 590f0 1e 0 __crt_strtox::add_multiply_carry(unsigned int &,unsigned int,unsigned int,unsigned int)
FUNC 59120 13 0 __crt_strtox::bit_scan_reverse(unsigned int)
FUNC 59140 13 0 __crt_strtox::count_sequential_high_zeroes(unsigned int)
FUNC 59160 48e 0 __crt_strtox::divide(__crt_strtox::big_integer &,__crt_strtox::big_integer const &)
FUNC 59720 7 0 __crt_strtox::is_zero(__crt_strtox::big_integer const &)
FUNC 59730 19 0 __crt_strtox::make_big_integer(unsigned __int64)
FUNC 59750 67 0 __crt_strtox::make_big_integer_power_of_two(unsigned int)
FUNC 597d0 3bb 0 __crt_strtox::multiply(__crt_strtox::big_integer &,__crt_strtox::big_integer const &)
FUNC 59c80 fd 0 __crt_strtox::multiply(__crt_strtox::big_integer &,unsigned int)
FUNC 59dc0 7 0 __crt_strtox::multiply_64_32(unsigned __int64,unsigned int)
FUNC 59dd0 59a 0 __crt_strtox::multiply_by_power_of_ten(__crt_strtox::big_integer &,unsigned int)
FUNC 5a4d0 49 0 __crt_strtox::multiply_core(unsigned int * const,unsigned int,unsigned int)
FUNC 5a530 14d 0 __crt_strtox::shift_left(__crt_strtox::big_integer &,unsigned int)
FUNC 5a6d0 12d7 0 _acrt_fltout
FUNC 5be5c 87 0 memcpy_s
FUNC 5bf04 e6 0 common_flush_and_write_nolock<char>
FUNC 5c024 e7 0 common_flush_and_write_nolock<wchar_t>
FUNC 5c144 e0 0 write_buffer_nolock<char>
FUNC 5c25c e4 0 write_buffer_nolock<wchar_t>
FUNC 5c37c d 0 __crt_stdio_stream::has_big_buffer()
FUNC 5c38c e8 0 _acrt_stdio_flush_and_write_narrow_nolock
FUNC 5c4b0 e9 0 _acrt_stdio_flush_and_write_wide_nolock
FUNC 5c5d4 7 0 _acrt_GetStringTypeW
FUNC 5c5dc 367 0 _wcstombs_l_helper
FUNC 5ca1c 37 0 wcsncnt
FUNC 5ca60 5 0 wcstombs_l
FUNC 5ca68 ec 0 wcstombs_s_l
FUNC 5cb90 8 0 wcstombs
FUNC 5cb9c 1e 0 wcstombs_s
FUNC 5cbc4 15 0 _strncnt
FUNC 5cbe0 bd 0 _acrt_CompareStringW
FUNC 5cccc 5c 0 _ascii_strnicmp
FUNC 5cd40 4f 0 strnicmp
FUNC 5cda4 da 0 strnicmp_l
FUNC 5ceb4 34c 0 InternalCompareStringA
FUNC 5d2d4 89 0 _acrt_CompareStringA
FUNC 5d380 87 0 _acrt_LCMapStringW
FUNC 5d428 e9 0 common_lseek<long>
FUNC 5d54c ed 0 common_lseek<__int64>
FUNC 5d674 f3 0 common_lseek_nolock<long>
FUNC 5d7a4 99 0 common_lseek_nolock<__int64>
FUNC 5d864 9e 0 common_lseek_do_seek_nolock
FUNC 5d92c 33 0 common_lseek_do_seek_nolock
FUNC 5d96c 5 0 lseek
FUNC 5d974 5 0 lseek_nolock
FUNC 5d97c 5 0 lseeki64
FUNC 5d984 5 0 lseeki64_nolock
FUNC 5d98c 40 0 __crt_seh_guarded_call<unsigned short>::operator()<<lambda_0384895ae1aa6ccbfe369a30d6ca2ef7>,<lambda_9e0b6ab72a5b3ae37ad997d08b519f50> & __ptr64,<lambda_7e22f70504d73c22058e5832bde5914f> >
FUNC 5d9dc 26 0 __acrt_lock_and_call<<lambda_9e0b6ab72a5b3ae37ad997d08b519f50> >
FUNC 5da0c 8 0 <lambda_0384895ae1aa6ccbfe369a30d6ca2ef7>::<lambda_0384895ae1aa6ccbfe369a30d6ca2ef7>
FUNC 5da18 8 0 <lambda_7e22f70504d73c22058e5832bde5914f>::<lambda_7e22f70504d73c22058e5832bde5914f>
FUNC 5da24 7 0 <lambda_9e0b6ab72a5b3ae37ad997d08b519f50>::<lambda_9e0b6ab72a5b3ae37ad997d08b519f50>
FUNC 5da2c 7 0 <lambda_0384895ae1aa6ccbfe369a30d6ca2ef7>::operator()
FUNC 5da34 7 0 <lambda_7e22f70504d73c22058e5832bde5914f>::operator()
FUNC 5da3c b 0 <lambda_9e0b6ab72a5b3ae37ad997d08b519f50>::operator()
FUNC 5da4c 3b 0 putwch
FUNC 5da98 3b 0 putwch_nolock
FUNC 5dae4 83 0 fclose_nolock
FUNC 5db88 62 0 fclose
FUNC 5dc04 1db 0 __crt_mbstring::__mbrtoc32_utf8(char32_t *,char const *,unsigned __int64,_Mbstatet *)
FUNC 5de58 9 0 __crt_mbstring::reset_and_return(unsigned __int64,_Mbstatet *)
FUNC 5de64 1d 0 __crt_mbstring::return_illegal_sequence(_Mbstatet *)
FUNC 5de88 5 0 mbrtoc32
FUNC 5de90 20 0 fegetenv
FUNC 5deb8 4d 0 fesetenv
FUNC 5df18 50 0 feholdexcept
FUNC 5df7c c2 0 ceil
FUNC 5e070 5ab 0 log10
FUNC 5e788 66 0 _acrt_stdio_allocate_buffer_nolock
FUNC 5e808 11b 0 __crt_mbstring::__wcsrtombs_utf8(char *,wchar_t const * *,unsigned __int64,_Mbstatet *)
FUNC 5e96c f6 0 _wcrtomb_s_l
FUNC 5eaa0 1dc 0 internal_wcsrtombs
FUNC 5ecf4 87 0 memcpy_s
FUNC 5ed9c 3a 0 wcrtomb
FUNC 5ede4 8b 0 wcrtomb_s
FUNC 5ee94 5 0 wcsrtombs
FUNC 5ee9c c3 0 wcsrtombs_s
FUNC 5ef90 70 0 wctob
FUNC 5f01c aa 0 console_output_reopen_and_retry<<lambda_61c1b8a38cedca4df5fdc542e6ccae6d> >
FUNC 5f0f0 17 0 <lambda_61c1b8a38cedca4df5fdc542e6ccae6d>::<lambda_61c1b8a38cedca4df5fdc542e6ccae6d>
FUNC 5f10c 27 0 <lambda_61c1b8a38cedca4df5fdc542e6ccae6d>::operator()
FUNC 5f13c 3b 0 __dcrt_lowio_initialize_console_output
FUNC 5f188 52 0 _dcrt_lowio_ensure_console_output_initialized
FUNC 5f1f0 1c 0 _dcrt_terminate_console_output
FUNC 5f214 be 0 _dcrt_write_console
FUNC 5f304 71 0 __crt_seh_guarded_call<int>::operator()<<lambda_751a882b2c74d4b022dec766aa51a29a>,<lambda_628dfdc04ba53c8bfc02c9951375f3f5> & __ptr64,<lambda_f6c7be5f7998530c34de24c7437d6b54> >
FUNC 5f394 26 0 __acrt_lowio_lock_fh_and_call<<lambda_628dfdc04ba53c8bfc02c9951375f3f5> >
FUNC 5f3c4 7 0 <lambda_628dfdc04ba53c8bfc02c9951375f3f5>::<lambda_628dfdc04ba53c8bfc02c9951375f3f5>
FUNC 5f3cc 8 0 <lambda_751a882b2c74d4b022dec766aa51a29a>::<lambda_751a882b2c74d4b022dec766aa51a29a>
FUNC 5f3d8 8 0 <lambda_f6c7be5f7998530c34de24c7437d6b54>::<lambda_f6c7be5f7998530c34de24c7437d6b54>
FUNC 5f3e4 49 0 <lambda_628dfdc04ba53c8bfc02c9951375f3f5>::operator()
FUNC 5f440 7 0 <lambda_751a882b2c74d4b022dec766aa51a29a>::operator()
FUNC 5f448 7 0 <lambda_f6c7be5f7998530c34de24c7437d6b54>::operator()
FUNC 5f450 7b 0 close_os_handle_nolock
FUNC 5f4ec a1 0 close
FUNC 5f5b8 ba 0 close_nolock
FUNC 5f6a0 8 0 __crt_internal_free_policy::operator()<__crt_stdio_stream_data>(__crt_stdio_stream_data const * const)
FUNC 5f6ac 7 0 __crt_unique_heap_ptr<__crt_stdio_stream_data,__crt_internal_free_policy>::__crt_unique_heap_ptr<__crt_stdio_stream_data,__crt_internal_free_policy>(__crt_stdio_stream_data * const)
FUNC 5f6b4 8 0 __crt_stdio_stream::__crt_stdio_stream()
FUNC 5f6c0 1b 0 __crt_unique_heap_ptr<__crt_stdio_stream_data,__crt_internal_free_policy>::~__crt_unique_heap_ptr<__crt_stdio_stream_data,__crt_internal_free_policy>()
FUNC 5f6e4 56 0 __acrt_stdio_allocate_stream()
FUNC 5f750 1c 0 __acrt_stdio_free_stream(__crt_stdio_stream)
FUNC 5f774 9 0 __crt_stdio_stream::deallocate()
FUNC 5f780 8 0 __crt_unique_heap_ptr<__crt_stdio_stream_data,__crt_internal_free_policy>::detach()
FUNC 5f78c ea 0 find_or_allocate_unused_stream_nolock
FUNC 5f8b0 8 0 __crt_stdio_stream::lock()
FUNC 5f8bc 1b 0 __crt_unique_heap_ptr<__crt_stdio_stream_data,__crt_internal_free_policy>::release()
FUNC 5f8e0 1f 0 __crt_stdio_stream::try_allocate()
FUNC 5f908 8 0 __crt_stdio_stream::unlock()
FUNC 5f914 a 0 __acrt_fenv_shift_bits<__acrt_fenv_abstract_control>(__acrt_fenv_abstract_control,__acrt_fenv_abstract_control,unsigned int)
FUNC 5f920 a 0 __acrt_fenv_shift_bits<__acrt_fenv_abstract_status>(__acrt_fenv_abstract_status,__acrt_fenv_abstract_status,unsigned int)
FUNC 5f92c b 0 __acrt_fenv_translate_bit<__acrt_fenv_abstract_control,__acrt_fenv_machine_sse_control>(__acrt_fenv_machine_sse_control,__acrt_fenv_machine_sse_control,__acrt_fenv_abstract_control,__acrt_fenv_abstract_control)
FUNC 5f93c a 0 __acrt_fenv_translate_bit<__acrt_fenv_abstract_status,__acrt_fenv_machine_sse_status>(__acrt_fenv_machine_sse_status,__acrt_fenv_machine_sse_status,__acrt_fenv_abstract_status,__acrt_fenv_abstract_status)
FUNC 5f948 c 0 __acrt_fenv_translate_bit<__acrt_fenv_machine_sse_control,__acrt_fenv_abstract_control>(__acrt_fenv_abstract_control,__acrt_fenv_abstract_control,__acrt_fenv_machine_sse_control,__acrt_fenv_machine_sse_control)
FUNC 5f958 a 0 __acrt_fenv_translate_bit<__acrt_fenv_machine_sse_status,__acrt_fenv_abstract_status>(__acrt_fenv_abstract_status,__acrt_fenv_abstract_status,__acrt_fenv_machine_sse_status,__acrt_fenv_machine_sse_status)
FUNC 5f964 a 0 __acrt_fenv_unshift_bits<__acrt_fenv_abstract_control>(__acrt_fenv_abstract_control,__acrt_fenv_abstract_control,unsigned int)
FUNC 5f970 a 0 __acrt_fenv_unshift_bits<__acrt_fenv_abstract_status>(__acrt_fenv_abstract_status,__acrt_fenv_abstract_status,unsigned int)
FUNC 5f97c 51 0 to_abstract_status<enum __acrt_fenv_machine_sse_status>
FUNC 5f9e4 61 0 translate_control_exception_mask<enum __acrt_fenv_abstract_control,enum __acrt_fenv_machine_sse_control>
FUNC 5fa60 96 0 translate_control_exception_mask<enum __acrt_fenv_machine_sse_control,enum __acrt_fenv_abstract_control>
FUNC 5fb1c 3b 0 translate_control_rounding_control<enum __acrt_fenv_abstract_control,enum __acrt_fenv_machine_sse_control>
FUNC 5fb68 32 0 translate_control_rounding_control<enum __acrt_fenv_machine_sse_control,enum __acrt_fenv_abstract_control>
FUNC 5fba8 51 0 translate_status<enum __acrt_fenv_abstract_status,enum __acrt_fenv_machine_sse_status>
FUNC 5fc10 51 0 translate_status<enum __acrt_fenv_machine_sse_status,enum __acrt_fenv_abstract_status>
FUNC 5fc78 5 0 operator&(__acrt_fenv_abstract_control,__acrt_fenv_abstract_control)
FUNC 5fc80 5 0 operator&(__acrt_fenv_abstract_status,__acrt_fenv_abstract_status)
FUNC 5fc88 7 0 operator&(__acrt_fenv_machine_sse_control,__acrt_fenv_machine_sse_control)
FUNC 5fc90 5 0 operator&(__acrt_fenv_machine_sse_status,__acrt_fenv_machine_sse_status)
FUNC 5fc98 5 0 operator|(__acrt_fenv_abstract_control,__acrt_fenv_abstract_control)
FUNC 5fca0 5 0 operator|(__acrt_fenv_abstract_status,__acrt_fenv_abstract_status)
FUNC 5fca8 7 0 operator|(__acrt_fenv_machine_sse_control,__acrt_fenv_machine_sse_control)
FUNC 5fcb0 6 0 operator|=(__acrt_fenv_abstract_control &,__acrt_fenv_abstract_control)
FUNC 5fcb8 6 0 operator|=(__acrt_fenv_abstract_status &,__acrt_fenv_abstract_status)
FUNC 5fcc0 7 0 operator|=(__acrt_fenv_machine_sse_control &,__acrt_fenv_machine_sse_control)
FUNC 5fcc8 6 0 operator|=(__acrt_fenv_machine_sse_status &,__acrt_fenv_machine_sse_status)
FUNC 5fcd0 13 0 __acrt_fenv_shift_abstract_sse_control(__acrt_fenv_abstract_control)
FUNC 5fce8 9 0 __acrt_fenv_shift_abstract_sse_status(__acrt_fenv_abstract_status)
FUNC 5fcf4 16 0 __acrt_fenv_unshift_abstract_sse_control(__acrt_fenv_abstract_control)
FUNC 5fd10 9 0 __acrt_fenv_unshift_abstract_sse_status(__acrt_fenv_abstract_status)
FUNC 5fd1c 12 0 get_machine_sse_control
FUNC 5fd34 d 0 get_machine_sse_status
FUNC 5fd44 23 0 set_machine_sse_control
FUNC 5fd70 1b 0 set_machine_sse_status
FUNC 5fd94 e5 0 to_abstract_control
FUNC 5feb4 138 0 to_machine_sse_control
FUNC 6003c 5c 0 to_machine_sse_status
FUNC 600b0 34 0 translate_control_denormal_control_from_sse
FUNC 600f4 30 0 translate_control_denormal_control_to_sse
FUNC 60130 17 0 _acrt_fenv_expand_round_control
FUNC 6014c 9 0 _acrt_fenv_get_common_round_control
FUNC 60158 fe 0 _acrt_fenv_get_control
FUNC 60298 b 0 _acrt_fenv_get_fp_status_word_from_exception_mask
FUNC 602a8 56 0 _acrt_fenv_get_status
FUNC 60314 147 0 _acrt_fenv_set_control
FUNC 604ac 83 0 _acrt_fenv_set_status
FUNC 60550 c6 0 _abstract_cw
FUNC 60648 5b 0 _abstract_sw
FUNC 606bc 6e 0 clearfp
FUNC 60748 5 0 control87
FUNC 60750 9 0 controlfp
FUNC 6075c a 0 fpreset
FUNC 60768 bf 0 _hw_cw
FUNC 60858 34 0 set_controlfp
FUNC 6089c 62 0 statusfp
FUNC 60918 2be 0 common_control87
FUNC 60c88 65 0 _call_matherr
FUNC 60d08 ba 0 _exception_enabled
FUNC 60df0 127 0 handle_error
FUNC 60f60 133 0 handle_errorf
FUNC 610e0 19 0 handle_nan
FUNC 61100 f 0 handle_nanf
FUNC 61120 70 0 _acrt_initialize_fma3
FUNC 611ac 7 0 get_FMA3_enable
FUNC 611b4 17 0 set_FMA3_enable
FUNC 611d0 20 0 log10_special
FUNC 611f8 20 0 log10f_special
FUNC 61220 20 0 log_special
FUNC 61248 96 0 _log_special_common
FUNC 61304 20 0 logf_special
FUNC 6132c 9c 0 _logf_special_common
FUNC 613f0 a7 0 __crt_mbstring::__c16rtomb_utf8(char *,char16_t,_Mbstatet *)
FUNC 614c0 b 0 `anonymous namespace'::combine_second_surrogate
FUNC 614d0 7 0 `anonymous namespace'::has_surrogate
FUNC 614d8 14 0 `anonymous namespace'::is_first_surrogate
FUNC 614f4 14 0 `anonymous namespace'::is_second_surrogate
FUNC 61510 13 0 `anonymous namespace'::store_first_surrogate
FUNC 61528 5 0 c16rtomb
FUNC 61540 10 0 get_fpsr
FUNC 61550 a 0 set_fpsr
FUNC 6155a 14 0 fclrf
FUNC 6156e 1f 0 frnd
FUNC 615a4 43 0 errcode
FUNC 615f8 f1 0 except1
FUNC 61728 106 0 except2
FUNC 61870 31 0 _get_fname
FUNC 618b0 267 0 handle_exc
FUNC 61bb0 5 0 handle_qnan2
FUNC 61bb8 27 0 raise_exc
FUNC 61be8 30d 0 raise_exc_ex
FUNC 61fb8 2a 0 raise_excf
FUNC 61fec 2e 0 set_errno_from_matherr
FUNC 62028 d4 0 umatherr
FUNC 62134 1d 0 clrfp
FUNC 62158 7c 0 ctrlfp
FUNC 621f4 1f 0 set_statfp
FUNC 6221c 11 0 statfp
FUNC 62234 b7 0 __crt_mbstring::__c32rtomb_utf8(char *,char32_t,_Mbstatet *)
FUNC 62318 5 0 c32rtomb
FUNC 62320 4e 0 add_exp
FUNC 62384 138 0 decomp
FUNC 6250c 1d 0 get_exp
FUNC 62530 30 0 set_bexp
FUNC 6256c 38 0 set_exp
FUNC 625b4 74 0 sptype
FUNC 62650 44 0 FindPESection
FUNC 626b0 4d 0 IsNonwritableInCurrentImage
FUNC 62710 2d 0 ValidateImageBase
FUNC 62748 b 0 type_info::~type_info()
FUNC 62758 2b 0 type_info::`scalar deleting destructor'(unsigned int)
FUNC 62790 1d 0 _GSHandlerCheck
FUNC 627b4 5b 0 _GSHandlerCheckCommon
FUNC 62840 21 0 _security_check_cookie
FUNC 62870 5 0 operator delete(void *,unsigned __int64)
FUNC 62878 85 0 _GSHandlerCheck_SEH
FUNC 62920 34 0 _raise_securityfailure
FUNC 62964 d1 0 _report_gsfailure
FUNC 62a6c 13 0 _report_rangecheckfailure
FUNC 62a84 9b 0 _report_securityfailure
FUNC 62b48 10e 0 _report_securityfailureEx
FUNC 62c9c 6d 0 capture_current_context
FUNC 62d24 71 0 capture_previous_context
FUNC 62dd0 51 0 _chkstk
FUNC 62e3c 7f 0 _GSHandlerCheck_EH
FUNC 62edc 5 0 operator delete(void *)
PUBLIC 62ee1 0 RtlUnwindEx
PUBLIC 62ee7 0 InterlockedPushEntrySList
PUBLIC 62eed 0 InterlockedFlushSList
PUBLIC 62ef3 0 GetLastError
PUBLIC 62ef9 0 SetLastError
PUBLIC 62eff 0 EnterCriticalSection
PUBLIC 62f05 0 LeaveCriticalSection
PUBLIC 62f0b 0 DeleteCriticalSection
PUBLIC 62f11 0 InitializeCriticalSectionAndSpinCount
PUBLIC 62f17 0 TlsAlloc
PUBLIC 62f1d 0 TlsGetValue
PUBLIC 62f23 0 TlsSetValue
PUBLIC 62f29 0 TlsFree
PUBLIC 62f2f 0 FreeLibrary
PUBLIC 62f35 0 GetProcAddress
PUBLIC 62f3b 0 LoadLibraryExW
PUBLIC 62f41 0 EncodePointer
PUBLIC 62f47 0 RaiseException
PUBLIC 62f4d 0 RtlPcToFileHeader
PUBLIC 62f53 0 GetStdHandle
PUBLIC 62f59 0 WriteFile
PUBLIC 62f5f 0 GetModuleFileNameW
PUBLIC 62f65 0 GetCurrentProcess
PUBLIC 62f6b 0 ExitProcess
PUBLIC 62f71 0 TerminateProcess
PUBLIC 62f77 0 GetModuleHandleExW
PUBLIC 62f7d 0 GetCommandLineA
PUBLIC 62f83 0 GetCommandLineW
PUBLIC 62f89 0 GetCurrentThread
PUBLIC 62f8f 0 OutputDebugStringW
PUBLIC 62f95 0 HeapAlloc
PUBLIC 62f9b 0 HeapFree
PUBLIC 62fa1 0 FindClose
PUBLIC 62fa7 0 FindFirstFileExW
PUBLIC 62fad 0 FindNextFileW
PUBLIC 62fb3 0 IsValidCodePage
PUBLIC 62fb9 0 GetACP
PUBLIC 62fbf 0 GetOEMCP
PUBLIC 62fc5 0 GetCPInfo
PUBLIC 62fcb 0 MultiByteToWideChar
PUBLIC 62fd1 0 WideCharToMultiByte
PUBLIC 62fd7 0 GetEnvironmentStringsW
PUBLIC 62fdd 0 FreeEnvironmentStringsW
PUBLIC 62fe3 0 SetEnvironmentVariableW
PUBLIC 62fe9 0 SetStdHandle
PUBLIC 62fef 0 GetFileType
PUBLIC 62ff5 0 GetStringTypeW
PUBLIC 62ffb 0 GetLocaleInfoW
PUBLIC 63001 0 IsValidLocale
PUBLIC 63007 0 GetUserDefaultLCID
PUBLIC 6300d 0 EnumSystemLocalesW
PUBLIC 63013 0 GetDateFormatW
PUBLIC 63019 0 GetTimeFormatW
PUBLIC 6301f 0 CompareStringW
PUBLIC 63025 0 LCMapStringW
PUBLIC 6302b 0 GetProcessHeap
PUBLIC 63031 0 SetConsoleCtrlHandler
PUBLIC 63037 0 HeapSize
PUBLIC 6303d 0 HeapReAlloc
PUBLIC 63043 0 FlushFileBuffers
PUBLIC 63049 0 GetConsoleCP
PUBLIC 6304f 0 GetConsoleMode
PUBLIC 63055 0 SetFilePointerEx
PUBLIC 6305b 0 CreateFileW
PUBLIC 63061 0 CloseHandle
PUBLIC 63067 0 WriteConsoleW
FUNC 63080 c7 0 memcmp
FUNC 6317c 89 0 strchr
FUNC 63228 91 0 wcschr
FUNC 632e0 149 0 strrchr
FUNC 6347c 29 0 local_unwind
PUBLIC 634af 0 RtlUnwind
FUNC 66710 2 0 guard_dispatch_icall_nop
FUNC 67720 1e 0 `__scrt_common_main_seh'::`1'::filt$0
FUNC 67745 18 0 __scrt_is_nonwritable_in_current_image$filt$0
FUNC 67763 18 0 __DestructExceptionObject$filt$0
FUNC 67781 c 0 `UnDecorator::getDecoratedName'::`1'::dtor$0
FUNC 67790 16 0 __unDNameEx$fin$0
FUNC 677ab 91 0 `_CallSETranslator<__FrameHandler3>'::`1'::filt$0
FUNC 67860 91 0 `_CallSETranslator<__FrameHandler4>'::`1'::filt$0
FUNC 67915 25 0 `__FrameHandler3::CxxCallCatchBlock'::`1'::filt$0
FUNC 6793a 78 0 `__FrameHandler3::CxxCallCatchBlock'::`1'::fin$1
FUNC 679d9 3e 0 `__FrameHandler4::CxxCallCatchBlock'::`1'::filt$0
FUNC 67a17 94 0 `__FrameHandler4::CxxCallCatchBlock'::`1'::fin$1
FUNC 67adf 16 0 `__FrameHandler3::FrameUnwindToState'::`1'::filt$0
FUNC 67af5 23 0 `__FrameHandler3::FrameUnwindToState'::`1'::fin$1
FUNC 67b26 16 0 `__FrameHandler4::FrameUnwindToState'::`1'::filt$0
FUNC 67b3c 23 0 `__FrameHandler4::FrameUnwindToState'::`1'::fin$1
FUNC 67b6d 1a 0 `__crt_seh_guarded_call<void>::operator()<<lambda_d80eeec6fff315bfe5c115232f3240e3>,<lambda_6e4b09c48022b2350581041d5f6b0c4c> & __ptr64,<lambda_2358e3775559c9db80273638284d5e45> >'::`1'::fin$0
FUNC 67b8d 1b 0 `<lambda_6e4b09c48022b2350581041d5f6b0c4c>::operator()'::`1'::filt$0
FUNC 67bae 17 0 _setmode$fin$0
FUNC 67bca 1a 0 `__crt_seh_guarded_call<void>::operator()<<lambda_0a55505eb881d180377eb1fc64ffb544>,<lambda_862e9a3f04921db6ca1ce3faa2bf3edf> & __ptr64,<lambda_c91f0b5e4ab41df1063aa1a95f49bd71> >'::`1'::fin$0
FUNC 67bea 1a 0 `__crt_seh_guarded_call<void>::operator()<<lambda_1d892b297fdedeee07ed8124eeb2f2fa>,<lambda_ffc046909424fd52df0ac47e64813305> & __ptr64,<lambda_01a7098693036236037e7cdb9bca3d73> >'::`1'::fin$0
FUNC 67c0a 1a 0 `__crt_seh_guarded_call<void>::operator()<<lambda_410d79af7f07d98d83a3f525b3859a53>,<lambda_3e16ef9562a7dcce91392c22ab16ea36> & __ptr64,<lambda_38119f0e861e05405d8a144b9b982f0a> >'::`1'::fin$0
FUNC 67c2a 21 0 `__crt_seh_guarded_call<void>::operator()<<lambda_7f2adfce497ff2baa965cd4f576ecfd1>,<lambda_2a444430fde8c29194d880d93eed5e8f> & __ptr64,<lambda_8dff2cf36a5417162780cd64fa2883ef> & __ptr64>'::`1'::fin$0
FUNC 67c53 1a 0 `__crt_seh_guarded_call<void>::operator()<<lambda_a48fd90c2dacdd6561e44078457d03a7>,<lambda_ebab98244f73a74f49db879bf13fa982> & __ptr64,<lambda_8b3bdacfa7480f205f16cb49964db269> >'::`1'::fin$0
FUNC 67c73 19 0 _free_locale$fin$1
FUNC 67c8c 19 0 _free_locale$fin$0
FUNC 67cb1 1a 0 `__crt_seh_guarded_call<int>::operator()<<lambda_7777bce6b2f8c936911f934f8298dc43>,<lambda_f03950bc5685219e0bcd2087efbe011e> & __ptr64,<lambda_3883c3dff614d5e0c5f61bb1ac94921c> >'::`1'::fin$0
FUNC 67cd1 1a 0 `__crt_seh_guarded_call<int>::operator()<<lambda_8369fcb7c4df1e85de37618bd2b85f07>,<lambda_a10e4b102d4a2c3aac6f4f48bbdf488f> & __ptr64,<lambda_5b7707bd6d7a0c4713179f36c7fd995d> >'::`1'::fin$0
FUNC 67cf1 1b 0 `__crt_seh_guarded_call<int>::operator()<<lambda_0d412022a4b28cc8a401ea49574e8ae6>,<lambda_a775ed57af18ba8e4d5dc780aa9068fe> & __ptr64,<lambda_975a71a6baa488a08f4e15f6b0339b9e> >'::`1'::fin$0
FUNC 67d12 1b 0 `__crt_seh_guarded_call<int>::operator()<<lambda_55577cdf4457e05136e8c1bc6549f697>,<lambda_ee59099aa97e0ff6f003b984c1584058> & __ptr64,<lambda_cd4250c7ac9eb50c05cf8bb6b444cf42> >'::`1'::fin$0
FUNC 67d33 1b 0 `__crt_seh_guarded_call<int>::operator()<<lambda_74b93660f2d9eb3fb15c5de9eff9db7b>,<lambda_32f117a32e8f8eb613cbf2ca819ed45e> & __ptr64,<lambda_7322894ee7c8a2d41153fedefeab09e3> >'::`1'::fin$0
FUNC 67d54 1b 0 `__crt_seh_guarded_call<int>::operator()<<lambda_a62c933ada0517137acf5807a1eeac1f>,<lambda_a31071773b9a94e445cbd5d04ef99106> & __ptr64,<lambda_56065050dbf3ada7e59a83db45153de3> >'::`1'::fin$0
FUNC 67d75 1b 0 `__crt_seh_guarded_call<int>::operator()<<lambda_d1aaa8c864b24422b55e9201296d78b9>,<lambda_a2288fdbbd702c8f223b438290af01a4> & __ptr64,<lambda_4f4c57057ae4c2bc431a3fc6ace2791f> >'::`1'::fin$0
FUNC 67d96 1b 0 `__crt_seh_guarded_call<int>::operator()<<lambda_e823f95267a816de70ce630183b86bc2>,<lambda_7e489fec146d5348dbc86d3cce37c1b5> & __ptr64,<lambda_57931389d27d3dce8b0bd13c3d0d8333> >'::`1'::fin$0
FUNC 67db7 1a 0 `__crt_seh_guarded_call<void>::operator()<<lambda_0ae27a3a962d80f24befdcbee591983d>,<lambda_8d0ee55de4b1038c4002e0adecdf1839> & __ptr64,<lambda_dc504788e8f1664fe9b84e20bfb512f2> >'::`1'::fin$0
FUNC 67dd7 1a 0 `__crt_seh_guarded_call<void>::operator()<<lambda_2d41944a1d46af3157314b8a01080d33>,<lambda_8f455de75cd7d7f24b4096f044d8b9e6> & __ptr64,<lambda_aa500f224e6afead328df44964fe2772> >'::`1'::fin$0
FUNC 67df7 1a 0 `__crt_seh_guarded_call<void>::operator()<<lambda_aa87e3671a710a21b5dc78c0bdf72e11>,<lambda_92619d2358a28f41a33ba319515a20b9> & __ptr64,<lambda_6992ecaafeb10aed2b74cb1fae11a551> >'::`1'::fin$0
FUNC 67e17 1a 0 `__crt_seh_guarded_call<void>::operator()<<lambda_f2e299630e499de9f9a165e60fcd3db5>,<lambda_2ae9d31cdba2644fcbeaf08da7c24588> & __ptr64,<lambda_40d01ff24d0e7b3814fdbdcee8eab3c7> >'::`1'::fin$0
FUNC 67e37 1a 0 `__crt_seh_guarded_call<void>::operator()<<lambda_efdfa57d1f175319df784efa44bb7b81>,<lambda_5f0a4c1567f8adc6734073e5d1e1b35c> & __ptr64,<lambda_2e8a7d3640ea6ccb4c2413664c2db6fd> >'::`1'::fin$0
FUNC 67e57 19 0 `update_thread_multibyte_data_internal'::`1'::fin$0
FUNC 67e76 19 0 __acrt_lowio_ensure_fh_exists$fin$0
FUNC 67e95 19 0 _alloc_osfhnd$fin$0
FUNC 67eb4 41 0 _open_osfhandle$fin$0
FUNC 67f05 19 0 __acrt_initialize_lowio$fin$0
FUNC 67f24 19 0 __acrt_update_thread_locale_data$fin$0
FUNC 67f43 1a 0 `__crt_seh_guarded_call<int>::operator()<<lambda_bd00b5aa228bd7e7e5b2b5db5fd2933b>,<lambda_777d11615145f89ee95b9466d285deeb> & __ptr64,<lambda_6e5e48fbd24f9f8f81b203eb3d877683> >'::`1'::fin$0
FUNC 67f63 16 0 _query_new_handler$fin$0
FUNC 67f7e 16 0 _set_new_handler$fin$0
FUNC 67f99 1a 0 `__crt_seh_guarded_call<void (__cdecl*)(int)>::operator()<<lambda_450d765d439847d4c735a33c368b5fc0>,<lambda_44731a7d0e6d81c3e6aa82d741081786> & __ptr64,<lambda_601a2a7da3b7a96e9554ac7215c4b07c> >'::`1'::fin$0
FUNC 67fb9 19 0 `ctrlevent_capture'::`1'::fin$0
FUNC 67fd8 21 0 raise$fin$0
FUNC 68001 19 0 signal$fin$0
FUNC 68020 1b 0 `__crt_seh_guarded_call<void>::operator()<<lambda_842d9ff0dc9ef11c61343bbaebe7f885>,<lambda_c5860995281e5c4ce005b3de8f5874ee> & __ptr64,<lambda_d90129c13df834fdcbf8d2b88dafcf2d> >'::`1'::fin$0
FUNC 68041 1d 0 `__crt_seh_guarded_call<void>::operator()<<lambda_886d6c58226a84441f68b9f2b8217b83>,<lambda_ab61a845afdef5b7c387490eaf3616ee> & __ptr64,<lambda_f7f22ab5edc0698d5f6905b0d3f44752> >'::`1'::fin$0
FUNC 68065 1b 0 `__crt_seh_guarded_call<int>::operator()<<lambda_c376a267cfb53b6959b3b692ec76b120>,<lambda_9a32fed5bf61b6b509b2d3f6003082a1> & __ptr64,<lambda_572fbb9fa0ab338edf41edfd4b5fcc8d> >'::`1'::fin$0
FUNC 68086 18 0 fputwc$fin$0
FUNC 680a4 1a 0 fputc$fin$0
FUNC 680c4 1a 0 `__crt_seh_guarded_call<int>::operator()<<lambda_a37b2b86f63e897a80ea819b0eb08c01>,<lambda_38ce7e780aa69e748d6df282ebc68efe> & __ptr64,<lambda_99fb1378e971ab6e7edea83e3a7a83a2> >'::`1'::fin$0
FUNC 680e4 17 0 _write$fin$0
FUNC 68100 19 0 _fcloseall$fin$0
FUNC 6811f c 0 `_wcstombs_l_helper'::`1'::dtor$0
FUNC 6812e 17 0 `common_lseek<long>'::`1'::fin$0
FUNC 6814a 17 0 `common_lseek<__int64>'::`1'::fin$0
FUNC 68166 1a 0 `__crt_seh_guarded_call<unsigned short>::operator()<<lambda_0384895ae1aa6ccbfe369a30d6ca2ef7>,<lambda_9e0b6ab72a5b3ae37ad997d08b519f50> & __ptr64,<lambda_7e22f70504d73c22058e5832bde5914f> >'::`1'::fin$0
FUNC 68186 18 0 fclose$fin$0
FUNC 681a4 1a 0 `__crt_seh_guarded_call<int>::operator()<<lambda_751a882b2c74d4b022dec766aa51a29a>,<lambda_628dfdc04ba53c8bfc02c9951375f3f5> & __ptr64,<lambda_f6c7be5f7998530c34de24c7437d6b54> >'::`1'::fin$0
FUNC 681c4 19 0 `__acrt_stdio_allocate_stream'::`1'::fin$0
FUNC 681e3 2c 0 common_control87$filt$0
FUNC 6821a 2c 0 _ctrlfp$filt$0
FUNC 68260 20 0 _IsNonwritableInCurrentImage$filt$0
STACK CFI INIT 6bd0 1b .cfa: $rsp .ra: .cfa 8 - ^
STACK CFI 6bd0 .cfa: $rsp 48 +
STACK CFI INIT 6bfc b7 .cfa: $rsp .ra: .cfa 8 - ^
STACK CFI 6bfc .cfa: $rsp 48 +
STACK CFI INIT 6ce0 10 .cfa: $rsp .ra: .cfa 8 - ^
STACK CFI 6ce0 .cfa: $rsp 48 +
STACK CFI INIT 6cf4 19 .cfa: $rsp .ra: .cfa 8 - ^
STACK CFI 6cf4 .cfa: $rsp 48 +
STACK CFI INIT 6d14 12 .cfa: $rsp .ra: .cfa 8 - ^
STACK CFI 6d14 .cfa: $rsp 48 +
STACK CFI INIT 6d2c 17c .cfa: $rsp .ra: .cfa 8 - ^
STACK CFI 6d2c .cfa: $rsp 64 +
STACK CFI INIT 6f08 14 .cfa: $rsp .ra: .cfa 8 - ^
STACK CFI 6f08 .cfa: $rsp 48 +
STACK CFI INIT 6f2c 36 .cfa: $rsp .ra: .cfa 8 - ^
STACK CFI 6f2c .cfa: $rsp 48 +
STACK CFI INIT 6f7c 1b .cfa: $rsp .ra: .cfa 8 - ^
STACK CFI 6f7c .cfa: $rsp 48 +
STACK CFI INIT 6fa0 14 .cfa: $rsp .ra: .cfa 8 - ^
STACK CFI 6fa0 .cfa: $rsp 48 +
STACK CFI INIT 6fbc 12 .cfa: $rsp .ra: .cfa 8 - ^
STACK CFI 6fbc .cfa: $rsp 48 +
STACK CFI INIT 70c8 39 .cfa: $rsp .ra: .cfa 8 - ^
STACK CFI 70c8 .cfa: $rsp 48 +
STACK CFI INIT 7110 34 .cfa: $rsp .ra: .cfa 8 - ^
STACK CFI 7110 .cfa: $rsp 48 +
STACK CFI INIT 7154 15 .cfa: $rsp .ra: .cfa 8 - ^
STACK CFI 7154 .cfa: $rsp 48 +
STACK CFI INIT 7170 28 .cfa: $rsp .ra: .cfa 8 - ^
STACK CFI 7170 .cfa: $rsp 48 +
STACK CFI INIT 71a4 15 .cfa: $rsp .ra: .cfa 8 - ^
STACK CFI 71a4 .cfa: $rsp 48 +
STACK CFI INIT 71c0 60 .cfa: $rsp .ra: .cfa 8 - ^
STACK CFI 71c0 .cfa: $rsp 48 +
STACK CFI INIT 7238 30 .cfa: $rsp .ra: .cfa 8 - ^
STACK CFI 7238 .cfa: $rsp 48 +
STACK CFI INIT 7274 14 .cfa: $rsp .ra: .cfa 8 - ^
STACK CFI 7274 .cfa: $rsp 48 +
STACK CFI INIT 7290 49 .cfa: $rsp .ra: .cfa 8 - ^
STACK CFI 7290 .cfa: $rsp 48 +
STACK CFI INIT 72ec d8 .cfa: $rsp .ra: .cfa 8 - ^
STACK CFI 72ec .cfa: $rsp 80 +
STACK CFI INIT 73fc 99 .cfa: $rsp .ra: .cfa 8 - ^
STACK CFI 73fc .cfa: $rsp 32 +
STACK CFI INIT 74bc 24 .cfa: $rsp .ra: .cfa 8 - ^
STACK CFI 74bc .cfa: $rsp 48 +
STACK CFI INIT 74ec 2b .cfa: $rsp .ra: .cfa 8 - ^
STACK CFI 74ec .cfa: $rsp 48 +
STACK CFI INIT 7524 4f .cfa: $rsp .ra: .cfa 8 - ^
STACK CFI 7524 .cfa: $rsp 48 +
STACK CFI INIT 75cc 17 .cfa: $rsp .ra: .cfa 8 - ^
STACK CFI 75cc .cfa: $rsp 48 +
STACK CFI INIT 75e8 6b .cfa: $rsp .ra: .cfa 8 - ^
STACK CFI 75e8 .cfa: $rsp 48 +
STACK CFI INIT 7670 ac .cfa: $rsp .ra: .cfa 8 - ^
STACK CFI 7670 .cfa: $rsp 48 +
STACK CFI INIT 77b0 1b .cfa: $rsp .ra: .cfa 8 - ^
STACK CFI 77b0 .cfa: $rsp 48 +
STACK CFI INIT 7808 14a .cfa: $rsp .ra: .cfa 8 - ^
STACK CFI 7808 .cfa: $rsp 1488 +
STACK CFI INIT 79a4 3a .cfa: $rsp .ra: .cfa 8 - ^
STACK CFI 79a4 .cfa: $rsp 160 +
STACK CFI INIT 79f8 52 .cfa: $rsp .ra: .cfa 8 - ^
STACK CFI 79f8 .cfa: $rsp 48 +
STACK CFI INIT 7a78 38 .cfa: $rsp .ra: .cfa 8 - ^
STACK CFI 7a78 .cfa: $rsp 48 +
STACK CFI INIT 7ac0 3c .cfa: $rsp .ra: .cfa 8 - ^
STACK CFI 7ac0 .cfa: $rsp 48 +
STACK CFI INIT 7b0c 3c .cfa: $rsp .ra: .cfa 8 - ^
STACK CFI 7b0c .cfa: $rsp 48 +
STACK CFI INIT 7b84 1b9 .cfa: $rsp .ra: .cfa 8 - ^
STACK CFI 7b84 .cfa: $rsp 48 +
STACK CFI INIT 7e14 20b .cfa: $rsp .ra: .cfa 8 - ^
STACK CFI 7e14 .cfa: $rsp 112 +
STACK CFI INIT 80a4 32 .cfa: $rsp .ra: .cfa 8 - ^
STACK CFI 80a4 .cfa: $rsp 48 +
STACK CFI INIT 80e4 14 .cfa: $rsp .ra: .cfa 8 - ^
STACK CFI 80e4 .cfa: $rsp 48 +
STACK CFI INIT 8100 12 .cfa: $rsp .ra: .cfa 8 - ^
STACK CFI 8100 .cfa: $rsp 48 +
STACK CFI INIT 8118 20 .cfa: $rsp .ra: .cfa 8 - ^
STACK CFI 8118 .cfa: $rsp 48 +
STACK CFI INIT 8140 10 .cfa: $rsp .ra: .cfa 8 - ^
STACK CFI 8140 .cfa: $rsp 48 +
STACK CFI INIT 81a0 1b .cfa: $rsp .ra: .cfa 8 - ^
STACK CFI 81a0 .cfa: $rsp 48 +
STACK CFI INIT 81c4 1b .cfa: $rsp .ra: .cfa 8 - ^
STACK CFI 81c4 .cfa: $rsp 48 +
STACK CFI INIT 8260 1b .cfa: $rsp .ra: .cfa 8 - ^
STACK CFI 8260 .cfa: $rsp 48 +
STACK CFI INIT 8284 1b .cfa: $rsp .ra: .cfa 8 - ^
STACK CFI 8284 .cfa: $rsp 48 +
STACK CFI INIT 82d8 2a .cfa: $rsp .ra: .cfa 8 - ^
STACK CFI 82d8 .cfa: $rsp 48 +
STACK CFI INIT 8358 11c .cfa: $rsp .ra: .cfa 8 - ^
STACK CFI 8358 .cfa: $rsp 112 +
STACK CFI INIT 84d0 10 .cfa: $rsp .ra: .cfa 8 - ^
STACK CFI 84d0 .cfa: $rsp 16 +
STACK CFI INIT 84f0 190 .cfa: $rsp .ra: .cfa 8 - ^
STACK CFI 84f0 .cfa: $rsp 8 +
STACK CFI INIT 8700 18 .cfa: $rsp .ra: .cfa 8 - ^
STACK CFI 8700 .cfa: $rsp 8 +
STACK CFI INIT 8720 1 .cfa: $rsp .ra: .cfa 8 - ^
STACK CFI 8720 .cfa: $rsp 8 +
STACK CFI INIT 8730 1 .cfa: $rsp .ra: .cfa 8 - ^
STACK CFI 8730 .cfa: $rsp 8 +
STACK CFI INIT 87e0 5b .cfa: $rsp .ra: .cfa 8 - ^
STACK CFI 87e0 .cfa: $rsp 48 +
STACK CFI INIT 8854 71 .cfa: $rsp .ra: .cfa 8 - ^
STACK CFI 8854 .cfa: $rsp 48 +
STACK CFI INIT 88f0 2f .cfa: $rsp .ra: .cfa 8 - ^
STACK CFI 88f0 .cfa: $rsp 48 +
STACK CFI INIT 8964 4a .cfa: $rsp .ra: .cfa 8 - ^
STACK CFI 8964 .cfa: $rsp 48 +
STACK CFI INIT 89c0 5b .cfa: $rsp .ra: .cfa 8 - ^
STACK CFI 89c0 .cfa: $rsp 64 +
STACK CFI INIT 8a34 12 .cfa: $rsp .ra: .cfa 8 - ^
STACK CFI 8a34 .cfa: $rsp 48 +
STACK CFI INIT 8a4c 12 .cfa: $rsp .ra: .cfa 8 - ^
STACK CFI 8a4c .cfa: $rsp 48 +
STACK CFI INIT 8a64 12 .cfa: $rsp .ra: .cfa 8 - ^
STACK CFI 8a64 .cfa: $rsp 48 +
STACK CFI INIT 8a7c a .cfa: $rsp .ra: .cfa 8 - ^
STACK CFI 8a7c .cfa: $rsp 48 +
STACK CFI INIT 8a88 a5 .cfa: $rsp .ra: .cfa 8 - ^
STACK CFI 8a88 .cfa: $rsp 48 +
STACK CFI INIT 8b6c 1a .cfa: $rsp .ra: .cfa 8 - ^
STACK CFI 8b6c .cfa: $rsp 48 +
STACK CFI INIT 8b8c 1b .cfa: $rsp .ra: .cfa 8 - ^
STACK CFI 8b8c .cfa: $rsp 48 +
STACK CFI INIT 8be4 1b .cfa: $rsp .ra: .cfa 8 - ^
STACK CFI 8be4 .cfa: $rsp 48 +
STACK CFI INIT 8c08 34 .cfa: $rsp .ra: .cfa 8 - ^
STACK CFI 8c08 .cfa: $rsp 48 +
STACK CFI INIT 8c4c 1f .cfa: $rsp .ra: .cfa 8 - ^
STACK CFI 8c4c .cfa: $rsp 48 +
STACK CFI INIT 8c74 4d .cfa: $rsp .ra: .cfa 8 - ^
STACK CFI 8c74 .cfa: $rsp 48 +
STACK CFI INIT 8cd4 19 .cfa: $rsp .ra: .cfa 8 - ^
STACK CFI 8cd4 .cfa: $rsp 48 +
STACK CFI INIT 8cf4 cb .cfa: $rsp .ra: .cfa 8 - ^
STACK CFI 8cf4 .cfa: $rsp 48 +
STACK CFI INIT 8df4 4d .cfa: $rsp .ra: .cfa 8 - ^
STACK CFI 8df4 .cfa: $rsp 48 +
STACK CFI INIT 8e54 51 .cfa: $rsp .ra: .cfa 8 - ^
STACK CFI 8e54 .cfa: $rsp 48 +
STACK CFI INIT 8ebc 22 .cfa: $rsp .ra: .cfa 8 - ^
STACK CFI 8ebc .cfa: $rsp 48 +
STACK CFI INIT 8ee8 46 .cfa: $rsp .ra: .cfa 8 - ^
STACK CFI 8ee8 .cfa: $rsp 48 +
STACK CFI INIT 8f60 37 .cfa: $rsp .ra: .cfa 8 - ^
STACK CFI 8f60 .cfa: $rsp 48 +
STACK CFI INIT 9108 119 .cfa: $rsp .ra: .cfa 8 - ^
STACK CFI 9108 .cfa: $rsp 64 +
STACK CFI INIT 9268 1d6 .cfa: $rsp .ra: .cfa 8 - ^
STACK CFI 9268 .cfa: $rsp 80 +
STACK CFI INIT 94b4 fe .cfa: $rsp .ra: .cfa 8 - ^
STACK CFI 94b4 .cfa: $rsp 48 +
STACK CFI INIT 95f4 137 .cfa: $rsp .ra: .cfa 8 - ^
STACK CFI 95f4 .cfa: $rsp 64 +
STACK CFI INIT 9778 73 .cfa: $rsp .ra: .cfa 8 - ^
STACK CFI 9778 .cfa: $rsp 48 +
STACK CFI INIT 9808 45 .cfa: $rsp .ra: .cfa 8 - ^
STACK CFI 9808 .cfa: $rsp 48 +
STACK CFI INIT 9860 46 .cfa: $rsp .ra: .cfa 8 - ^
STACK CFI 9860 .cfa: $rsp 48 +
STACK CFI INIT 98b8 46 .cfa: $rsp .ra: .cfa 8 - ^
STACK CFI 98b8 .cfa: $rsp 48 +
STACK CFI INIT 9910 51 .cfa: $rsp .ra: .cfa 8 - ^
STACK CFI 9910 .cfa: $rsp 48 +
STACK CFI INIT 9978 61 .cfa: $rsp .ra: .cfa 8 - ^
STACK CFI 9978 .cfa: $rsp 48 +
STACK CFI INIT 99f4 2f .cfa: $rsp .ra: .cfa 8 - ^
STACK CFI 99f4 .cfa: $rsp 8 +
STACK CFI INIT 9a30 3e .cfa: $rsp .ra: .cfa 8 - ^
STACK CFI 9a30 .cfa: $rsp 48 +
STACK CFI INIT 9ad4 cc .cfa: $rsp .ra: .cfa 8 - ^
STACK CFI 9ad4 .cfa: $rsp 48 +
STACK CFI INIT 9be8 31 .cfa: $rsp .ra: .cfa 8 - ^
STACK CFI 9be8 .cfa: $rsp 48 +
STACK CFI INIT 9c28 84 .cfa: $rsp .ra: .cfa 8 - ^
STACK CFI 9c28 .cfa: $rsp 48 +
STACK CFI INIT 9cd0 40 .cfa: $rsp .ra: .cfa 8 - ^
STACK CFI 9cd0 .cfa: $rsp 48 +
STACK CFI INIT 9d68 a6 .cfa: $rsp .ra: .cfa 8 - ^
STACK CFI 9d68 .cfa: $rsp 80 +
STACK CFI INIT 9e38 88 .cfa: $rsp .ra: .cfa 8 - ^
STACK CFI 9e38 .cfa: $rsp 80 +
STACK CFI INIT 9fd8 88 .cfa: $rsp .ra: .cfa 8 - ^
STACK CFI 9fd8 .cfa: $rsp 48 +
STACK CFI INIT a0b4 31 .cfa: $rsp .ra: .cfa 8 - ^
STACK CFI a0b4 .cfa: $rsp 48 +
STACK CFI INIT a0f4 7e .cfa: $rsp .ra: .cfa 8 - ^
STACK CFI a0f4 .cfa: $rsp 48 +
STACK CFI INIT a194 36 .cfa: $rsp .ra: .cfa 8 - ^
STACK CFI a194 .cfa: $rsp 48 +
STACK CFI INIT a250 36 .cfa: $rsp .ra: .cfa 8 - ^
STACK CFI a250 .cfa: $rsp 64 +
STACK CFI INIT a294 36 .cfa: $rsp .ra: .cfa 8 - ^
STACK CFI a294 .cfa: $rsp 64 +
STACK CFI INIT a2d8 49 .cfa: $rsp .ra: .cfa 8 - ^
STACK CFI a2d8 .cfa: $rsp 64 +
STACK CFI INIT a334 29 .cfa: $rsp .ra: .cfa 8 - ^
STACK CFI a334 .cfa: $rsp 48 +
STACK CFI INIT a368 29 .cfa: $rsp .ra: .cfa 8 - ^
STACK CFI a368 .cfa: $rsp 48 +
STACK CFI INIT a39c 29 .cfa: $rsp .ra: .cfa 8 - ^
STACK CFI a39c .cfa: $rsp 48 +
STACK CFI INIT a3d0 29 .cfa: $rsp .ra: .cfa 8 - ^
STACK CFI a3d0 .cfa: $rsp 48 +
STACK CFI INIT a404 29 .cfa: $rsp .ra: .cfa 8 - ^
STACK CFI a404 .cfa: $rsp 48 +
STACK CFI INIT a438 44 .cfa: $rsp .ra: .cfa 8 - ^
STACK CFI a438 .cfa: $rsp 48 +
STACK CFI INIT a490 7d .cfa: $rsp .ra: .cfa 8 - ^
STACK CFI a490 .cfa: $rsp 48 +
STACK CFI INIT a52c 95 .cfa: $rsp .ra: .cfa 8 - ^
STACK CFI a52c .cfa: $rsp 48 +
STACK CFI INIT a5e8 8a .cfa: $rsp .ra: .cfa 8 - ^
STACK CFI a5e8 .cfa: $rsp 48 +
STACK CFI INIT a694 6b .cfa: $rsp .ra: .cfa 8 - ^
STACK CFI a694 .cfa: $rsp 48 +
STACK CFI INIT a71c 67 .cfa: $rsp .ra: .cfa 8 - ^
STACK CFI a71c .cfa: $rsp 48 +
STACK CFI INIT a7d4 42 .cfa: $rsp .ra: .cfa 8 - ^
STACK CFI a7d4 .cfa: $rsp 48 +
STACK CFI INIT a850 63 .cfa: $rsp .ra: .cfa 8 - ^
STACK CFI a850 .cfa: $rsp 48 +
STACK CFI INIT a8cc db3 .cfa: $rsp .ra: .cfa 8 - ^
STACK CFI a8cc .cfa: $rsp 352 +
STACK CFI INIT baac a6 .cfa: $rsp .ra: .cfa 8 - ^
STACK CFI baac .cfa: $rsp 48 +
STACK CFI INIT bbf0 12b .cfa: $rsp .ra: .cfa 8 - ^
STACK CFI bbf0 .cfa: $rsp 96 +
STACK CFI INIT bd68 f3 .cfa: $rsp .ra: .cfa 8 - ^
STACK CFI bd68 .cfa: $rsp 64 +
STACK CFI INIT be98 253 .cfa: $rsp .ra: .cfa 8 - ^
STACK CFI be98 .cfa: $rsp 160 +
STACK CFI INIT c180 c8 .cfa: $rsp .ra: .cfa 8 - ^
STACK CFI c180 .cfa: $rsp 80 +
STACK CFI INIT c27c 468 .cfa: $rsp .ra: .cfa 8 - ^
STACK CFI c27c .cfa: $rsp 112 +
STACK CFI INIT c800 11d .cfa: $rsp .ra: .cfa 8 - ^
STACK CFI c800 .cfa: $rsp 64 +
STACK CFI INIT c964 19 .cfa: $rsp .ra: .cfa 8 - ^
STACK CFI c964 .cfa: $rsp 48 +
STACK CFI INIT c984 13e .cfa: $rsp .ra: .cfa 8 - ^
STACK CFI c984 .cfa: $rsp 64 +
STACK CFI INIT cb14 7b8 .cfa: $rsp .ra: .cfa 8 - ^
STACK CFI cb14 .cfa: $rsp 288 +
STACK CFI INIT d4bc 3e .cfa: $rsp .ra: .cfa 8 - ^
STACK CFI d4bc .cfa: $rsp 96 +
STACK CFI INIT d50c e6 .cfa: $rsp .ra: .cfa 8 - ^
STACK CFI d50c .cfa: $rsp 112 +
STACK CFI INIT d62c 2a8 .cfa: $rsp .ra: .cfa 8 - ^
STACK CFI d62c .cfa: $rsp 144 +
STACK CFI INIT d980 179 .cfa: $rsp .ra: .cfa 8 - ^
STACK CFI d980 .cfa: $rsp 112 +
STACK CFI INIT dbb8 19 .cfa: $rsp .ra: .cfa 8 - ^
STACK CFI dbb8 .cfa: $rsp 48 +
STACK CFI INIT dbd8 160 .cfa: $rsp .ra: .cfa 8 - ^
STACK CFI dbd8 .cfa: $rsp 112 +
STACK CFI INIT dd90 17 .cfa: $rsp .ra: .cfa 8 - ^
STACK CFI dd90 .cfa: $rsp 48 +
STACK CFI INIT ddac fc .cfa: $rsp .ra: .cfa 8 - ^
STACK CFI ddac .cfa: $rsp 96 +
STACK CFI INIT dee8 214 .cfa: $rsp .ra: .cfa 8 - ^
STACK CFI dee8 .cfa: $rsp 112 +
STACK CFI INIT e184 c6 .cfa: $rsp .ra: .cfa 8 - ^
STACK CFI e184 .cfa: $rsp 144 +
STACK CFI INIT e27c 556 .cfa: $rsp .ra: .cfa 8 - ^
STACK CFI e27c .cfa: $rsp 208 +
STACK CFI INIT e928 19 .cfa: $rsp .ra: .cfa 8 - ^
STACK CFI e928 .cfa: $rsp 48 +
STACK CFI INIT e97c 29 .cfa: $rsp .ra: .cfa 8 - ^
STACK CFI e97c .cfa: $rsp 48 +
STACK CFI INIT e9b0 35 .cfa: $rsp .ra: .cfa 8 - ^
STACK CFI e9b0 .cfa: $rsp 48 +
STACK CFI INIT ea10 71 .cfa: $rsp .ra: .cfa 8 - ^
STACK CFI ea10 .cfa: $rsp 96 +
STACK CFI INIT eaa0 a9 .cfa: $rsp .ra: .cfa 8 - ^
STACK CFI eaa0 .cfa: $rsp 48 +
STACK CFI INIT eb74 45 .cfa: $rsp .ra: .cfa 8 - ^
STACK CFI eb74 .cfa: $rsp 48 +
STACK CFI INIT ec5c 76d .cfa: $rsp .ra: .cfa 8 - ^
STACK CFI ec5c .cfa: $rsp 160 +
STACK CFI INIT f5a4 1e .cfa: $rsp .ra: .cfa 8 - ^
STACK CFI f5a4 .cfa: $rsp 48 +
STACK CFI INIT f5cc 1e .cfa: $rsp .ra: .cfa 8 - ^
STACK CFI f5cc .cfa: $rsp 48 +
STACK CFI INIT f5f4 24d .cfa: $rsp .ra: .cfa 8 - ^
STACK CFI f5f4 .cfa: $rsp 96 +
STACK CFI INIT f8d4 162 .cfa: $rsp .ra: .cfa 8 - ^
STACK CFI f8d4 .cfa: $rsp 96 +
STACK CFI INIT fa90 136 .cfa: $rsp .ra: .cfa 8 - ^
STACK CFI fa90 .cfa: $rsp 96 +
STACK CFI INIT fc14 17 .cfa: $rsp .ra: .cfa 8 - ^
STACK CFI fc14 .cfa: $rsp 48 +
STACK CFI INIT fc30 13d .cfa: $rsp .ra: .cfa 8 - ^
STACK CFI fc30 .cfa: $rsp 64 +
STACK CFI INIT fdbc 34 .cfa: $rsp .ra: .cfa 8 - ^
STACK CFI fdbc .cfa: $rsp 48 +
STACK CFI INIT fe00 478 .cfa: $rsp .ra: .cfa 8 - ^
STACK CFI fe00 .cfa: $rsp 544 +
STACK CFI INIT 10398 103 .cfa: $rsp .ra: .cfa 8 - ^
STACK CFI 10398 .cfa: $rsp 96 +
STACK CFI INIT 104dc 94 .cfa: $rsp .ra: .cfa 8 - ^
STACK CFI 104dc .cfa: $rsp 80 +
STACK CFI INIT 10598 3e .cfa: $rsp .ra: .cfa 8 - ^
STACK CFI 10598 .cfa: $rsp 96 +
STACK CFI INIT 10608 94 .cfa: $rsp .ra: .cfa 8 - ^
STACK CFI 10608 .cfa: $rsp 48 +
STACK CFI INIT 10734 2d .cfa: $rsp .ra: .cfa 8 - ^
STACK CFI 10734 .cfa: $rsp 48 +
STACK CFI INIT 1076c 4b .cfa: $rsp .ra: .cfa 8 - ^
STACK CFI 1076c .cfa: $rsp 48 +
STACK CFI INIT 10810 d0 .cfa: $rsp .ra: .cfa 8 - ^
STACK CFI 10810 .cfa: $rsp 80 +
STACK CFI INIT 1094c 4c .cfa: $rsp .ra: .cfa 8 - ^
STACK CFI 1094c .cfa: $rsp 48 +
STACK CFI INIT 109ac 31a .cfa: $rsp .ra: .cfa 8 - ^
STACK CFI 109ac .cfa: $rsp 288 +
STACK CFI INIT 10d8c 3a0 .cfa: $rsp .ra: .cfa 8 - ^
STACK CFI 10d8c .cfa: $rsp 256 +
STACK CFI INIT 11214 1fa .cfa: $rsp .ra: .cfa 8 - ^
STACK CFI 11214 .cfa: $rsp 432 +
STACK CFI INIT 1148c 42 .cfa: $rsp .ra: .cfa 8 - ^
STACK CFI 1148c .cfa: $rsp 96 +
STACK CFI INIT 1150c 35e .cfa: $rsp .ra: .cfa 8 - ^
STACK CFI 1150c .cfa: $rsp 48 +
STACK CFI INIT 11944 109 .cfa: $rsp .ra: .cfa 8 - ^
STACK CFI 11944 .cfa: $rsp 80 +
STACK CFI INIT 11a90 58 .cfa: $rsp .ra: .cfa 8 - ^
STACK CFI 11a90 .cfa: $rsp 48 +
STACK CFI INIT 11b00 17 .cfa: $rsp .ra: .cfa 8 - ^
STACK CFI 11b00 .cfa: $rsp 48 +
STACK CFI INIT 11b1c 5f .cfa: $rsp .ra: .cfa 8 - ^
STACK CFI 11b1c .cfa: $rsp 64 +
STACK CFI INIT 11b94 1fd .cfa: $rsp .ra: .cfa 8 - ^
STACK CFI 11b94 .cfa: $rsp 144 +
STACK CFI INIT 11e10 2d9 .cfa: $rsp .ra: .cfa 8 - ^
STACK CFI 11e10 .cfa: $rsp 176 +
STACK CFI INIT 12280 28 .cfa: $rsp .ra: .cfa 8 - ^
STACK CFI 12280 .cfa: $rsp 48 +
STACK CFI INIT 122b4 53 .cfa: $rsp .ra: .cfa 8 - ^
STACK CFI 122b4 .cfa: $rsp 48 +
STACK CFI INIT 12348 f5 .cfa: $rsp .ra: .cfa 8 - ^
STACK CFI 12348 .cfa: $rsp 96 +
STACK CFI INIT 12538 27 .cfa: $rsp .ra: .cfa 8 - ^
STACK CFI 12538 .cfa: $rsp 80 +
STACK CFI INIT 12568 132 .cfa: $rsp .ra: .cfa 8 - ^
STACK CFI 12568 .cfa: $rsp 224 +
STACK CFI INIT 126e8 62 .cfa: $rsp .ra: .cfa 8 - ^
STACK CFI 126e8 .cfa: $rsp 64 +
STACK CFI INIT 12764 52 .cfa: $rsp .ra: .cfa 8 - ^
STACK CFI 12764 .cfa: $rsp 96 +
STACK CFI INIT 127cc 106 .cfa: $rsp .ra: .cfa 8 - ^
STACK CFI 127cc .cfa: $rsp 224 +
STACK CFI INIT 1295c 2e .cfa: $rsp .ra: .cfa 8 - ^
STACK CFI 1295c .cfa: $rsp 48 +
STACK CFI INIT 12a14 95 .cfa: $rsp .ra: .cfa 8 - ^
STACK CFI 12a14 .cfa: $rsp 80 +
STACK CFI INIT 12ad0 95 .cfa: $rsp .ra: .cfa 8 - ^
STACK CFI 12ad0 .cfa: $rsp 80 +
STACK CFI INIT 12b8c 51 .cfa: $rsp .ra: .cfa 8 - ^
STACK CFI 12b8c .cfa: $rsp 128 +
STACK CFI INIT 12bf4 51 .cfa: $rsp .ra: .cfa 8 - ^
STACK CFI 12bf4 .cfa: $rsp 128 +
STACK CFI INIT 12d94 56 .cfa: $rsp .ra: .cfa 8 - ^
STACK CFI 12d94 .cfa: $rsp 48 +
STACK CFI INIT 12f84 2a .cfa: $rsp .ra: .cfa 8 - ^
STACK CFI 12f84 .cfa: $rsp 48 +
STACK CFI INIT 12fc4 64 .cfa: $rsp .ra: .cfa 8 - ^
STACK CFI 12fc4 .cfa: $rsp 48 +
STACK CFI INIT 13044 35 .cfa: $rsp .ra: .cfa 8 - ^
STACK CFI 13044 .cfa: $rsp 48 +
STACK CFI INIT 13088 c9 .cfa: $rsp .ra: .cfa 8 - ^
STACK CFI 13088 .cfa: $rsp 80 +
STACK CFI INIT 131b4 159 .cfa: $rsp .ra: .cfa 8 - ^
STACK CFI 131b4 .cfa: $rsp 128 +
STACK CFI INIT 13364 d3 .cfa: $rsp .ra: .cfa 8 - ^
STACK CFI 13364 .cfa: $rsp 128 +
STACK CFI INIT 134b8 121 .cfa: $rsp .ra: .cfa 8 - ^
STACK CFI 134b8 .cfa: $rsp 1472 +
STACK CFI INIT 13624 170 .cfa: $rsp .ra: .cfa 8 - ^
STACK CFI 13624 .cfa: $rsp 1472 +
STACK CFI INIT 13834 175 .cfa: $rsp .ra: .cfa 8 - ^
STACK CFI 13834 .cfa: $rsp 64 +
STACK CFI INIT 13a08 3a .cfa: $rsp .ra: .cfa 8 - ^
STACK CFI 13a08 .cfa: $rsp 48 +
STACK CFI INIT 13a50 53 .cfa: $rsp .ra: .cfa 8 - ^
STACK CFI 13a50 .cfa: $rsp 48 +
STACK CFI INIT 13ab8 12 .cfa: $rsp .ra: .cfa 8 - ^
STACK CFI 13ab8 .cfa: $rsp 48 +
STACK CFI INIT 13ad0 12 .cfa: $rsp .ra: .cfa 8 - ^
STACK CFI 13ad0 .cfa: $rsp 48 +
STACK CFI INIT 13ae8 18 .cfa: $rsp .ra: .cfa 8 - ^
STACK CFI 13ae8 .cfa: $rsp 48 +
STACK CFI INIT 13b08 18 .cfa: $rsp .ra: .cfa 8 - ^
STACK CFI 13b08 .cfa: $rsp 48 +
STACK CFI INIT 13b38 7d .cfa: $rsp .ra: .cfa 8 - ^
STACK CFI 13b38 .cfa: $rsp 80 +
STACK CFI INIT 13bd4 a1 .cfa: $rsp .ra: .cfa 8 - ^
STACK CFI 13bd4 .cfa: $rsp 112 +
STACK CFI INIT 13cb0 13 .cfa: $rsp .ra: .cfa 8 - ^
STACK CFI 13cb0 .cfa: $rsp 24 +
STACK CFI INIT 13cd0 435 .cfa: $rsp .ra: .cfa 8 - ^
STACK CFI 13cd0 .cfa: $rsp 8 +
STACK CFI INIT 14220 27 .cfa: $rsp .ra: .cfa 8 - ^
STACK CFI 14220 .cfa: $rsp 48 +
STACK CFI INIT 14250 29 .cfa: $rsp .ra: .cfa 8 - ^
STACK CFI 14250 .cfa: $rsp 48 +
STACK CFI INIT 14294 3b .cfa: $rsp .ra: .cfa 8 - ^
STACK CFI 14294 .cfa: $rsp 48 +
STACK CFI INIT 142f8 66 .cfa: $rsp .ra: .cfa 8 - ^
STACK CFI 142f8 .cfa: $rsp 48 +
STACK CFI INIT 14378 ed .cfa: $rsp .ra: .cfa 8 - ^
STACK CFI 14378 .cfa: $rsp 80 +
STACK CFI INIT 144a4 1fd .cfa: $rsp .ra: .cfa 8 - ^
STACK CFI 144a4 .cfa: $rsp 80 +
STACK CFI INIT 14720 201 .cfa: $rsp .ra: .cfa 8 - ^
STACK CFI 14720 .cfa: $rsp 80 +
STACK CFI INIT 149a4 c0 .cfa: $rsp .ra: .cfa 8 - ^
STACK CFI 149a4 .cfa: $rsp 48 +
STACK CFI INIT 14a94 c1 .cfa: $rsp .ra: .cfa 8 - ^
STACK CFI 14a94 .cfa: $rsp 48 +
STACK CFI INIT 14b88 cd .cfa: $rsp .ra: .cfa 8 - ^
STACK CFI 14b88 .cfa: $rsp 144 +
STACK CFI INIT 14c88 cd .cfa: $rsp .ra: .cfa 8 - ^
STACK CFI 14c88 .cfa: $rsp 144 +
STACK CFI INIT 14d88 461 .cfa: $rsp .ra: .cfa 8 - ^
STACK CFI 14d88 .cfa: $rsp 288 +
STACK CFI INIT 15304 400 .cfa: $rsp .ra: .cfa 8 - ^
STACK CFI 15304 .cfa: $rsp 384 +
STACK CFI INIT 15804 22e .cfa: $rsp .ra: .cfa 8 - ^
STACK CFI 15804 .cfa: $rsp 224 +
STACK CFI INIT 15ac0 237 .cfa: $rsp .ra: .cfa 8 - ^
STACK CFI 15ac0 .cfa: $rsp 352 +
STACK CFI INIT 15d84 141 .cfa: $rsp .ra: .cfa 8 - ^
STACK CFI 15d84 .cfa: $rsp 48 +
STACK CFI INIT 15f18 146 .cfa: $rsp .ra: .cfa 8 - ^
STACK CFI 15f18 .cfa: $rsp 48 +
STACK CFI INIT 160b0 246 .cfa: $rsp .ra: .cfa 8 - ^
STACK CFI 160b0 .cfa: $rsp 96 +
STACK CFI INIT 16388 29f .cfa: $rsp .ra: .cfa 8 - ^
STACK CFI 16388 .cfa: $rsp 160 +
STACK CFI INIT 166ec 6b .cfa: $rsp .ra: .cfa 8 - ^
STACK CFI 166ec .cfa: $rsp 48 +
STACK CFI INIT 16910 3f .cfa: $rsp .ra: .cfa 8 - ^
STACK CFI 16910 .cfa: $rsp 48 +
STACK CFI INIT 16988 35 .cfa: $rsp .ra: .cfa 8 - ^
STACK CFI 16988 .cfa: $rsp 48 +
STACK CFI INIT 16a70 1b .cfa: $rsp .ra: .cfa 8 - ^
STACK CFI 16a70 .cfa: $rsp 48 +
STACK CFI INIT 16af8 3c .cfa: $rsp .ra: .cfa 8 - ^
STACK CFI 16af8 .cfa: $rsp 48 +
STACK CFI INIT 16b4c 1d .cfa: $rsp .ra: .cfa 8 - ^
STACK CFI 16b4c .cfa: $rsp 48 +
STACK CFI INIT 16b78 4d .cfa: $rsp .ra: .cfa 8 - ^
STACK CFI 16b78 .cfa: $rsp 48 +
STACK CFI INIT 16c1c 42 .cfa: $rsp .ra: .cfa 8 - ^
STACK CFI 16c1c .cfa: $rsp 48 +
STACK CFI INIT 16c70 42 .cfa: $rsp .ra: .cfa 8 - ^
STACK CFI 16c70 .cfa: $rsp 48 +
STACK CFI INIT 16ce4 1ea .cfa: $rsp .ra: .cfa 8 - ^
STACK CFI 16ce4 .cfa: $rsp 176 +
STACK CFI INIT 16f48 240 .cfa: $rsp .ra: .cfa 8 - ^
STACK CFI 16f48 .cfa: $rsp 224 +
STACK CFI INIT 173b0 87 .cfa: $rsp .ra: .cfa 8 - ^
STACK CFI 173b0 .cfa: $rsp 48 +
STACK CFI INIT 17458 193 .cfa: $rsp .ra: .cfa 8 - ^
STACK CFI 17458 .cfa: $rsp 112 +
STACK CFI INIT 17650 2d9 .cfa: $rsp .ra: .cfa 8 - ^
STACK CFI 17650 .cfa: $rsp 288 +
STACK CFI INIT 179e0 96 .cfa: $rsp .ra: .cfa 8 - ^
STACK CFI 179e0 .cfa: $rsp 48 +
STACK CFI INIT 17a9c 37 .cfa: $rsp .ra: .cfa 8 - ^
STACK CFI 17a9c .cfa: $rsp 48 +
STACK CFI INIT 17b2c d6 .cfa: $rsp .ra: .cfa 8 - ^
STACK CFI 17b2c .cfa: $rsp 80 +
STACK CFI INIT 17c38 91 .cfa: $rsp .ra: .cfa 8 - ^
STACK CFI 17c38 .cfa: $rsp 48 +
STACK CFI INIT 17dc0 2e .cfa: $rsp .ra: .cfa 8 - ^
STACK CFI 17dc0 .cfa: $rsp 48 +
STACK CFI INIT 17ea4 28 .cfa: $rsp .ra: .cfa 8 - ^
STACK CFI 17ea4 .cfa: $rsp 48 +
STACK CFI INIT 17ef4 4e .cfa: $rsp .ra: .cfa 8 - ^
STACK CFI 17ef4 .cfa: $rsp 48 +
STACK CFI INIT 17f90 a1 .cfa: $rsp .ra: .cfa 8 - ^
STACK CFI 17f90 .cfa: $rsp 96 +
STACK CFI INIT 1805c 86 .cfa: $rsp .ra: .cfa 8 - ^
STACK CFI 1805c .cfa: $rsp 48 +
STACK CFI INIT 18158 39 .cfa: $rsp .ra: .cfa 8 - ^
STACK CFI 18158 .cfa: $rsp 48 +
STACK CFI INIT 181f0 40 .cfa: $rsp .ra: .cfa 8 - ^
STACK CFI 181f0 .cfa: $rsp 48 +
STACK CFI INIT 18240 47 .cfa: $rsp .ra: .cfa 8 - ^
STACK CFI 18240 .cfa: $rsp 48 +
STACK CFI INIT 182c4 1b .cfa: $rsp .ra: .cfa 8 - ^
STACK CFI 182c4 .cfa: $rsp 48 +
STACK CFI INIT 18310 1b .cfa: $rsp .ra: .cfa 8 - ^
STACK CFI 18310 .cfa: $rsp 48 +
STACK CFI INIT 18334 8d .cfa: $rsp .ra: .cfa 8 - ^
STACK CFI 18334 .cfa: $rsp 48 +
STACK CFI INIT 183e4 25 .cfa: $rsp .ra: .cfa 8 - ^
STACK CFI 183e4 .cfa: $rsp 48 +
STACK CFI INIT 18414 bf .cfa: $rsp .ra: .cfa 8 - ^
STACK CFI 18414 .cfa: $rsp 112 +
STACK CFI INIT 18540 175 .cfa: $rsp .ra: .cfa 8 - ^
STACK CFI 18540 .cfa: $rsp 48 +
STACK CFI INIT 18718 2b .cfa: $rsp .ra: .cfa 8 - ^
STACK CFI 18718 .cfa: $rsp 48 +
STACK CFI INIT 18750 a8 .cfa: $rsp .ra: .cfa 8 - ^
STACK CFI 18750 .cfa: $rsp 608 +
STACK CFI INIT 18824 1b3 .cfa: $rsp .ra: .cfa 8 - ^
STACK CFI 18824 .cfa: $rsp 80 +
STACK CFI INIT 18a44 31 .cfa: $rsp .ra: .cfa 8 - ^
STACK CFI 18a44 .cfa: $rsp 64 +
STACK CFI INIT 18adc 27 .cfa: $rsp .ra: .cfa 8 - ^
STACK CFI 18adc .cfa: $rsp 8 +
STACK CFI INIT 18bd0 175 .cfa: $rsp .ra: .cfa 8 - ^
STACK CFI 18bd0 .cfa: $rsp 96 +
STACK CFI INIT 18da4 171 .cfa: $rsp .ra: .cfa 8 - ^
STACK CFI 18da4 .cfa: $rsp 96 +
STACK CFI INIT 18f94 1c3 .cfa: $rsp .ra: .cfa 8 - ^
STACK CFI 18f94 .cfa: $rsp 64 +
STACK CFI INIT 191c8 1a2 .cfa: $rsp .ra: .cfa 8 - ^
STACK CFI 191c8 .cfa: $rsp 16 +
STACK CFI INIT 1941c 1b .cfa: $rsp .ra: .cfa 8 - ^
STACK CFI 1941c .cfa: $rsp 48 +
STACK CFI INIT 19440 1b .cfa: $rsp .ra: .cfa 8 - ^
STACK CFI 19440 .cfa: $rsp 48 +
STACK CFI INIT 19464 1b .cfa: $rsp .ra: .cfa 8 - ^
STACK CFI 19464 .cfa: $rsp 48 +
STACK CFI INIT 1956c 1b .cfa: $rsp .ra: .cfa 8 - ^
STACK CFI 1956c .cfa: $rsp 48 +
STACK CFI INIT 19590 1b .cfa: $rsp .ra: .cfa 8 - ^
STACK CFI 19590 .cfa: $rsp 48 +
STACK CFI INIT 195b4 1b .cfa: $rsp .ra: .cfa 8 - ^
STACK CFI 195b4 .cfa: $rsp 48 +
STACK CFI INIT 195d8 16 .cfa: $rsp .ra: .cfa 8 - ^
STACK CFI 195d8 .cfa: $rsp 48 +
STACK CFI INIT 195f8 5d .cfa: $rsp .ra: .cfa 8 - ^
STACK CFI 195f8 .cfa: $rsp 48 +
STACK CFI INIT 1966c 186 .cfa: $rsp .ra: .cfa 8 - ^
STACK CFI 1966c .cfa: $rsp 96 +
STACK CFI INIT 19854 182 .cfa: $rsp .ra: .cfa 8 - ^
STACK CFI 19854 .cfa: $rsp 96 +
STACK CFI INIT 19a5c 4e .cfa: $rsp .ra: .cfa 8 - ^
STACK CFI 19a5c .cfa: $rsp 48 +
STACK CFI INIT 19ac0 4e .cfa: $rsp .ra: .cfa 8 - ^
STACK CFI 19ac0 .cfa: $rsp 48 +
STACK CFI INIT 19b24 3b .cfa: $rsp .ra: .cfa 8 - ^
STACK CFI 19b24 .cfa: $rsp 48 +
STACK CFI INIT 19b70 3b .cfa: $rsp .ra: .cfa 8 - ^
STACK CFI 19b70 .cfa: $rsp 48 +
STACK CFI INIT 19bbc 6c .cfa: $rsp .ra: .cfa 8 - ^
STACK CFI 19bbc .cfa: $rsp 48 +
STACK CFI INIT 19c44 67 .cfa: $rsp .ra: .cfa 8 - ^
STACK CFI 19c44 .cfa: $rsp 48 +
STACK CFI INIT 19d50 106 .cfa: $rsp .ra: .cfa 8 - ^
STACK CFI 19d50 .cfa: $rsp 80 +
STACK CFI INIT 19e98 113 .cfa: $rsp .ra: .cfa 8 - ^
STACK CFI 19e98 .cfa: $rsp 80 +
STACK CFI INIT 19ff0 41 .cfa: $rsp .ra: .cfa 8 - ^
STACK CFI 19ff0 .cfa: $rsp 48 +
STACK CFI INIT 1a044 41 .cfa: $rsp .ra: .cfa 8 - ^
STACK CFI 1a044 .cfa: $rsp 48 +
STACK CFI INIT 1a0a8 d1 .cfa: $rsp .ra: .cfa 8 - ^
STACK CFI 1a0a8 .cfa: $rsp 80 +
STACK CFI INIT 1a1b0 ae .cfa: $rsp .ra: .cfa 8 - ^
STACK CFI 1a1b0 .cfa: $rsp 64 +
STACK CFI INIT 1a2fc 43 .cfa: $rsp .ra: .cfa 8 - ^
STACK CFI 1a2fc .cfa: $rsp 48 +
STACK CFI INIT 1a350 43 .cfa: $rsp .ra: .cfa 8 - ^
STACK CFI 1a350 .cfa: $rsp 48 +
STACK CFI INIT 1a3a4 1a .cfa: $rsp .ra: .cfa 8 - ^
STACK CFI 1a3a4 .cfa: $rsp 48 +
STACK CFI INIT 1a3c4 1a .cfa: $rsp .ra: .cfa 8 - ^
STACK CFI 1a3c4 .cfa: $rsp 48 +
STACK CFI INIT 1a3ec 1b .cfa: $rsp .ra: .cfa 8 - ^
STACK CFI 1a3ec .cfa: $rsp 48 +
STACK CFI INIT 1a434 24 .cfa: $rsp .ra: .cfa 8 - ^
STACK CFI 1a434 .cfa: $rsp 64 +
STACK CFI INIT 1a464 2e .cfa: $rsp .ra: .cfa 8 - ^
STACK CFI 1a464 .cfa: $rsp 80 +
STACK CFI INIT 1a4a0 23 .cfa: $rsp .ra: .cfa 8 - ^
STACK CFI 1a4a0 .cfa: $rsp 64 +
STACK CFI INIT 1a4cc 2e .cfa: $rsp .ra: .cfa 8 - ^
STACK CFI 1a4cc .cfa: $rsp 80 +
STACK CFI INIT 1a56c 27 .cfa: $rsp .ra: .cfa 8 - ^
STACK CFI 1a56c .cfa: $rsp 8 +
STACK CFI INIT 1a59c 27 .cfa: $rsp .ra: .cfa 8 - ^
STACK CFI 1a59c .cfa: $rsp 8 +
STACK CFI INIT 1a5fc 1b .cfa: $rsp .ra: .cfa 8 - ^
STACK CFI 1a5fc .cfa: $rsp 48 +
STACK CFI INIT 1a628 3b .cfa: $rsp .ra: .cfa 8 - ^
STACK CFI 1a628 .cfa: $rsp 48 +
STACK CFI INIT 1a674 3b .cfa: $rsp .ra: .cfa 8 - ^
STACK CFI 1a674 .cfa: $rsp 48 +
STACK CFI INIT 1a6c0 38 .cfa: $rsp .ra: .cfa 8 - ^
STACK CFI 1a6c0 .cfa: $rsp 48 +
STACK CFI INIT 1a720 4e .cfa: $rsp .ra: .cfa 8 - ^
STACK CFI 1a720 .cfa: $rsp 48 +
STACK CFI INIT 1a784 4e .cfa: $rsp .ra: .cfa 8 - ^
STACK CFI 1a784 .cfa: $rsp 48 +
STACK CFI INIT 1a7f8 64 .cfa: $rsp .ra: .cfa 8 - ^
STACK CFI 1a7f8 .cfa: $rsp 48 +
STACK CFI INIT 1a878 3d .cfa: $rsp .ra: .cfa 8 - ^
STACK CFI 1a878 .cfa: $rsp 48 +
STACK CFI INIT 1a8e8 38 .cfa: $rsp .ra: .cfa 8 - ^
STACK CFI 1a8e8 .cfa: $rsp 48 +
STACK CFI INIT 1a930 26 .cfa: $rsp .ra: .cfa 8 - ^
STACK CFI 1a930 .cfa: $rsp 48 +
STACK CFI INIT 1a9e4 21 .cfa: $rsp .ra: .cfa 8 - ^
STACK CFI 1a9e4 .cfa: $rsp 48 +
STACK CFI INIT 1aa18 d6 .cfa: $rsp .ra: .cfa 8 - ^
STACK CFI 1aa18 .cfa: $rsp 48 +
STACK CFI INIT 1ab48 21 .cfa: $rsp .ra: .cfa 8 - ^
STACK CFI 1ab48 .cfa: $rsp 48 +
STACK CFI INIT 1ab74 14 .cfa: $rsp .ra: .cfa 8 - ^
STACK CFI 1ab74 .cfa: $rsp 48 +
STACK CFI INIT 1ab90 bc .cfa: $rsp .ra: .cfa 8 - ^
STACK CFI 1ab90 .cfa: $rsp 96 +
STACK CFI INIT 1ac7c 4a .cfa: $rsp .ra: .cfa 8 - ^
STACK CFI 1ac7c .cfa: $rsp 48 +
STACK CFI INIT 1ace4 54 .cfa: $rsp .ra: .cfa 8 - ^
STACK CFI 1ace4 .cfa: $rsp 48 +
STACK CFI INIT 1ad50 2d .cfa: $rsp .ra: .cfa 8 - ^
STACK CFI 1ad50 .cfa: $rsp 48 +
STACK CFI INIT 1ad88 5b .cfa: $rsp .ra: .cfa 8 - ^
STACK CFI 1ad88 .cfa: $rsp 48 +
STACK CFI INIT 1ae54 44 .cfa: $rsp .ra: .cfa 8 - ^
STACK CFI 1ae54 .cfa: $rsp 48 +
STACK CFI INIT 1aed0 2f .cfa: $rsp .ra: .cfa 8 - ^
STACK CFI 1aed0 .cfa: $rsp 48 +
STACK CFI INIT 1af0c 3d .cfa: $rsp .ra: .cfa 8 - ^
STACK CFI 1af0c .cfa: $rsp 48 +
STACK CFI INIT 1af58 102 .cfa: $rsp .ra: .cfa 8 - ^
STACK CFI 1af58 .cfa: $rsp 64 +
STACK CFI INIT 1b09c df .cfa: $rsp .ra: .cfa 8 - ^
STACK CFI 1b09c .cfa: $rsp 8 +
STACK CFI INIT 1b1b4 25 .cfa: $rsp .ra: .cfa 8 - ^
STACK CFI 1b1b4 .cfa: $rsp 48 +
STACK CFI INIT 1b23c 36 .cfa: $rsp .ra: .cfa 8 - ^
STACK CFI 1b23c .cfa: $rsp 48 +
STACK CFI INIT 1b280 36 .cfa: $rsp .ra: .cfa 8 - ^
STACK CFI 1b280 .cfa: $rsp 48 +
STACK CFI INIT 1b2ec 3e .cfa: $rsp .ra: .cfa 8 - ^
STACK CFI 1b2ec .cfa: $rsp 48 +
STACK CFI INIT 1b33c 13a .cfa: $rsp .ra: .cfa 8 - ^
STACK CFI 1b33c .cfa: $rsp 48 +
STACK CFI INIT 1b4c4 6e .cfa: $rsp .ra: .cfa 8 - ^
STACK CFI 1b4c4 .cfa: $rsp 64 +
STACK CFI INIT 1b550 29 .cfa: $rsp .ra: .cfa 8 - ^
STACK CFI 1b550 .cfa: $rsp 48 +
STACK CFI INIT 1b584 41 .cfa: $rsp .ra: .cfa 8 - ^
STACK CFI 1b584 .cfa: $rsp 48 +
STACK CFI INIT 1b5d8 26 .cfa: $rsp .ra: .cfa 8 - ^
STACK CFI 1b5d8 .cfa: $rsp 48 +
STACK CFI INIT 1b608 26 .cfa: $rsp .ra: .cfa 8 - ^
STACK CFI 1b608 .cfa: $rsp 48 +
STACK CFI INIT 1b638 26 .cfa: $rsp .ra: .cfa 8 - ^
STACK CFI 1b638 .cfa: $rsp 48 +
STACK CFI INIT 1b668 26 .cfa: $rsp .ra: .cfa 8 - ^
STACK CFI 1b668 .cfa: $rsp 48 +
STACK CFI INIT 1b6b8 4e .cfa: $rsp .ra: .cfa 8 - ^
STACK CFI 1b6b8 .cfa: $rsp 48 +
STACK CFI INIT 1b804 1b .cfa: $rsp .ra: .cfa 8 - ^
STACK CFI 1b804 .cfa: $rsp 48 +
STACK CFI INIT 1b828 1b .cfa: $rsp .ra: .cfa 8 - ^
STACK CFI 1b828 .cfa: $rsp 48 +
STACK CFI INIT 1b84c 1b .cfa: $rsp .ra: .cfa 8 - ^
STACK CFI 1b84c .cfa: $rsp 48 +
STACK CFI INIT 1b8ac 8e .cfa: $rsp .ra: .cfa 8 - ^
STACK CFI 1b8ac .cfa: $rsp 96 +
STACK CFI INIT 1b960 26 .cfa: $rsp .ra: .cfa 8 - ^
STACK CFI 1b960 .cfa: $rsp 48 +
STACK CFI INIT 1b998 2c .cfa: $rsp .ra: .cfa 8 - ^
STACK CFI 1b998 .cfa: $rsp 48 +
STACK CFI INIT 1ba30 11d .cfa: $rsp .ra: .cfa 8 - ^
STACK CFI 1ba30 .cfa: $rsp 48 +
STACK CFI INIT 1bbe8 1b .cfa: $rsp .ra: .cfa 8 - ^
STACK CFI 1bbe8 .cfa: $rsp 48 +
STACK CFI INIT 1bc0c 1b .cfa: $rsp .ra: .cfa 8 - ^
STACK CFI 1bc0c .cfa: $rsp 48 +
STACK CFI INIT 1bc30 1b .cfa: $rsp .ra: .cfa 8 - ^
STACK CFI 1bc30 .cfa: $rsp 48 +
STACK CFI INIT 1bc58 82 .cfa: $rsp .ra: .cfa 8 - ^
STACK CFI 1bc58 .cfa: $rsp 64 +
STACK CFI INIT 1bd0c 2e .cfa: $rsp .ra: .cfa 8 - ^
STACK CFI 1bd0c .cfa: $rsp 48 +
STACK CFI INIT 1bd48 a2 .cfa: $rsp .ra: .cfa 8 - ^
STACK CFI 1bd48 .cfa: $rsp 64 +
STACK CFI INIT 1be14 1c0 .cfa: $rsp .ra: .cfa 8 - ^
STACK CFI 1be14 .cfa: $rsp 80 +
STACK CFI INIT 1c044 69 .cfa: $rsp .ra: .cfa 8 - ^
STACK CFI 1c044 .cfa: $rsp 48 +
STACK CFI INIT 1c0c8 be .cfa: $rsp .ra: .cfa 8 - ^
STACK CFI 1c0c8 .cfa: $rsp 48 +
STACK CFI INIT 1c1b8 76 .cfa: $rsp .ra: .cfa 8 - ^
STACK CFI 1c1b8 .cfa: $rsp 352 +
STACK CFI INIT 1c24c 487 .cfa: $rsp .ra: .cfa 8 - ^
STACK CFI 1c24c .cfa: $rsp 656 +
STACK CFI INIT 1c7f4 a2 .cfa: $rsp .ra: .cfa 8 - ^
STACK CFI 1c7f4 .cfa: $rsp 48 +
STACK CFI INIT 1c8c0 bb .cfa: $rsp .ra: .cfa 8 - ^
STACK CFI 1c8c0 .cfa: $rsp 80 +
STACK CFI INIT 1c9ac 148 .cfa: $rsp .ra: .cfa 8 - ^
STACK CFI 1c9ac .cfa: $rsp 64 +
STACK CFI INIT 1cb48 65 .cfa: $rsp .ra: .cfa 8 - ^
STACK CFI 1cb48 .cfa: $rsp 96 +
STACK CFI INIT 1cbc8 a1 .cfa: $rsp .ra: .cfa 8 - ^
STACK CFI 1cbc8 .cfa: $rsp 112 +
STACK CFI INIT 1cc94 1e2 .cfa: $rsp .ra: .cfa 8 - ^
STACK CFI 1cc94 .cfa: $rsp 96 +
STACK CFI INIT 1cef0 294 .cfa: $rsp .ra: .cfa 8 - ^
STACK CFI 1cef0 .cfa: $rsp 576 +
STACK CFI INIT 1d22c 34f .cfa: $rsp .ra: .cfa 8 - ^
STACK CFI 1d22c .cfa: $rsp 880 +
STACK CFI INIT 1d690 2b .cfa: $rsp .ra: .cfa 8 - ^
STACK CFI 1d690 .cfa: $rsp 48 +
STACK CFI INIT 1d704 3b .cfa: $rsp .ra: .cfa 8 - ^
STACK CFI 1d704 .cfa: $rsp 48 +
STACK CFI INIT 1d750 3b .cfa: $rsp .ra: .cfa 8 - ^
STACK CFI 1d750 .cfa: $rsp 48 +
STACK CFI INIT 1d79c 26 .cfa: $rsp .ra: .cfa 8 - ^
STACK CFI 1d79c .cfa: $rsp 48 +
STACK CFI INIT 1d7cc 26 .cfa: $rsp .ra: .cfa 8 - ^
STACK CFI 1d7cc .cfa: $rsp 48 +
STACK CFI INIT 1d874 1b .cfa: $rsp .ra: .cfa 8 - ^
STACK CFI 1d874 .cfa: $rsp 48 +
STACK CFI INIT 1d8bc 1c3 .cfa: $rsp .ra: .cfa 8 - ^
STACK CFI 1d8bc .cfa: $rsp 64 +
STACK CFI INIT 1daf0 149 .cfa: $rsp .ra: .cfa 8 - ^
STACK CFI 1daf0 .cfa: $rsp 80 +
STACK CFI INIT 1dc98 1b .cfa: $rsp .ra: .cfa 8 - ^
STACK CFI 1dc98 .cfa: $rsp 48 +
STACK CFI INIT 1dce4 3a .cfa: $rsp .ra: .cfa 8 - ^
STACK CFI 1dce4 .cfa: $rsp 64 +
STACK CFI INIT 1dd7c 48 .cfa: $rsp .ra: .cfa 8 - ^
STACK CFI 1dd7c .cfa: $rsp 80 +
STACK CFI INIT 1ddf0 23 .cfa: $rsp .ra: .cfa 8 - ^
STACK CFI 1ddf0 .cfa: $rsp 48 +
STACK CFI INIT 1de24 10 .cfa: $rsp .ra: .cfa 8 - ^
STACK CFI 1de24 .cfa: $rsp 48 +
STACK CFI INIT 1de40 51 .cfa: $rsp .ra: .cfa 8 - ^
STACK CFI 1de40 .cfa: $rsp 48 +
STACK CFI INIT 1deb0 40 .cfa: $rsp .ra: .cfa 8 - ^
STACK CFI 1deb0 .cfa: $rsp 48 +
STACK CFI INIT 1df00 5b .cfa: $rsp .ra: .cfa 8 - ^
STACK CFI 1df00 .cfa: $rsp 48 +
STACK CFI INIT 1df78 6f .cfa: $rsp .ra: .cfa 8 - ^
STACK CFI 1df78 .cfa: $rsp 48 +
STACK CFI INIT 1e004 3e .cfa: $rsp .ra: .cfa 8 - ^
STACK CFI 1e004 .cfa: $rsp 48 +
STACK CFI INIT 1e064 27 .cfa: $rsp .ra: .cfa 8 - ^
STACK CFI 1e064 .cfa: $rsp 8 +
STACK CFI INIT 1e0ac 14 .cfa: $rsp .ra: .cfa 8 - ^
STACK CFI 1e0ac .cfa: $rsp 48 +
STACK CFI INIT 1e0c8 10 .cfa: $rsp .ra: .cfa 8 - ^
STACK CFI 1e0c8 .cfa: $rsp 48 +
STACK CFI INIT 1e0dc 35 .cfa: $rsp .ra: .cfa 8 - ^
STACK CFI 1e0dc .cfa: $rsp 48 +
STACK CFI INIT 1e120 10 .cfa: $rsp .ra: .cfa 8 - ^
STACK CFI 1e120 .cfa: $rsp 48 +
STACK CFI INIT 1e14c 22 .cfa: $rsp .ra: .cfa 8 - ^
STACK CFI 1e14c .cfa: $rsp 48 +
STACK CFI INIT 1e178 2c .cfa: $rsp .ra: .cfa 8 - ^
STACK CFI 1e178 .cfa: $rsp 48 +
STACK CFI INIT 1e1b0 20 .cfa: $rsp .ra: .cfa 8 - ^
STACK CFI 1e1b0 .cfa: $rsp 48 +
STACK CFI INIT 1e1f8 71 .cfa: $rsp .ra: .cfa 8 - ^
STACK CFI 1e1f8 .cfa: $rsp 48 +
STACK CFI INIT 1e288 6e .cfa: $rsp .ra: .cfa 8 - ^
STACK CFI 1e288 .cfa: $rsp 48 +
STACK CFI INIT 1e338 56 .cfa: $rsp .ra: .cfa 8 - ^
STACK CFI 1e338 .cfa: $rsp 48 +
STACK CFI INIT 1e3e4 81 .cfa: $rsp .ra: .cfa 8 - ^
STACK CFI 1e3e4 .cfa: $rsp 8 +
STACK CFI INIT 1e488 9e .cfa: $rsp .ra: .cfa 8 - ^
STACK CFI 1e488 .cfa: $rsp 8 +
STACK CFI INIT 1e550 81 .cfa: $rsp .ra: .cfa 8 - ^
STACK CFI 1e550 .cfa: $rsp 8 +
STACK CFI INIT 1e5f4 85 .cfa: $rsp .ra: .cfa 8 - ^
STACK CFI 1e5f4 .cfa: $rsp 8 +
STACK CFI INIT 1e69c a2 .cfa: $rsp .ra: .cfa 8 - ^
STACK CFI 1e69c .cfa: $rsp 8 +
STACK CFI INIT 1e768 85 .cfa: $rsp .ra: .cfa 8 - ^
STACK CFI 1e768 .cfa: $rsp 8 +
STACK CFI INIT 1e810 81 .cfa: $rsp .ra: .cfa 8 - ^
STACK CFI 1e810 .cfa: $rsp 8 +
STACK CFI INIT 1e8b4 9e .cfa: $rsp .ra: .cfa 8 - ^
STACK CFI 1e8b4 .cfa: $rsp 8 +
STACK CFI INIT 1e97c 81 .cfa: $rsp .ra: .cfa 8 - ^
STACK CFI 1e97c .cfa: $rsp 8 +
STACK CFI INIT 1ea20 85 .cfa: $rsp .ra: .cfa 8 - ^
STACK CFI 1ea20 .cfa: $rsp 8 +
STACK CFI INIT 1eac8 a2 .cfa: $rsp .ra: .cfa 8 - ^
STACK CFI 1eac8 .cfa: $rsp 8 +
STACK CFI INIT 1eb94 85 .cfa: $rsp .ra: .cfa 8 - ^
STACK CFI 1eb94 .cfa: $rsp 8 +
STACK CFI INIT 1ec3c 3d .cfa: $rsp .ra: .cfa 8 - ^
STACK CFI 1ec3c .cfa: $rsp 48 +
STACK CFI INIT 1ec88 3d .cfa: $rsp .ra: .cfa 8 - ^
STACK CFI 1ec88 .cfa: $rsp 48 +
STACK CFI INIT 1ecd4 3d .cfa: $rsp .ra: .cfa 8 - ^
STACK CFI 1ecd4 .cfa: $rsp 48 +
STACK CFI INIT 1ed20 3d .cfa: $rsp .ra: .cfa 8 - ^
STACK CFI 1ed20 .cfa: $rsp 48 +
STACK CFI INIT 1ed6c 3d .cfa: $rsp .ra: .cfa 8 - ^
STACK CFI 1ed6c .cfa: $rsp 48 +
STACK CFI INIT 1edb8 3d .cfa: $rsp .ra: .cfa 8 - ^
STACK CFI 1edb8 .cfa: $rsp 48 +
STACK CFI INIT 1ee04 28 .cfa: $rsp .ra: .cfa 8 - ^
STACK CFI 1ee04 .cfa: $rsp 48 +
STACK CFI INIT 1ee38 28 .cfa: $rsp .ra: .cfa 8 - ^
STACK CFI 1ee38 .cfa: $rsp 48 +
STACK CFI INIT 1ee6c 28 .cfa: $rsp .ra: .cfa 8 - ^
STACK CFI 1ee6c .cfa: $rsp 48 +
STACK CFI INIT 1eea0 28 .cfa: $rsp .ra: .cfa 8 - ^
STACK CFI 1eea0 .cfa: $rsp 48 +
STACK CFI INIT 1eed4 28 .cfa: $rsp .ra: .cfa 8 - ^
STACK CFI 1eed4 .cfa: $rsp 48 +
STACK CFI INIT 1ef08 28 .cfa: $rsp .ra: .cfa 8 - ^
STACK CFI 1ef08 .cfa: $rsp 48 +
STACK CFI INIT 1ef3c 85 .cfa: $rsp .ra: .cfa 8 - ^
STACK CFI 1ef3c .cfa: $rsp 112 +
STACK CFI INIT 1efe4 85 .cfa: $rsp .ra: .cfa 8 - ^
STACK CFI 1efe4 .cfa: $rsp 112 +
STACK CFI INIT 1f08c 85 .cfa: $rsp .ra: .cfa 8 - ^
STACK CFI 1f08c .cfa: $rsp 112 +
STACK CFI INIT 1f134 85 .cfa: $rsp .ra: .cfa 8 - ^
STACK CFI 1f134 .cfa: $rsp 112 +
STACK CFI INIT 1f1dc 85 .cfa: $rsp .ra: .cfa 8 - ^
STACK CFI 1f1dc .cfa: $rsp 112 +
STACK CFI INIT 1f284 85 .cfa: $rsp .ra: .cfa 8 - ^
STACK CFI 1f284 .cfa: $rsp 112 +
STACK CFI INIT 1f32c 116 .cfa: $rsp .ra: .cfa 8 - ^
STACK CFI 1f32c .cfa: $rsp 64 +
STACK CFI INIT 1f488 119 .cfa: $rsp .ra: .cfa 8 - ^
STACK CFI 1f488 .cfa: $rsp 80 +
STACK CFI INIT 1f5e8 1cb .cfa: $rsp .ra: .cfa 8 - ^
STACK CFI 1f5e8 .cfa: $rsp 1328 +
STACK CFI INIT 1f828 1d2 .cfa: $rsp .ra: .cfa 8 - ^
STACK CFI 1f828 .cfa: $rsp 1328 +
STACK CFI INIT 1fa70 1e7 .cfa: $rsp .ra: .cfa 8 - ^
STACK CFI 1fa70 .cfa: $rsp 3744 +
STACK CFI INIT 1fcd0 1ee .cfa: $rsp .ra: .cfa 8 - ^
STACK CFI 1fcd0 .cfa: $rsp 3744 +
STACK CFI INIT 1ff3c 1cb .cfa: $rsp .ra: .cfa 8 - ^
STACK CFI 1ff3c .cfa: $rsp 1328 +
STACK CFI INIT 2017c 1d2 .cfa: $rsp .ra: .cfa 8 - ^
STACK CFI 2017c .cfa: $rsp 1328 +
STACK CFI INIT 203c4 63 .cfa: $rsp .ra: .cfa 8 - ^
STACK CFI 203c4 .cfa: $rsp 64 +
STACK CFI INIT 20440 6e .cfa: $rsp .ra: .cfa 8 - ^
STACK CFI 20440 .cfa: $rsp 64 +
STACK CFI INIT 2053c a6 .cfa: $rsp .ra: .cfa 8 - ^
STACK CFI 2053c .cfa: $rsp 48 +
STACK CFI INIT 2060c a9 .cfa: $rsp .ra: .cfa 8 - ^
STACK CFI 2060c .cfa: $rsp 48 +
STACK CFI INIT 206e0 bc .cfa: $rsp .ra: .cfa 8 - ^
STACK CFI 206e0 .cfa: $rsp 64 +
STACK CFI INIT 207cc bc .cfa: $rsp .ra: .cfa 8 - ^
STACK CFI 207cc .cfa: $rsp 64 +
STACK CFI INIT 208b8 be .cfa: $rsp .ra: .cfa 8 - ^
STACK CFI 208b8 .cfa: $rsp 64 +
STACK CFI INIT 209a8 be .cfa: $rsp .ra: .cfa 8 - ^
STACK CFI 209a8 .cfa: $rsp 64 +
STACK CFI INIT 20b08 bb .cfa: $rsp .ra: .cfa 8 - ^
STACK CFI 20b08 .cfa: $rsp 64 +
STACK CFI INIT 20bf4 bb .cfa: $rsp .ra: .cfa 8 - ^
STACK CFI 20bf4 .cfa: $rsp 64 +
STACK CFI INIT 20ce0 bd .cfa: $rsp .ra: .cfa 8 - ^
STACK CFI 20ce0 .cfa: $rsp 64 +
STACK CFI INIT 20dcc bd .cfa: $rsp .ra: .cfa 8 - ^
STACK CFI 20dcc .cfa: $rsp 64 +
STACK CFI INIT 20f18 bc .cfa: $rsp .ra: .cfa 8 - ^
STACK CFI 20f18 .cfa: $rsp 64 +
STACK CFI INIT 21004 bc .cfa: $rsp .ra: .cfa 8 - ^
STACK CFI 21004 .cfa: $rsp 64 +
STACK CFI INIT 210f0 be .cfa: $rsp .ra: .cfa 8 - ^
STACK CFI 210f0 .cfa: $rsp 64 +
STACK CFI INIT 211e0 be .cfa: $rsp .ra: .cfa 8 - ^
STACK CFI 211e0 .cfa: $rsp 64 +
STACK CFI INIT 21340 b8 .cfa: $rsp .ra: .cfa 8 - ^
STACK CFI 21340 .cfa: $rsp 64 +
STACK CFI INIT 21428 b8 .cfa: $rsp .ra: .cfa 8 - ^
STACK CFI 21428 .cfa: $rsp 64 +
STACK CFI INIT 21540 bb .cfa: $rsp .ra: .cfa 8 - ^
STACK CFI 21540 .cfa: $rsp 64 +
STACK CFI INIT 2162c bb .cfa: $rsp .ra: .cfa 8 - ^
STACK CFI 2162c .cfa: $rsp 64 +
STACK CFI INIT 21718 bd .cfa: $rsp .ra: .cfa 8 - ^
STACK CFI 21718 .cfa: $rsp 64 +
STACK CFI INIT 21804 bd .cfa: $rsp .ra: .cfa 8 - ^
STACK CFI 21804 .cfa: $rsp 64 +
STACK CFI INIT 21950 ba .cfa: $rsp .ra: .cfa 8 - ^
STACK CFI 21950 .cfa: $rsp 64 +
STACK CFI INIT 21a38 ba .cfa: $rsp .ra: .cfa 8 - ^
STACK CFI 21a38 .cfa: $rsp 64 +
STACK CFI INIT 21b20 bc .cfa: $rsp .ra: .cfa 8 - ^
STACK CFI 21b20 .cfa: $rsp 64 +
STACK CFI INIT 21c0c bc .cfa: $rsp .ra: .cfa 8 - ^
STACK CFI 21c0c .cfa: $rsp 64 +
STACK CFI INIT 21d58 b9 .cfa: $rsp .ra: .cfa 8 - ^
STACK CFI 21d58 .cfa: $rsp 64 +
STACK CFI INIT 21e40 b9 .cfa: $rsp .ra: .cfa 8 - ^
STACK CFI 21e40 .cfa: $rsp 64 +
STACK CFI INIT 21f28 bb .cfa: $rsp .ra: .cfa 8 - ^
STACK CFI 21f28 .cfa: $rsp 64 +
STACK CFI INIT 22014 bb .cfa: $rsp .ra: .cfa 8 - ^
STACK CFI 22014 .cfa: $rsp 64 +
STACK CFI INIT 22160 ba .cfa: $rsp .ra: .cfa 8 - ^
STACK CFI 22160 .cfa: $rsp 64 +
STACK CFI INIT 22248 ba .cfa: $rsp .ra: .cfa 8 - ^
STACK CFI 22248 .cfa: $rsp 64 +
STACK CFI INIT 22330 bc .cfa: $rsp .ra: .cfa 8 - ^
STACK CFI 22330 .cfa: $rsp 64 +
STACK CFI INIT 2241c bc .cfa: $rsp .ra: .cfa 8 - ^
STACK CFI 2241c .cfa: $rsp 64 +
STACK CFI INIT 22580 ba .cfa: $rsp .ra: .cfa 8 - ^
STACK CFI 22580 .cfa: $rsp 64 +
STACK CFI INIT 226b0 ba .cfa: $rsp .ra: .cfa 8 - ^
STACK CFI 226b0 .cfa: $rsp 64 +
STACK CFI INIT 227e0 bc .cfa: $rsp .ra: .cfa 8 - ^
STACK CFI 227e0 .cfa: $rsp 64 +
STACK CFI INIT 22914 bc .cfa: $rsp .ra: .cfa 8 - ^
STACK CFI 22914 .cfa: $rsp 64 +
STACK CFI INIT 22a30 ba .cfa: $rsp .ra: .cfa 8 - ^
STACK CFI 22a30 .cfa: $rsp 64 +
STACK CFI INIT 22b18 ba .cfa: $rsp .ra: .cfa 8 - ^
STACK CFI 22b18 .cfa: $rsp 64 +
STACK CFI INIT 22c00 bc .cfa: $rsp .ra: .cfa 8 - ^
STACK CFI 22c00 .cfa: $rsp 64 +
STACK CFI INIT 22cec bc .cfa: $rsp .ra: .cfa 8 - ^
STACK CFI 22cec .cfa: $rsp 64 +
STACK CFI INIT 22e38 ba .cfa: $rsp .ra: .cfa 8 - ^
STACK CFI 22e38 .cfa: $rsp 64 +
STACK CFI INIT 22f20 ba .cfa: $rsp .ra: .cfa 8 - ^
STACK CFI 22f20 .cfa: $rsp 64 +
STACK CFI INIT 23008 bc .cfa: $rsp .ra: .cfa 8 - ^
STACK CFI 23008 .cfa: $rsp 64 +
STACK CFI INIT 230f4 bc .cfa: $rsp .ra: .cfa 8 - ^
STACK CFI 230f4 .cfa: $rsp 64 +
STACK CFI INIT 23250 ba .cfa: $rsp .ra: .cfa 8 - ^
STACK CFI 23250 .cfa: $rsp 64 +
STACK CFI INIT 23338 ba .cfa: $rsp .ra: .cfa 8 - ^
STACK CFI 23338 .cfa: $rsp 64 +
STACK CFI INIT 23420 bc .cfa: $rsp .ra: .cfa 8 - ^
STACK CFI 23420 .cfa: $rsp 64 +
STACK CFI INIT 2350c bc .cfa: $rsp .ra: .cfa 8 - ^
STACK CFI 2350c .cfa: $rsp 64 +
STACK CFI INIT 23658 ba .cfa: $rsp .ra: .cfa 8 - ^
STACK CFI 23658 .cfa: $rsp 64 +
STACK CFI INIT 23740 ba .cfa: $rsp .ra: .cfa 8 - ^
STACK CFI 23740 .cfa: $rsp 64 +
STACK CFI INIT 23828 bc .cfa: $rsp .ra: .cfa 8 - ^
STACK CFI 23828 .cfa: $rsp 64 +
STACK CFI INIT 23914 bc .cfa: $rsp .ra: .cfa 8 - ^
STACK CFI 23914 .cfa: $rsp 64 +
STACK CFI INIT 23a60 bc .cfa: $rsp .ra: .cfa 8 - ^
STACK CFI 23a60 .cfa: $rsp 64 +
STACK CFI INIT 23b4c bc .cfa: $rsp .ra: .cfa 8 - ^
STACK CFI 23b4c .cfa: $rsp 64 +
STACK CFI INIT 23c38 be .cfa: $rsp .ra: .cfa 8 - ^
STACK CFI 23c38 .cfa: $rsp 64 +
STACK CFI INIT 23d28 be .cfa: $rsp .ra: .cfa 8 - ^
STACK CFI 23d28 .cfa: $rsp 64 +
STACK CFI INIT 2434c 8e .cfa: $rsp .ra: .cfa 8 - ^
STACK CFI 2434c .cfa: $rsp 8 +
STACK CFI INIT 24400 8e .cfa: $rsp .ra: .cfa 8 - ^
STACK CFI 24400 .cfa: $rsp 8 +
STACK CFI INIT 244b4 8e .cfa: $rsp .ra: .cfa 8 - ^
STACK CFI 244b4 .cfa: $rsp 8 +
STACK CFI INIT 24568 8e .cfa: $rsp .ra: .cfa 8 - ^
STACK CFI 24568 .cfa: $rsp 8 +
STACK CFI INIT 2461c 8e .cfa: $rsp .ra: .cfa 8 - ^
STACK CFI 2461c .cfa: $rsp 8 +
STACK CFI INIT 246d0 8e .cfa: $rsp .ra: .cfa 8 - ^
STACK CFI 246d0 .cfa: $rsp 8 +
STACK CFI INIT 24784 a0 .cfa: $rsp .ra: .cfa 8 - ^
STACK CFI 24784 .cfa: $rsp 8 +
STACK CFI INIT 2484c a0 .cfa: $rsp .ra: .cfa 8 - ^
STACK CFI 2484c .cfa: $rsp 8 +
STACK CFI INIT 24914 a0 .cfa: $rsp .ra: .cfa 8 - ^
STACK CFI 24914 .cfa: $rsp 8 +
STACK CFI INIT 249dc a0 .cfa: $rsp .ra: .cfa 8 - ^
STACK CFI 249dc .cfa: $rsp 8 +
STACK CFI INIT 24aa4 a0 .cfa: $rsp .ra: .cfa 8 - ^
STACK CFI 24aa4 .cfa: $rsp 8 +
STACK CFI INIT 24b6c a0 .cfa: $rsp .ra: .cfa 8 - ^
STACK CFI 24b6c .cfa: $rsp 8 +
STACK CFI INIT 24c34 94 .cfa: $rsp .ra: .cfa 8 - ^
STACK CFI 24c34 .cfa: $rsp 8 +
STACK CFI INIT 24cf0 94 .cfa: $rsp .ra: .cfa 8 - ^
STACK CFI 24cf0 .cfa: $rsp 8 +
STACK CFI INIT 24dac 94 .cfa: $rsp .ra: .cfa 8 - ^
STACK CFI 24dac .cfa: $rsp 8 +
STACK CFI INIT 24e68 94 .cfa: $rsp .ra: .cfa 8 - ^
STACK CFI 24e68 .cfa: $rsp 8 +
STACK CFI INIT 24f24 94 .cfa: $rsp .ra: .cfa 8 - ^
STACK CFI 24f24 .cfa: $rsp 8 +
STACK CFI INIT 24fe0 94 .cfa: $rsp .ra: .cfa 8 - ^
STACK CFI 24fe0 .cfa: $rsp 8 +
STACK CFI INIT 2509c a1 .cfa: $rsp .ra: .cfa 8 - ^
STACK CFI 2509c .cfa: $rsp 8 +
STACK CFI INIT 25168 a1 .cfa: $rsp .ra: .cfa 8 - ^
STACK CFI 25168 .cfa: $rsp 8 +
STACK CFI INIT 25234 a1 .cfa: $rsp .ra: .cfa 8 - ^
STACK CFI 25234 .cfa: $rsp 8 +
STACK CFI INIT 25300 a1 .cfa: $rsp .ra: .cfa 8 - ^
STACK CFI 25300 .cfa: $rsp 8 +
STACK CFI INIT 253cc a1 .cfa: $rsp .ra: .cfa 8 - ^
STACK CFI 253cc .cfa: $rsp 8 +
STACK CFI INIT 25498 a1 .cfa: $rsp .ra: .cfa 8 - ^
STACK CFI 25498 .cfa: $rsp 8 +
STACK CFI INIT 25564 8b .cfa: $rsp .ra: .cfa 8 - ^
STACK CFI 25564 .cfa: $rsp 48 +
STACK CFI INIT 25614 91 .cfa: $rsp .ra: .cfa 8 - ^
STACK CFI 25614 .cfa: $rsp 48 +
STACK CFI INIT 256cc 75 .cfa: $rsp .ra: .cfa 8 - ^
STACK CFI 256cc .cfa: $rsp 8 +
STACK CFI INIT 25760 7a .cfa: $rsp .ra: .cfa 8 - ^
STACK CFI 25760 .cfa: $rsp 8 +
STACK CFI INIT 2633c 9b .cfa: $rsp .ra: .cfa 8 - ^
STACK CFI 2633c .cfa: $rsp 48 +
STACK CFI INIT 26400 20 .cfa: $rsp .ra: .cfa 8 - ^
STACK CFI 26400 .cfa: $rsp 48 +
STACK CFI INIT 2646c 23 .cfa: $rsp .ra: .cfa 8 - ^
STACK CFI 2646c .cfa: $rsp 48 +
STACK CFI INIT 26498 23 .cfa: $rsp .ra: .cfa 8 - ^
STACK CFI 26498 .cfa: $rsp 48 +
STACK CFI INIT 264c4 23 .cfa: $rsp .ra: .cfa 8 - ^
STACK CFI 264c4 .cfa: $rsp 48 +
STACK CFI INIT 264f0 23 .cfa: $rsp .ra: .cfa 8 - ^
STACK CFI 264f0 .cfa: $rsp 48 +
STACK CFI INIT 2651c 23 .cfa: $rsp .ra: .cfa 8 - ^
STACK CFI 2651c .cfa: $rsp 48 +
STACK CFI INIT 26548 23 .cfa: $rsp .ra: .cfa 8 - ^
STACK CFI 26548 .cfa: $rsp 48 +
STACK CFI INIT 26574 23 .cfa: $rsp .ra: .cfa 8 - ^
STACK CFI 26574 .cfa: $rsp 48 +
STACK CFI INIT 265a0 23 .cfa: $rsp .ra: .cfa 8 - ^
STACK CFI 265a0 .cfa: $rsp 48 +
STACK CFI INIT 265cc 23 .cfa: $rsp .ra: .cfa 8 - ^
STACK CFI 265cc .cfa: $rsp 48 +
STACK CFI INIT 265f8 23 .cfa: $rsp .ra: .cfa 8 - ^
STACK CFI 265f8 .cfa: $rsp 48 +
STACK CFI INIT 26624 23 .cfa: $rsp .ra: .cfa 8 - ^
STACK CFI 26624 .cfa: $rsp 48 +
STACK CFI INIT 26650 23 .cfa: $rsp .ra: .cfa 8 - ^
STACK CFI 26650 .cfa: $rsp 48 +
STACK CFI INIT 2667c 23 .cfa: $rsp .ra: .cfa 8 - ^
STACK CFI 2667c .cfa: $rsp 48 +
STACK CFI INIT 266a8 23 .cfa: $rsp .ra: .cfa 8 - ^
STACK CFI 266a8 .cfa: $rsp 48 +
STACK CFI INIT 266d4 23 .cfa: $rsp .ra: .cfa 8 - ^
STACK CFI 266d4 .cfa: $rsp 48 +
STACK CFI INIT 26700 23 .cfa: $rsp .ra: .cfa 8 - ^
STACK CFI 26700 .cfa: $rsp 48 +
STACK CFI INIT 2672c 23 .cfa: $rsp .ra: .cfa 8 - ^
STACK CFI 2672c .cfa: $rsp 48 +
STACK CFI INIT 26758 23 .cfa: $rsp .ra: .cfa 8 - ^
STACK CFI 26758 .cfa: $rsp 48 +
STACK CFI INIT 26784 23 .cfa: $rsp .ra: .cfa 8 - ^
STACK CFI 26784 .cfa: $rsp 48 +
STACK CFI INIT 267b0 23 .cfa: $rsp .ra: .cfa 8 - ^
STACK CFI 267b0 .cfa: $rsp 48 +
STACK CFI INIT 267dc 23 .cfa: $rsp .ra: .cfa 8 - ^
STACK CFI 267dc .cfa: $rsp 48 +
STACK CFI INIT 26808 23 .cfa: $rsp .ra: .cfa 8 - ^
STACK CFI 26808 .cfa: $rsp 48 +
STACK CFI INIT 26834 23 .cfa: $rsp .ra: .cfa 8 - ^
STACK CFI 26834 .cfa: $rsp 48 +
STACK CFI INIT 26860 23 .cfa: $rsp .ra: .cfa 8 - ^
STACK CFI 26860 .cfa: $rsp 48 +
STACK CFI INIT 2688c 23 .cfa: $rsp .ra: .cfa 8 - ^
STACK CFI 2688c .cfa: $rsp 48 +
STACK CFI INIT 268b8 23 .cfa: $rsp .ra: .cfa 8 - ^
STACK CFI 268b8 .cfa: $rsp 48 +
STACK CFI INIT 268e4 23 .cfa: $rsp .ra: .cfa 8 - ^
STACK CFI 268e4 .cfa: $rsp 48 +
STACK CFI INIT 26910 23 .cfa: $rsp .ra: .cfa 8 - ^
STACK CFI 26910 .cfa: $rsp 48 +
STACK CFI INIT 2693c 23 .cfa: $rsp .ra: .cfa 8 - ^
STACK CFI 2693c .cfa: $rsp 48 +
STACK CFI INIT 26968 23 .cfa: $rsp .ra: .cfa 8 - ^
STACK CFI 26968 .cfa: $rsp 48 +
STACK CFI INIT 269d4 23 .cfa: $rsp .ra: .cfa 8 - ^
STACK CFI 269d4 .cfa: $rsp 48 +
STACK CFI INIT 26a00 34 .cfa: $rsp .ra: .cfa 8 - ^
STACK CFI 26a00 .cfa: $rsp 48 +
STACK CFI INIT 26a54 12d .cfa: $rsp .ra: .cfa 8 - ^
STACK CFI 26a54 .cfa: $rsp 1264 +
STACK CFI INIT 26c14 131 .cfa: $rsp .ra: .cfa 8 - ^
STACK CFI 26c14 .cfa: $rsp 1264 +
STACK CFI INIT 26da0 14a .cfa: $rsp .ra: .cfa 8 - ^
STACK CFI 26da0 .cfa: $rsp 3680 +
STACK CFI INIT 26f3c 12d .cfa: $rsp .ra: .cfa 8 - ^
STACK CFI 26f3c .cfa: $rsp 1264 +
STACK CFI INIT 270c0 131 .cfa: $rsp .ra: .cfa 8 - ^
STACK CFI 270c0 .cfa: $rsp 1264 +
STACK CFI INIT 27264 14e .cfa: $rsp .ra: .cfa 8 - ^
STACK CFI 27264 .cfa: $rsp 3680 +
STACK CFI INIT 27a4c 6d .cfa: $rsp .ra: .cfa 8 - ^
STACK CFI 27a4c .cfa: $rsp 48 +
STACK CFI INIT 27ad4 1f .cfa: $rsp .ra: .cfa 8 - ^
STACK CFI 27ad4 .cfa: $rsp 48 +
STACK CFI INIT 27c64 22c .cfa: $rsp .ra: .cfa 8 - ^
STACK CFI 27c64 .cfa: $rsp 8 +
STACK CFI INIT 27f1c 22c .cfa: $rsp .ra: .cfa 8 - ^
STACK CFI 27f1c .cfa: $rsp 8 +
STACK CFI INIT 281d4 1f2 .cfa: $rsp .ra: .cfa 8 - ^
STACK CFI 281d4 .cfa: $rsp 48 +
STACK CFI INIT 28444 1f2 .cfa: $rsp .ra: .cfa 8 - ^
STACK CFI 28444 .cfa: $rsp 48 +
STACK CFI INIT 28754 a1 .cfa: $rsp .ra: .cfa 8 - ^
STACK CFI 28754 .cfa: $rsp 64 +
STACK CFI INIT 28820 a1 .cfa: $rsp .ra: .cfa 8 - ^
STACK CFI 28820 .cfa: $rsp 64 +
STACK CFI INIT 288ec a1 .cfa: $rsp .ra: .cfa 8 - ^
STACK CFI 288ec .cfa: $rsp 64 +
STACK CFI INIT 289b8 a1 .cfa: $rsp .ra: .cfa 8 - ^
STACK CFI 289b8 .cfa: $rsp 64 +
STACK CFI INIT 28a84 a1 .cfa: $rsp .ra: .cfa 8 - ^
STACK CFI 28a84 .cfa: $rsp 64 +
STACK CFI INIT 28b50 a1 .cfa: $rsp .ra: .cfa 8 - ^
STACK CFI 28b50 .cfa: $rsp 64 +
STACK CFI INIT 28c1c a3 .cfa: $rsp .ra: .cfa 8 - ^
STACK CFI 28c1c .cfa: $rsp 48 +
STACK CFI INIT 28ce8 a3 .cfa: $rsp .ra: .cfa 8 - ^
STACK CFI 28ce8 .cfa: $rsp 48 +
STACK CFI INIT 28db4 a3 .cfa: $rsp .ra: .cfa 8 - ^
STACK CFI 28db4 .cfa: $rsp 48 +
STACK CFI INIT 28e80 a3 .cfa: $rsp .ra: .cfa 8 - ^
STACK CFI 28e80 .cfa: $rsp 48 +
STACK CFI INIT 28f4c a3 .cfa: $rsp .ra: .cfa 8 - ^
STACK CFI 28f4c .cfa: $rsp 48 +
STACK CFI INIT 29018 a3 .cfa: $rsp .ra: .cfa 8 - ^
STACK CFI 29018 .cfa: $rsp 48 +
STACK CFI INIT 290e4 221 .cfa: $rsp .ra: .cfa 8 - ^
STACK CFI 290e4 .cfa: $rsp 48 +
STACK CFI INIT 29390 2a6 .cfa: $rsp .ra: .cfa 8 - ^
STACK CFI 29390 .cfa: $rsp 64 +
STACK CFI INIT 296e0 211 .cfa: $rsp .ra: .cfa 8 - ^
STACK CFI 296e0 .cfa: $rsp 48 +
STACK CFI INIT 29978 211 .cfa: $rsp .ra: .cfa 8 - ^
STACK CFI 29978 .cfa: $rsp 48 +
STACK CFI INIT 29c10 298 .cfa: $rsp .ra: .cfa 8 - ^
STACK CFI 29c10 .cfa: $rsp 64 +
STACK CFI INIT 29f50 204 .cfa: $rsp .ra: .cfa 8 - ^
STACK CFI 29f50 .cfa: $rsp 48 +
STACK CFI INIT 2a1d8 261 .cfa: $rsp .ra: .cfa 8 - ^
STACK CFI 2a1d8 .cfa: $rsp 64 +
STACK CFI INIT 2a4d4 2a8 .cfa: $rsp .ra: .cfa 8 - ^
STACK CFI 2a4d4 .cfa: $rsp 80 +
STACK CFI INIT 2a828 256 .cfa: $rsp .ra: .cfa 8 - ^
STACK CFI 2a828 .cfa: $rsp 64 +
STACK CFI INIT 2ab14 264 .cfa: $rsp .ra: .cfa 8 - ^
STACK CFI 2ab14 .cfa: $rsp 64 +
STACK CFI INIT 2ae14 2a8 .cfa: $rsp .ra: .cfa 8 - ^
STACK CFI 2ae14 .cfa: $rsp 80 +
STACK CFI INIT 2b168 259 .cfa: $rsp .ra: .cfa 8 - ^
STACK CFI 2b168 .cfa: $rsp 64 +
STACK CFI INIT 2ba4c 70 .cfa: $rsp .ra: .cfa 8 - ^
STACK CFI 2ba4c .cfa: $rsp 48 +
STACK CFI INIT 2bad8 94 .cfa: $rsp .ra: .cfa 8 - ^
STACK CFI 2bad8 .cfa: $rsp 48 +
STACK CFI INIT 2bb94 70 .cfa: $rsp .ra: .cfa 8 - ^
STACK CFI 2bb94 .cfa: $rsp 48 +
STACK CFI INIT 2bc20 74 .cfa: $rsp .ra: .cfa 8 - ^
STACK CFI 2bc20 .cfa: $rsp 48 +
STACK CFI INIT 2bcb4 96 .cfa: $rsp .ra: .cfa 8 - ^
STACK CFI 2bcb4 .cfa: $rsp 48 +
STACK CFI INIT 2bd70 74 .cfa: $rsp .ra: .cfa 8 - ^
STACK CFI 2bd70 .cfa: $rsp 48 +
STACK CFI INIT 2be04 58 .cfa: $rsp .ra: .cfa 8 - ^
STACK CFI 2be04 .cfa: $rsp 48 +
STACK CFI INIT 2be74 7a .cfa: $rsp .ra: .cfa 8 - ^
STACK CFI 2be74 .cfa: $rsp 48 +
STACK CFI INIT 2bf0c 58 .cfa: $rsp .ra: .cfa 8 - ^
STACK CFI 2bf0c .cfa: $rsp 48 +
STACK CFI INIT 2c0e4 5c .cfa: $rsp .ra: .cfa 8 - ^
STACK CFI 2c0e4 .cfa: $rsp 48 +
STACK CFI INIT 2c158 5c .cfa: $rsp .ra: .cfa 8 - ^
STACK CFI 2c158 .cfa: $rsp 48 +
STACK CFI INIT 2c1cc 5c .cfa: $rsp .ra: .cfa 8 - ^
STACK CFI 2c1cc .cfa: $rsp 48 +
STACK CFI INIT 2c240 60 .cfa: $rsp .ra: .cfa 8 - ^
STACK CFI 2c240 .cfa: $rsp 48 +
STACK CFI INIT 2c2b8 60 .cfa: $rsp .ra: .cfa 8 - ^
STACK CFI 2c2b8 .cfa: $rsp 48 +
STACK CFI INIT 2c330 60 .cfa: $rsp .ra: .cfa 8 - ^
STACK CFI 2c330 .cfa: $rsp 48 +
STACK CFI INIT 2c3a8 58 .cfa: $rsp .ra: .cfa 8 - ^
STACK CFI 2c3a8 .cfa: $rsp 48 +
STACK CFI INIT 2c418 58 .cfa: $rsp .ra: .cfa 8 - ^
STACK CFI 2c418 .cfa: $rsp 48 +
STACK CFI INIT 2c488 58 .cfa: $rsp .ra: .cfa 8 - ^
STACK CFI 2c488 .cfa: $rsp 48 +
STACK CFI INIT 2c63c 9b .cfa: $rsp .ra: .cfa 8 - ^
STACK CFI 2c63c .cfa: $rsp 48 +
STACK CFI INIT 2c700 9b .cfa: $rsp .ra: .cfa 8 - ^
STACK CFI 2c700 .cfa: $rsp 48 +
STACK CFI INIT 2c7c4 9b .cfa: $rsp .ra: .cfa 8 - ^
STACK CFI 2c7c4 .cfa: $rsp 48 +
STACK CFI INIT 2c888 97 .cfa: $rsp .ra: .cfa 8 - ^
STACK CFI 2c888 .cfa: $rsp 48 +
STACK CFI INIT 2c944 97 .cfa: $rsp .ra: .cfa 8 - ^
STACK CFI 2c944 .cfa: $rsp 48 +
STACK CFI INIT 2ca00 97 .cfa: $rsp .ra: .cfa 8 - ^
STACK CFI 2ca00 .cfa: $rsp 48 +
STACK CFI INIT 2cc6c 4a .cfa: $rsp .ra: .cfa 8 - ^
STACK CFI 2cc6c .cfa: $rsp 48 +
STACK CFI INIT 2cd28 4a .cfa: $rsp .ra: .cfa 8 - ^
STACK CFI 2cd28 .cfa: $rsp 48 +
STACK CFI INIT 2cde8 4b .cfa: $rsp .ra: .cfa 8 - ^
STACK CFI 2cde8 .cfa: $rsp 48 +
STACK CFI INIT 2ceb0 4b .cfa: $rsp .ra: .cfa 8 - ^
STACK CFI 2ceb0 .cfa: $rsp 48 +
STACK CFI INIT 2cf44 173 .cfa: $rsp .ra: .cfa 8 - ^
STACK CFI 2cf44 .cfa: $rsp 48 +
STACK CFI INIT 2d114 173 .cfa: $rsp .ra: .cfa 8 - ^
STACK CFI 2d114 .cfa: $rsp 48 +
STACK CFI INIT 2d2e4 173 .cfa: $rsp .ra: .cfa 8 - ^
STACK CFI 2d2e4 .cfa: $rsp 48 +
STACK CFI INIT 2d4b4 173 .cfa: $rsp .ra: .cfa 8 - ^
STACK CFI 2d4b4 .cfa: $rsp 48 +
STACK CFI INIT 2d684 173 .cfa: $rsp .ra: .cfa 8 - ^
STACK CFI 2d684 .cfa: $rsp 48 +
STACK CFI INIT 2d854 173 .cfa: $rsp .ra: .cfa 8 - ^
STACK CFI 2d854 .cfa: $rsp 48 +
STACK CFI INIT 2da24 197 .cfa: $rsp .ra: .cfa 8 - ^
STACK CFI 2da24 .cfa: $rsp 48 +
STACK CFI INIT 2dc20 197 .cfa: $rsp .ra: .cfa 8 - ^
STACK CFI 2dc20 .cfa: $rsp 48 +
STACK CFI INIT 2de1c 197 .cfa: $rsp .ra: .cfa 8 - ^
STACK CFI 2de1c .cfa: $rsp 48 +
STACK CFI INIT 2e018 197 .cfa: $rsp .ra: .cfa 8 - ^
STACK CFI 2e018 .cfa: $rsp 48 +
STACK CFI INIT 2e214 197 .cfa: $rsp .ra: .cfa 8 - ^
STACK CFI 2e214 .cfa: $rsp 48 +
STACK CFI INIT 2e410 197 .cfa: $rsp .ra: .cfa 8 - ^
STACK CFI 2e410 .cfa: $rsp 48 +
STACK CFI INIT 2e60c 28f .cfa: $rsp .ra: .cfa 8 - ^
STACK CFI 2e60c .cfa: $rsp 80 +
STACK CFI INIT 2e940 2a5 .cfa: $rsp .ra: .cfa 8 - ^
STACK CFI 2e940 .cfa: $rsp 80 +
STACK CFI INIT 2ec90 28f .cfa: $rsp .ra: .cfa 8 - ^
STACK CFI 2ec90 .cfa: $rsp 80 +
STACK CFI INIT 2efc4 26c .cfa: $rsp .ra: .cfa 8 - ^
STACK CFI 2efc4 .cfa: $rsp 80 +
STACK CFI INIT 2f2cc 282 .cfa: $rsp .ra: .cfa 8 - ^
STACK CFI 2f2cc .cfa: $rsp 80 +
STACK CFI INIT 2f5f0 26c .cfa: $rsp .ra: .cfa 8 - ^
STACK CFI 2f5f0 .cfa: $rsp 80 +
STACK CFI INIT 2f8f8 2e9 .cfa: $rsp .ra: .cfa 8 - ^
STACK CFI 2f8f8 .cfa: $rsp 112 +
STACK CFI INIT 2fc9c 2fb .cfa: $rsp .ra: .cfa 8 - ^
STACK CFI 2fc9c .cfa: $rsp 112 +
STACK CFI INIT 30058 2e9 .cfa: $rsp .ra: .cfa 8 - ^
STACK CFI 30058 .cfa: $rsp 112 +
STACK CFI INIT 303fc 2d4 .cfa: $rsp .ra: .cfa 8 - ^
STACK CFI 303fc .cfa: $rsp 112 +
STACK CFI INIT 30788 2e6 .cfa: $rsp .ra: .cfa 8 - ^
STACK CFI 30788 .cfa: $rsp 112 +
STACK CFI INIT 30b28 2d4 .cfa: $rsp .ra: .cfa 8 - ^
STACK CFI 30b28 .cfa: $rsp 112 +
STACK CFI INIT 30ef4 50 .cfa: $rsp .ra: .cfa 8 - ^
STACK CFI 30ef4 .cfa: $rsp 48 +
STACK CFI INIT 30fd8 50 .cfa: $rsp .ra: .cfa 8 - ^
STACK CFI 30fd8 .cfa: $rsp 48 +
STACK CFI INIT 310bc 51 .cfa: $rsp .ra: .cfa 8 - ^
STACK CFI 310bc .cfa: $rsp 48 +
STACK CFI INIT 311a4 51 .cfa: $rsp .ra: .cfa 8 - ^
STACK CFI 311a4 .cfa: $rsp 48 +
STACK CFI INIT 314c0 15b .cfa: $rsp .ra: .cfa 8 - ^
STACK CFI 314c0 .cfa: $rsp 64 +
STACK CFI INIT 3179c 15b .cfa: $rsp .ra: .cfa 8 - ^
STACK CFI 3179c .cfa: $rsp 64 +
STACK CFI INIT 319e4 7c .cfa: $rsp .ra: .cfa 8 - ^
STACK CFI 319e4 .cfa: $rsp 48 +
STACK CFI INIT 31a80 141 .cfa: $rsp .ra: .cfa 8 - ^
STACK CFI 31a80 .cfa: $rsp 64 +
STACK CFI INIT 31c14 7c .cfa: $rsp .ra: .cfa 8 - ^
STACK CFI 31c14 .cfa: $rsp 48 +
STACK CFI INIT 31cb0 7c .cfa: $rsp .ra: .cfa 8 - ^
STACK CFI 31cb0 .cfa: $rsp 48 +
STACK CFI INIT 31d4c 141 .cfa: $rsp .ra: .cfa 8 - ^
STACK CFI 31d4c .cfa: $rsp 64 +
STACK CFI INIT 31ee0 7c .cfa: $rsp .ra: .cfa 8 - ^
STACK CFI 31ee0 .cfa: $rsp 48 +
STACK CFI INIT 31f7c 1ba .cfa: $rsp .ra: .cfa 8 - ^
STACK CFI 31f7c .cfa: $rsp 96 +
STACK CFI INIT 321a4 1ec .cfa: $rsp .ra: .cfa 8 - ^
STACK CFI 321a4 .cfa: $rsp 96 +
STACK CFI INIT 3240c 1ba .cfa: $rsp .ra: .cfa 8 - ^
STACK CFI 3240c .cfa: $rsp 96 +
STACK CFI INIT 32634 1ba .cfa: $rsp .ra: .cfa 8 - ^
STACK CFI 32634 .cfa: $rsp 96 +
STACK CFI INIT 3285c 1ec .cfa: $rsp .ra: .cfa 8 - ^
STACK CFI 3285c .cfa: $rsp 96 +
STACK CFI INIT 32ac4 1ba .cfa: $rsp .ra: .cfa 8 - ^
STACK CFI 32ac4 .cfa: $rsp 96 +
STACK CFI INIT 32cec 1de .cfa: $rsp .ra: .cfa 8 - ^
STACK CFI 32cec .cfa: $rsp 96 +
STACK CFI INIT 32f44 210 .cfa: $rsp .ra: .cfa 8 - ^
STACK CFI 32f44 .cfa: $rsp 96 +
STACK CFI INIT 331d8 1de .cfa: $rsp .ra: .cfa 8 - ^
STACK CFI 331d8 .cfa: $rsp 96 +
STACK CFI INIT 33430 1de .cfa: $rsp .ra: .cfa 8 - ^
STACK CFI 33430 .cfa: $rsp 96 +
STACK CFI INIT 33688 210 .cfa: $rsp .ra: .cfa 8 - ^
STACK CFI 33688 .cfa: $rsp 96 +
STACK CFI INIT 3391c 1de .cfa: $rsp .ra: .cfa 8 - ^
STACK CFI 3391c .cfa: $rsp 96 +
STACK CFI INIT 33bd4 c4 .cfa: $rsp .ra: .cfa 8 - ^
STACK CFI 33bd4 .cfa: $rsp 48 +
STACK CFI INIT 33ccc 10f .cfa: $rsp .ra: .cfa 8 - ^
STACK CFI 33ccc .cfa: $rsp 48 +
STACK CFI INIT 33e20 c4 .cfa: $rsp .ra: .cfa 8 - ^
STACK CFI 33e20 .cfa: $rsp 48 +
STACK CFI INIT 33f18 c4 .cfa: $rsp .ra: .cfa 8 - ^
STACK CFI 33f18 .cfa: $rsp 48 +
STACK CFI INIT 34010 10f .cfa: $rsp .ra: .cfa 8 - ^
STACK CFI 34010 .cfa: $rsp 48 +
STACK CFI INIT 34164 c4 .cfa: $rsp .ra: .cfa 8 - ^
STACK CFI 34164 .cfa: $rsp 48 +
STACK CFI INIT 3425c a6 .cfa: $rsp .ra: .cfa 8 - ^
STACK CFI 3425c .cfa: $rsp 48 +
STACK CFI INIT 3432c cc .cfa: $rsp .ra: .cfa 8 - ^
STACK CFI 3432c .cfa: $rsp 48 +
STACK CFI INIT 3442c a6 .cfa: $rsp .ra: .cfa 8 - ^
STACK CFI 3442c .cfa: $rsp 48 +
STACK CFI INIT 344fc a6 .cfa: $rsp .ra: .cfa 8 - ^
STACK CFI 344fc .cfa: $rsp 48 +
STACK CFI INIT 345cc cc .cfa: $rsp .ra: .cfa 8 - ^
STACK CFI 345cc .cfa: $rsp 48 +
STACK CFI INIT 346cc a6 .cfa: $rsp .ra: .cfa 8 - ^
STACK CFI 346cc .cfa: $rsp 48 +
STACK CFI INIT 3488c 1c5 .cfa: $rsp .ra: .cfa 8 - ^
STACK CFI 3488c .cfa: $rsp 64 +
STACK CFI INIT 34ac4 202 .cfa: $rsp .ra: .cfa 8 - ^
STACK CFI 34ac4 .cfa: $rsp 80 +
STACK CFI INIT 34d48 1c5 .cfa: $rsp .ra: .cfa 8 - ^
STACK CFI 34d48 .cfa: $rsp 64 +
STACK CFI INIT 34f80 1c5 .cfa: $rsp .ra: .cfa 8 - ^
STACK CFI 34f80 .cfa: $rsp 64 +
STACK CFI INIT 351b8 202 .cfa: $rsp .ra: .cfa 8 - ^
STACK CFI 351b8 .cfa: $rsp 80 +
STACK CFI INIT 3543c 1c5 .cfa: $rsp .ra: .cfa 8 - ^
STACK CFI 3543c .cfa: $rsp 64 +
STACK CFI INIT 35674 1cb .cfa: $rsp .ra: .cfa 8 - ^
STACK CFI 35674 .cfa: $rsp 64 +
STACK CFI INIT 358b4 208 .cfa: $rsp .ra: .cfa 8 - ^
STACK CFI 358b4 .cfa: $rsp 80 +
STACK CFI INIT 35b40 1cb .cfa: $rsp .ra: .cfa 8 - ^
STACK CFI 35b40 .cfa: $rsp 64 +
STACK CFI INIT 35d80 1cb .cfa: $rsp .ra: .cfa 8 - ^
STACK CFI 35d80 .cfa: $rsp 64 +
STACK CFI INIT 35fc0 208 .cfa: $rsp .ra: .cfa 8 - ^
STACK CFI 35fc0 .cfa: $rsp 80 +
STACK CFI INIT 3624c 1cb .cfa: $rsp .ra: .cfa 8 - ^
STACK CFI 3624c .cfa: $rsp 64 +
STACK CFI INIT 3648c db .cfa: $rsp .ra: .cfa 8 - ^
STACK CFI 3648c .cfa: $rsp 48 +
STACK CFI INIT 365a0 104 .cfa: $rsp .ra: .cfa 8 - ^
STACK CFI 365a0 .cfa: $rsp 48 +
STACK CFI INIT 366e8 db .cfa: $rsp .ra: .cfa 8 - ^
STACK CFI 366e8 .cfa: $rsp 48 +
STACK CFI INIT 367fc db .cfa: $rsp .ra: .cfa 8 - ^
STACK CFI 367fc .cfa: $rsp 48 +
STACK CFI INIT 36910 104 .cfa: $rsp .ra: .cfa 8 - ^
STACK CFI 36910 .cfa: $rsp 48 +
STACK CFI INIT 36a58 db .cfa: $rsp .ra: .cfa 8 - ^
STACK CFI 36a58 .cfa: $rsp 48 +
STACK CFI INIT 36b6c db .cfa: $rsp .ra: .cfa 8 - ^
STACK CFI 36b6c .cfa: $rsp 48 +
STACK CFI INIT 36c80 104 .cfa: $rsp .ra: .cfa 8 - ^
STACK CFI 36c80 .cfa: $rsp 48 +
STACK CFI INIT 36dc8 db .cfa: $rsp .ra: .cfa 8 - ^
STACK CFI 36dc8 .cfa: $rsp 48 +
STACK CFI INIT 36edc db .cfa: $rsp .ra: .cfa 8 - ^
STACK CFI 36edc .cfa: $rsp 48 +
STACK CFI INIT 36ff0 104 .cfa: $rsp .ra: .cfa 8 - ^
STACK CFI 36ff0 .cfa: $rsp 48 +
STACK CFI INIT 37138 db .cfa: $rsp .ra: .cfa 8 - ^
STACK CFI 37138 .cfa: $rsp 48 +
STACK CFI INIT 3757c 96 .cfa: $rsp .ra: .cfa 8 - ^
STACK CFI 3757c .cfa: $rsp 48 +
STACK CFI INIT 37638 b5 .cfa: $rsp .ra: .cfa 8 - ^
STACK CFI 37638 .cfa: $rsp 48 +
STACK CFI INIT 3771c 96 .cfa: $rsp .ra: .cfa 8 - ^
STACK CFI 3771c .cfa: $rsp 48 +
STACK CFI INIT 377d8 96 .cfa: $rsp .ra: .cfa 8 - ^
STACK CFI 377d8 .cfa: $rsp 48 +
STACK CFI INIT 37894 b5 .cfa: $rsp .ra: .cfa 8 - ^
STACK CFI 37894 .cfa: $rsp 48 +
STACK CFI INIT 37978 96 .cfa: $rsp .ra: .cfa 8 - ^
STACK CFI 37978 .cfa: $rsp 48 +
STACK CFI INIT 37a34 c3 .cfa: $rsp .ra: .cfa 8 - ^
STACK CFI 37a34 .cfa: $rsp 48 +
STACK CFI INIT 37b28 f2 .cfa: $rsp .ra: .cfa 8 - ^
STACK CFI 37b28 .cfa: $rsp 48 +
STACK CFI INIT 37c58 c3 .cfa: $rsp .ra: .cfa 8 - ^
STACK CFI 37c58 .cfa: $rsp 48 +
STACK CFI INIT 37d4c c3 .cfa: $rsp .ra: .cfa 8 - ^
STACK CFI 37d4c .cfa: $rsp 48 +
STACK CFI INIT 37e40 f2 .cfa: $rsp .ra: .cfa 8 - ^
STACK CFI 37e40 .cfa: $rsp 48 +
STACK CFI INIT 37f70 c3 .cfa: $rsp .ra: .cfa 8 - ^
STACK CFI 37f70 .cfa: $rsp 48 +
STACK CFI INIT 380c4 4c .cfa: $rsp .ra: .cfa 8 - ^
STACK CFI 380c4 .cfa: $rsp 8 +
STACK CFI INIT 38124 4c .cfa: $rsp .ra: .cfa 8 - ^
STACK CFI 38124 .cfa: $rsp 8 +
STACK CFI INIT 38184 4c .cfa: $rsp .ra: .cfa 8 - ^
STACK CFI 38184 .cfa: $rsp 8 +
STACK CFI INIT 381e4 4c .cfa: $rsp .ra: .cfa 8 - ^
STACK CFI 381e4 .cfa: $rsp 8 +
STACK CFI INIT 38244 4c .cfa: $rsp .ra: .cfa 8 - ^
STACK CFI 38244 .cfa: $rsp 8 +
STACK CFI INIT 382a4 4c .cfa: $rsp .ra: .cfa 8 - ^
STACK CFI 382a4 .cfa: $rsp 8 +
STACK CFI INIT 384e4 115 .cfa: $rsp .ra: .cfa 8 - ^
STACK CFI 384e4 .cfa: $rsp 64 +
STACK CFI INIT 38640 115 .cfa: $rsp .ra: .cfa 8 - ^
STACK CFI 38640 .cfa: $rsp 64 +
STACK CFI INIT 3879c 118 .cfa: $rsp .ra: .cfa 8 - ^
STACK CFI 3879c .cfa: $rsp 64 +
STACK CFI INIT 388fc 118 .cfa: $rsp .ra: .cfa 8 - ^
STACK CFI 388fc .cfa: $rsp 64 +
STACK CFI INIT 38abc 115 .cfa: $rsp .ra: .cfa 8 - ^
STACK CFI 38abc .cfa: $rsp 64 +
STACK CFI INIT 38c18 115 .cfa: $rsp .ra: .cfa 8 - ^
STACK CFI 38c18 .cfa: $rsp 64 +
STACK CFI INIT 38d74 118 .cfa: $rsp .ra: .cfa 8 - ^
STACK CFI 38d74 .cfa: $rsp 64 +
STACK CFI INIT 38ed4 118 .cfa: $rsp .ra: .cfa 8 - ^
STACK CFI 38ed4 .cfa: $rsp 64 +
STACK CFI INIT 390a0 2c .cfa: $rsp .ra: .cfa 8 - ^
STACK CFI 390a0 .cfa: $rsp 48 +
STACK CFI INIT 390d8 25 .cfa: $rsp .ra: .cfa 8 - ^
STACK CFI 390d8 .cfa: $rsp 48 +
STACK CFI INIT 39108 25 .cfa: $rsp .ra: .cfa 8 - ^
STACK CFI 39108 .cfa: $rsp 48 +
STACK CFI INIT 39138 25 .cfa: $rsp .ra: .cfa 8 - ^
STACK CFI 39138 .cfa: $rsp 48 +
STACK CFI INIT 39168 3f .cfa: $rsp .ra: .cfa 8 - ^
STACK CFI 39168 .cfa: $rsp 64 +
STACK CFI INIT 391b8 3f .cfa: $rsp .ra: .cfa 8 - ^
STACK CFI 391b8 .cfa: $rsp 64 +
STACK CFI INIT 39208 40 .cfa: $rsp .ra: .cfa 8 - ^
STACK CFI 39208 .cfa: $rsp 64 +
STACK CFI INIT 39258 40 .cfa: $rsp .ra: .cfa 8 - ^
STACK CFI 39258 .cfa: $rsp 64 +
STACK CFI INIT 392a8 10b .cfa: $rsp .ra: .cfa 8 - ^
STACK CFI 392a8 .cfa: $rsp 48 +
STACK CFI INIT 393f8 10b .cfa: $rsp .ra: .cfa 8 - ^
STACK CFI 393f8 .cfa: $rsp 48 +
STACK CFI INIT 39548 114 .cfa: $rsp .ra: .cfa 8 - ^
STACK CFI 39548 .cfa: $rsp 48 +
STACK CFI INIT 396a4 114 .cfa: $rsp .ra: .cfa 8 - ^
STACK CFI 396a4 .cfa: $rsp 48 +
STACK CFI INIT 39810 2b .cfa: $rsp .ra: .cfa 8 - ^
STACK CFI 39810 .cfa: $rsp 48 +
STACK CFI INIT 39848 2b .cfa: $rsp .ra: .cfa 8 - ^
STACK CFI 39848 .cfa: $rsp 48 +
STACK CFI INIT 39880 2b .cfa: $rsp .ra: .cfa 8 - ^
STACK CFI 39880 .cfa: $rsp 48 +
STACK CFI INIT 398b8 2b .cfa: $rsp .ra: .cfa 8 - ^
STACK CFI 398b8 .cfa: $rsp 48 +
STACK CFI INIT 398f0 90 .cfa: $rsp .ra: .cfa 8 - ^
STACK CFI 398f0 .cfa: $rsp 48 +
STACK CFI INIT 399a4 90 .cfa: $rsp .ra: .cfa 8 - ^
STACK CFI 399a4 .cfa: $rsp 48 +
STACK CFI INIT 39a58 90 .cfa: $rsp .ra: .cfa 8 - ^
STACK CFI 39a58 .cfa: $rsp 48 +
STACK CFI INIT 39b0c 90 .cfa: $rsp .ra: .cfa 8 - ^
STACK CFI 39b0c .cfa: $rsp 48 +
STACK CFI INIT 39bd0 9b .cfa: $rsp .ra: .cfa 8 - ^
STACK CFI 39bd0 .cfa: $rsp 64 +
STACK CFI INIT 39c94 9b .cfa: $rsp .ra: .cfa 8 - ^
STACK CFI 39c94 .cfa: $rsp 64 +
STACK CFI INIT 39d58 9d .cfa: $rsp .ra: .cfa 8 - ^
STACK CFI 39d58 .cfa: $rsp 64 +
STACK CFI INIT 39e1c 9d .cfa: $rsp .ra: .cfa 8 - ^
STACK CFI 39e1c .cfa: $rsp 64 +
STACK CFI INIT 39ef0 92 .cfa: $rsp .ra: .cfa 8 - ^
STACK CFI 39ef0 .cfa: $rsp 48 +
STACK CFI INIT 3a03c 48 .cfa: $rsp .ra: .cfa 8 - ^
STACK CFI 3a03c .cfa: $rsp 48 +
STACK CFI INIT 3a098 4b .cfa: $rsp .ra: .cfa 8 - ^
STACK CFI 3a098 .cfa: $rsp 48 +
STACK CFI INIT 3a1ac 40 .cfa: $rsp .ra: .cfa 8 - ^
STACK CFI 3a1ac .cfa: $rsp 48 +
STACK CFI INIT 3a1fc 43 .cfa: $rsp .ra: .cfa 8 - ^
STACK CFI 3a1fc .cfa: $rsp 48 +
STACK CFI INIT 3a250 121 .cfa: $rsp .ra: .cfa 8 - ^
STACK CFI 3a250 .cfa: $rsp 96 +
STACK CFI INIT 3a3bc 121 .cfa: $rsp .ra: .cfa 8 - ^
STACK CFI 3a3bc .cfa: $rsp 96 +
STACK CFI INIT 3a528 121 .cfa: $rsp .ra: .cfa 8 - ^
STACK CFI 3a528 .cfa: $rsp 96 +
STACK CFI INIT 3a694 d5 .cfa: $rsp .ra: .cfa 8 - ^
STACK CFI 3a694 .cfa: $rsp 96 +
STACK CFI INIT 3a7a0 d5 .cfa: $rsp .ra: .cfa 8 - ^
STACK CFI 3a7a0 .cfa: $rsp 96 +
STACK CFI INIT 3a8ac d5 .cfa: $rsp .ra: .cfa 8 - ^
STACK CFI 3a8ac .cfa: $rsp 96 +
STACK CFI INIT 3a9b8 106 .cfa: $rsp .ra: .cfa 8 - ^
STACK CFI 3a9b8 .cfa: $rsp 80 +
STACK CFI INIT 3ab00 106 .cfa: $rsp .ra: .cfa 8 - ^
STACK CFI 3ab00 .cfa: $rsp 80 +
STACK CFI INIT 3ac48 106 .cfa: $rsp .ra: .cfa 8 - ^
STACK CFI 3ac48 .cfa: $rsp 80 +
STACK CFI INIT 3ad90 eb .cfa: $rsp .ra: .cfa 8 - ^
STACK CFI 3ad90 .cfa: $rsp 64 +
STACK CFI INIT 3aeb8 eb .cfa: $rsp .ra: .cfa 8 - ^
STACK CFI 3aeb8 .cfa: $rsp 64 +
STACK CFI INIT 3afe0 eb .cfa: $rsp .ra: .cfa 8 - ^
STACK CFI 3afe0 .cfa: $rsp 64 +
STACK CFI INIT 3b168 a3 .cfa: $rsp .ra: .cfa 8 - ^
STACK CFI 3b168 .cfa: $rsp 48 +
STACK CFI INIT 3b234 a5 .cfa: $rsp .ra: .cfa 8 - ^
STACK CFI 3b234 .cfa: $rsp 64 +
STACK CFI INIT 3b304 f5 .cfa: $rsp .ra: .cfa 8 - ^
STACK CFI 3b304 .cfa: $rsp 64 +
STACK CFI INIT 3b438 103 .cfa: $rsp .ra: .cfa 8 - ^
STACK CFI 3b438 .cfa: $rsp 64 +
STACK CFI INIT 3b5a8 8b .cfa: $rsp .ra: .cfa 8 - ^
STACK CFI 3b5a8 .cfa: $rsp 112 +
STACK CFI INIT 3b658 8b .cfa: $rsp .ra: .cfa 8 - ^
STACK CFI 3b658 .cfa: $rsp 112 +
STACK CFI INIT 3b708 8b .cfa: $rsp .ra: .cfa 8 - ^
STACK CFI 3b708 .cfa: $rsp 112 +
STACK CFI INIT 3b7b8 8b .cfa: $rsp .ra: .cfa 8 - ^
STACK CFI 3b7b8 .cfa: $rsp 112 +
STACK CFI INIT 3b868 8b .cfa: $rsp .ra: .cfa 8 - ^
STACK CFI 3b868 .cfa: $rsp 112 +
STACK CFI INIT 3b918 8b .cfa: $rsp .ra: .cfa 8 - ^
STACK CFI 3b918 .cfa: $rsp 112 +
STACK CFI INIT 3b9c8 134 .cfa: $rsp .ra: .cfa 8 - ^
STACK CFI 3b9c8 .cfa: $rsp 80 +
STACK CFI INIT 3bb4c 143 .cfa: $rsp .ra: .cfa 8 - ^
STACK CFI 3bb4c .cfa: $rsp 80 +
STACK CFI INIT 3bcf0 63 .cfa: $rsp .ra: .cfa 8 - ^
STACK CFI 3bcf0 .cfa: $rsp 64 +
STACK CFI INIT 3bd7c 6e .cfa: $rsp .ra: .cfa 8 - ^
STACK CFI 3bd7c .cfa: $rsp 64 +
STACK CFI INIT 3bea4 33a .cfa: $rsp .ra: .cfa 8 - ^
STACK CFI 3bea4 .cfa: $rsp 112 +
STACK CFI INIT 3c2ac 6b2 .cfa: $rsp .ra: .cfa 8 - ^
STACK CFI 3c2ac .cfa: $rsp 112 +
STACK CFI INIT 3cb0c 333 .cfa: $rsp .ra: .cfa 8 - ^
STACK CFI 3cb0c .cfa: $rsp 112 +
STACK CFI INIT 3cf0c 765 .cfa: $rsp .ra: .cfa 8 - ^
STACK CFI 3cf0c .cfa: $rsp 208 +
STACK CFI INIT 3d84c 2e .cfa: $rsp .ra: .cfa 8 - ^
STACK CFI 3d84c .cfa: $rsp 64 +
STACK CFI INIT 3d888 2e .cfa: $rsp .ra: .cfa 8 - ^
STACK CFI 3d888 .cfa: $rsp 64 +
STACK CFI INIT 3d8c4 2e .cfa: $rsp .ra: .cfa 8 - ^
STACK CFI 3d8c4 .cfa: $rsp 64 +
STACK CFI INIT 3d900 2e .cfa: $rsp .ra: .cfa 8 - ^
STACK CFI 3d900 .cfa: $rsp 64 +
STACK CFI INIT 3d9b8 47 .cfa: $rsp .ra: .cfa 8 - ^
STACK CFI 3d9b8 .cfa: $rsp 48 +
STACK CFI INIT 3da10 18 .cfa: $rsp .ra: .cfa 8 - ^
STACK CFI 3da10 .cfa: $rsp 48 +
STACK CFI INIT 3dcfc 2a .cfa: $rsp .ra: .cfa 8 - ^
STACK CFI 3dcfc .cfa: $rsp 48 +
STACK CFI INIT 3dd30 2d .cfa: $rsp .ra: .cfa 8 - ^
STACK CFI 3dd30 .cfa: $rsp 48 +
STACK CFI INIT 3dd68 25 .cfa: $rsp .ra: .cfa 8 - ^
STACK CFI 3dd68 .cfa: $rsp 48 +
STACK CFI INIT 3dd98 25 .cfa: $rsp .ra: .cfa 8 - ^
STACK CFI 3dd98 .cfa: $rsp 48 +
STACK CFI INIT 3dfc8 29 .cfa: $rsp .ra: .cfa 8 - ^
STACK CFI 3dfc8 .cfa: $rsp 64 +
STACK CFI INIT 3dffc 2d .cfa: $rsp .ra: .cfa 8 - ^
STACK CFI 3dffc .cfa: $rsp 64 +
STACK CFI INIT 3e034 2d .cfa: $rsp .ra: .cfa 8 - ^
STACK CFI 3e034 .cfa: $rsp 64 +
STACK CFI INIT 3e06c 2d .cfa: $rsp .ra: .cfa 8 - ^
STACK CFI 3e06c .cfa: $rsp 64 +
STACK CFI INIT 3e0a4 2d .cfa: $rsp .ra: .cfa 8 - ^
STACK CFI 3e0a4 .cfa: $rsp 64 +
STACK CFI INIT 3e0dc 36 .cfa: $rsp .ra: .cfa 8 - ^
STACK CFI 3e0dc .cfa: $rsp 48 +
STACK CFI INIT 3e120 4e .cfa: $rsp .ra: .cfa 8 - ^
STACK CFI 3e120 .cfa: $rsp 48 +
STACK CFI INIT 3e184 29 .cfa: $rsp .ra: .cfa 8 - ^
STACK CFI 3e184 .cfa: $rsp 64 +
STACK CFI INIT 3e1b8 29 .cfa: $rsp .ra: .cfa 8 - ^
STACK CFI 3e1b8 .cfa: $rsp 64 +
STACK CFI INIT 3e1ec 2d .cfa: $rsp .ra: .cfa 8 - ^
STACK CFI 3e1ec .cfa: $rsp 64 +
STACK CFI INIT 3e224 2d .cfa: $rsp .ra: .cfa 8 - ^
STACK CFI 3e224 .cfa: $rsp 64 +
STACK CFI INIT 3e25c 29 .cfa: $rsp .ra: .cfa 8 - ^
STACK CFI 3e25c .cfa: $rsp 64 +
STACK CFI INIT 3e290 2d .cfa: $rsp .ra: .cfa 8 - ^
STACK CFI 3e290 .cfa: $rsp 64 +
STACK CFI INIT 3e2c8 29 .cfa: $rsp .ra: .cfa 8 - ^
STACK CFI 3e2c8 .cfa: $rsp 64 +
STACK CFI INIT 3e2fc 2d .cfa: $rsp .ra: .cfa 8 - ^
STACK CFI 3e2fc .cfa: $rsp 64 +
STACK CFI INIT 3e334 29 .cfa: $rsp .ra: .cfa 8 - ^
STACK CFI 3e334 .cfa: $rsp 64 +
STACK CFI INIT 3e368 29 .cfa: $rsp .ra: .cfa 8 - ^
STACK CFI 3e368 .cfa: $rsp 64 +
STACK CFI INIT 3e39c 29 .cfa: $rsp .ra: .cfa 8 - ^
STACK CFI 3e39c .cfa: $rsp 64 +
STACK CFI INIT 3e3e0 7d .cfa: $rsp .ra: .cfa 8 - ^
STACK CFI 3e3e0 .cfa: $rsp 8 +
STACK CFI INIT 3e48c 3f .cfa: $rsp .ra: .cfa 8 - ^
STACK CFI 3e48c .cfa: $rsp 48 +
STACK CFI INIT 3e4dc 3d .cfa: $rsp .ra: .cfa 8 - ^
STACK CFI 3e4dc .cfa: $rsp 48 +
STACK CFI INIT 3e528 45 .cfa: $rsp .ra: .cfa 8 - ^
STACK CFI 3e528 .cfa: $rsp 48 +
STACK CFI INIT 3e580 5f .cfa: $rsp .ra: .cfa 8 - ^
STACK CFI 3e580 .cfa: $rsp 48 +
STACK CFI INIT 3e5f8 26 .cfa: $rsp .ra: .cfa 8 - ^
STACK CFI 3e5f8 .cfa: $rsp 48 +
STACK CFI INIT 3e628 26 .cfa: $rsp .ra: .cfa 8 - ^
STACK CFI 3e628 .cfa: $rsp 48 +
STACK CFI INIT 3e658 26 .cfa: $rsp .ra: .cfa 8 - ^
STACK CFI 3e658 .cfa: $rsp 48 +
STACK CFI INIT 3e688 26 .cfa: $rsp .ra: .cfa 8 - ^
STACK CFI 3e688 .cfa: $rsp 48 +
STACK CFI INIT 3e748 1a .cfa: $rsp .ra: .cfa 8 - ^
STACK CFI 3e748 .cfa: $rsp 48 +
STACK CFI INIT 3e768 1b .cfa: $rsp .ra: .cfa 8 - ^
STACK CFI 3e768 .cfa: $rsp 48 +
STACK CFI INIT 3e7ac 38 .cfa: $rsp .ra: .cfa 8 - ^
STACK CFI 3e7ac .cfa: $rsp 48 +
STACK CFI INIT 3e870 c5 .cfa: $rsp .ra: .cfa 8 - ^
STACK CFI 3e870 .cfa: $rsp 80 +
STACK CFI INIT 3e968 cd .cfa: $rsp .ra: .cfa 8 - ^
STACK CFI 3e968 .cfa: $rsp 96 +
STACK CFI INIT 3ea6c 20 .cfa: $rsp .ra: .cfa 8 - ^
STACK CFI 3ea6c .cfa: $rsp 48 +
STACK CFI INIT 3ea94 f5 .cfa: $rsp .ra: .cfa 8 - ^
STACK CFI 3ea94 .cfa: $rsp 64 +
STACK CFI INIT 3ebc8 f5 .cfa: $rsp .ra: .cfa 8 - ^
STACK CFI 3ebc8 .cfa: $rsp 80 +
STACK CFI INIT 3ed10 a1 .cfa: $rsp .ra: .cfa 8 - ^
STACK CFI 3ed10 .cfa: $rsp 48 +
STACK CFI INIT 3eddc c8 .cfa: $rsp .ra: .cfa 8 - ^
STACK CFI 3eddc .cfa: $rsp 48 +
STACK CFI INIT 3eee4 1b .cfa: $rsp .ra: .cfa 8 - ^
STACK CFI 3eee4 .cfa: $rsp 48 +
STACK CFI INIT 3ef08 67 .cfa: $rsp .ra: .cfa 8 - ^
STACK CFI 3ef08 .cfa: $rsp 48 +
STACK CFI INIT 3efa0 41 .cfa: $rsp .ra: .cfa 8 - ^
STACK CFI 3efa0 .cfa: $rsp 48 +
STACK CFI INIT 3eff4 c2 .cfa: $rsp .ra: .cfa 8 - ^
STACK CFI 3eff4 .cfa: $rsp 48 +
STACK CFI INIT 3f0e8 a7 .cfa: $rsp .ra: .cfa 8 - ^
STACK CFI 3f0e8 .cfa: $rsp 48 +
STACK CFI INIT 3f1b8 b7 .cfa: $rsp .ra: .cfa 8 - ^
STACK CFI 3f1b8 .cfa: $rsp 48 +
STACK CFI INIT 3f29c 39 .cfa: $rsp .ra: .cfa 8 - ^
STACK CFI 3f29c .cfa: $rsp 48 +
STACK CFI INIT 3f2e4 22 .cfa: $rsp .ra: .cfa 8 - ^
STACK CFI 3f2e4 .cfa: $rsp 48 +
STACK CFI INIT 3f36c 6d .cfa: $rsp .ra: .cfa 8 - ^
STACK CFI 3f36c .cfa: $rsp 80 +
STACK CFI INIT 3f3fc 15b .cfa: $rsp .ra: .cfa 8 - ^
STACK CFI 3f3fc .cfa: $rsp 1552 +
STACK CFI INIT 3f5d8 1a .cfa: $rsp .ra: .cfa 8 - ^
STACK CFI 3f5d8 .cfa: $rsp 48 +
STACK CFI INIT 3f5f8 ae .cfa: $rsp .ra: .cfa 8 - ^
STACK CFI 3f5f8 .cfa: $rsp 64 +
STACK CFI INIT 3f6d4 1e .cfa: $rsp .ra: .cfa 8 - ^
STACK CFI 3f6d4 .cfa: $rsp 64 +
STACK CFI INIT 3f6fc 2f .cfa: $rsp .ra: .cfa 8 - ^
STACK CFI 3f6fc .cfa: $rsp 64 +
STACK CFI INIT 3f738 47 .cfa: $rsp .ra: .cfa 8 - ^
STACK CFI 3f738 .cfa: $rsp 48 +
STACK CFI INIT 3f7d4 25 .cfa: $rsp .ra: .cfa 8 - ^
STACK CFI 3f7d4 .cfa: $rsp 48 +
STACK CFI INIT 3f804 40 .cfa: $rsp .ra: .cfa 8 - ^
STACK CFI 3f804 .cfa: $rsp 48 +
STACK CFI INIT 3f854 91 .cfa: $rsp .ra: .cfa 8 - ^
STACK CFI 3f854 .cfa: $rsp 48 +
STACK CFI INIT 3f90c 89 .cfa: $rsp .ra: .cfa 8 - ^
STACK CFI 3f90c .cfa: $rsp 48 +
STACK CFI INIT 3f9b8 7c .cfa: $rsp .ra: .cfa 8 - ^
STACK CFI 3f9b8 .cfa: $rsp 48 +
STACK CFI INIT 3fa54 75 .cfa: $rsp .ra: .cfa 8 - ^
STACK CFI 3fa54 .cfa: $rsp 48 +
STACK CFI INIT 3fae8 ec .cfa: $rsp .ra: .cfa 8 - ^
STACK CFI 3fae8 .cfa: $rsp 48 +
STACK CFI INIT 3fc10 f3 .cfa: $rsp .ra: .cfa 8 - ^
STACK CFI 3fc10 .cfa: $rsp 48 +
STACK CFI INIT 3fd40 a3 .cfa: $rsp .ra: .cfa 8 - ^
STACK CFI 3fd40 .cfa: $rsp 48 +
STACK CFI INIT 3fe0c a4 .cfa: $rsp .ra: .cfa 8 - ^
STACK CFI 3fe0c .cfa: $rsp 48 +
STACK CFI INIT 3ff54 a3 .cfa: $rsp .ra: .cfa 8 - ^
STACK CFI 3ff54 .cfa: $rsp 48 +
STACK CFI INIT 40020 a4 .cfa: $rsp .ra: .cfa 8 - ^
STACK CFI 40020 .cfa: $rsp 48 +
STACK CFI INIT 40148 4e .cfa: $rsp .ra: .cfa 8 - ^
STACK CFI 40148 .cfa: $rsp 48 +
STACK CFI INIT 401ac 20 .cfa: $rsp .ra: .cfa 8 - ^
STACK CFI 401ac .cfa: $rsp 48 +
STACK CFI INIT 401d4 20 .cfa: $rsp .ra: .cfa 8 - ^
STACK CFI 401d4 .cfa: $rsp 48 +
STACK CFI INIT 401fc 3b .cfa: $rsp .ra: .cfa 8 - ^
STACK CFI 401fc .cfa: $rsp 48 +
STACK CFI INIT 40248 3b .cfa: $rsp .ra: .cfa 8 - ^
STACK CFI 40248 .cfa: $rsp 48 +
STACK CFI INIT 40294 3a .cfa: $rsp .ra: .cfa 8 - ^
STACK CFI 40294 .cfa: $rsp 48 +
STACK CFI INIT 402dc 3a .cfa: $rsp .ra: .cfa 8 - ^
STACK CFI 402dc .cfa: $rsp 48 +
STACK CFI INIT 40324 75 .cfa: $rsp .ra: .cfa 8 - ^
STACK CFI 40324 .cfa: $rsp 48 +
STACK CFI INIT 403c4 3d .cfa: $rsp .ra: .cfa 8 - ^
STACK CFI 403c4 .cfa: $rsp 48 +
STACK CFI INIT 40440 209 .cfa: $rsp .ra: .cfa 8 - ^
STACK CFI 40440 .cfa: $rsp 160 +
STACK CFI INIT 406cc 22f .cfa: $rsp .ra: .cfa 8 - ^
STACK CFI 406cc .cfa: $rsp 192 +
STACK CFI INIT 40988 19c .cfa: $rsp .ra: .cfa 8 - ^
STACK CFI 40988 .cfa: $rsp 96 +
STACK CFI INIT 40b8c 19e .cfa: $rsp .ra: .cfa 8 - ^
STACK CFI 40b8c .cfa: $rsp 96 +
STACK CFI INIT 40d94 1aa .cfa: $rsp .ra: .cfa 8 - ^
STACK CFI 40d94 .cfa: $rsp 432 +
STACK CFI INIT 40fa8 1b3 .cfa: $rsp .ra: .cfa 8 - ^
STACK CFI 40fa8 .cfa: $rsp 704 +
STACK CFI INIT 41364 22 .cfa: $rsp .ra: .cfa 8 - ^
STACK CFI 41364 .cfa: $rsp 48 +
STACK CFI INIT 41390 3d .cfa: $rsp .ra: .cfa 8 - ^
STACK CFI 41390 .cfa: $rsp 48 +
STACK CFI INIT 413dc 3d .cfa: $rsp .ra: .cfa 8 - ^
STACK CFI 413dc .cfa: $rsp 48 +
STACK CFI INIT 414c8 de .cfa: $rsp .ra: .cfa 8 - ^
STACK CFI 414c8 .cfa: $rsp 48 +
STACK CFI INIT 415e0 de .cfa: $rsp .ra: .cfa 8 - ^
STACK CFI 415e0 .cfa: $rsp 48 +
STACK CFI INIT 41700 22 .cfa: $rsp .ra: .cfa 8 - ^
STACK CFI 41700 .cfa: $rsp 48 +
STACK CFI INIT 4172c 14 .cfa: $rsp .ra: .cfa 8 - ^
STACK CFI 4172c .cfa: $rsp 48 +
STACK CFI INIT 41758 c7 .cfa: $rsp .ra: .cfa 8 - ^
STACK CFI 41758 .cfa: $rsp 48 +
STACK CFI INIT 41850 c7 .cfa: $rsp .ra: .cfa 8 - ^
STACK CFI 41850 .cfa: $rsp 48 +
STACK CFI INIT 419a4 7c .cfa: $rsp .ra: .cfa 8 - ^
STACK CFI 419a4 .cfa: $rsp 592 +
STACK CFI INIT 41a40 1ba .cfa: $rsp .ra: .cfa 8 - ^
STACK CFI 41a40 .cfa: $rsp 48 +
STACK CFI INIT 41c68 26 .cfa: $rsp .ra: .cfa 8 - ^
STACK CFI 41c68 .cfa: $rsp 48 +
STACK CFI INIT 41cd0 1a0 .cfa: $rsp .ra: .cfa 8 - ^
STACK CFI 41cd0 .cfa: $rsp 48 +
STACK CFI INIT 41f30 7d .cfa: $rsp .ra: .cfa 8 - ^
STACK CFI 41f30 .cfa: $rsp 80 +
STACK CFI INIT 41fcc 27 .cfa: $rsp .ra: .cfa 8 - ^
STACK CFI 41fcc .cfa: $rsp 8 +
STACK CFI INIT 41ffc 90 .cfa: $rsp .ra: .cfa 8 - ^
STACK CFI 41ffc .cfa: $rsp 48 +
STACK CFI INIT 420b0 1e3 .cfa: $rsp .ra: .cfa 8 - ^
STACK CFI 420b0 .cfa: $rsp 1936 +
STACK CFI INIT 4230c 1c2 .cfa: $rsp .ra: .cfa 8 - ^
STACK CFI 4230c .cfa: $rsp 96 +
STACK CFI INIT 42540 b8 .cfa: $rsp .ra: .cfa 8 - ^
STACK CFI 42540 .cfa: $rsp 48 +
STACK CFI INIT 42630 60 .cfa: $rsp .ra: .cfa 8 - ^
STACK CFI 42630 .cfa: $rsp 48 +
STACK CFI INIT 426a8 1c .cfa: $rsp .ra: .cfa 8 - ^
STACK CFI 426a8 .cfa: $rsp 48 +
STACK CFI INIT 426e4 3a .cfa: $rsp .ra: .cfa 8 - ^
STACK CFI 426e4 .cfa: $rsp 80 +
STACK CFI INIT 4272c 25 .cfa: $rsp .ra: .cfa 8 - ^
STACK CFI 4272c .cfa: $rsp 48 +
STACK CFI INIT 4275c 2b7 .cfa: $rsp .ra: .cfa 8 - ^
STACK CFI 4275c .cfa: $rsp 128 +
STACK CFI INIT 42ac0 87 .cfa: $rsp .ra: .cfa 8 - ^
STACK CFI 42ac0 .cfa: $rsp 48 +
STACK CFI INIT 42b68 75 .cfa: $rsp .ra: .cfa 8 - ^
STACK CFI 42b68 .cfa: $rsp 80 +
STACK CFI INIT 42d38 65 .cfa: $rsp .ra: .cfa 8 - ^
STACK CFI 42d38 .cfa: $rsp 80 +
STACK CFI INIT 43040 96 .cfa: $rsp .ra: .cfa 8 - ^
STACK CFI 43040 .cfa: $rsp 16 +
STACK CFI INIT 43104 21 .cfa: $rsp .ra: .cfa 8 - ^
STACK CFI 43104 .cfa: $rsp 48 +
STACK CFI INIT 4313c 21 .cfa: $rsp .ra: .cfa 8 - ^
STACK CFI 4313c .cfa: $rsp 48 +
STACK CFI INIT 43168 11 .cfa: $rsp .ra: .cfa 8 - ^
STACK CFI 43168 .cfa: $rsp 48 +
STACK CFI INIT 431c0 101 .cfa: $rsp .ra: .cfa 8 - ^
STACK CFI 431c0 .cfa: $rsp 80 +
STACK CFI INIT 43304 9f .cfa: $rsp .ra: .cfa 8 - ^
STACK CFI 43304 .cfa: $rsp 48 +
STACK CFI INIT 433cc 320 .cfa: $rsp .ra: .cfa 8 - ^
STACK CFI 433cc .cfa: $rsp 112 +
STACK CFI INIT 437b4 322 .cfa: $rsp .ra: .cfa 8 - ^
STACK CFI 437b4 .cfa: $rsp 96 +
STACK CFI INIT 43ba0 eb .cfa: $rsp .ra: .cfa 8 - ^
STACK CFI 43ba0 .cfa: $rsp 64 +
STACK CFI INIT 43cc8 f5 .cfa: $rsp .ra: .cfa 8 - ^
STACK CFI 43cc8 .cfa: $rsp 64 +
STACK CFI INIT 43dfc 25 .cfa: $rsp .ra: .cfa 8 - ^
STACK CFI 43dfc .cfa: $rsp 48 +
STACK CFI INIT 43e2c 25 .cfa: $rsp .ra: .cfa 8 - ^
STACK CFI 43e2c .cfa: $rsp 48 +
STACK CFI INIT 43e5c 81 .cfa: $rsp .ra: .cfa 8 - ^
STACK CFI 43e5c .cfa: $rsp 48 +
STACK CFI INIT 43f00 91 .cfa: $rsp .ra: .cfa 8 - ^
STACK CFI 43f00 .cfa: $rsp 48 +
STACK CFI INIT 44118 48 .cfa: $rsp .ra: .cfa 8 - ^
STACK CFI 44118 .cfa: $rsp 48 +
STACK CFI INIT 44194 37 .cfa: $rsp .ra: .cfa 8 - ^
STACK CFI 44194 .cfa: $rsp 48 +
STACK CFI INIT 441f8 1b .cfa: $rsp .ra: .cfa 8 - ^
STACK CFI 441f8 .cfa: $rsp 48 +
STACK CFI INIT 44230 4c .cfa: $rsp .ra: .cfa 8 - ^
STACK CFI 44230 .cfa: $rsp 48 +
STACK CFI INIT 44290 4c .cfa: $rsp .ra: .cfa 8 - ^
STACK CFI 44290 .cfa: $rsp 48 +
STACK CFI INIT 442f0 69 .cfa: $rsp .ra: .cfa 8 - ^
STACK CFI 442f0 .cfa: $rsp 48 +
STACK CFI INIT 44374 38 .cfa: $rsp .ra: .cfa 8 - ^
STACK CFI 44374 .cfa: $rsp 48 +
STACK CFI INIT 44438 51 .cfa: $rsp .ra: .cfa 8 - ^
STACK CFI 44438 .cfa: $rsp 48 +
STACK CFI INIT 444a0 51 .cfa: $rsp .ra: .cfa 8 - ^
STACK CFI 444a0 .cfa: $rsp 48 +
STACK CFI INIT 44508 3c .cfa: $rsp .ra: .cfa 8 - ^
STACK CFI 44508 .cfa: $rsp 48 +
STACK CFI INIT 44554 6c .cfa: $rsp .ra: .cfa 8 - ^
STACK CFI 44554 .cfa: $rsp 48 +
STACK CFI INIT 445f0 1b .cfa: $rsp .ra: .cfa 8 - ^
STACK CFI 445f0 .cfa: $rsp 48 +
STACK CFI INIT 4463c 1b .cfa: $rsp .ra: .cfa 8 - ^
STACK CFI 4463c .cfa: $rsp 48 +
STACK CFI INIT 44660 95 .cfa: $rsp .ra: .cfa 8 - ^
STACK CFI 44660 .cfa: $rsp 48 +
STACK CFI INIT 4471c 50 .cfa: $rsp .ra: .cfa 8 - ^
STACK CFI 4471c .cfa: $rsp 48 +
STACK CFI INIT 44780 a8 .cfa: $rsp .ra: .cfa 8 - ^
STACK CFI 44780 .cfa: $rsp 64 +
STACK CFI INIT 44880 bf .cfa: $rsp .ra: .cfa 8 - ^
STACK CFI 44880 .cfa: $rsp 48 +
STACK CFI INIT 4499c 124 .cfa: $rsp .ra: .cfa 8 - ^
STACK CFI 4499c .cfa: $rsp 80 +
STACK CFI INIT 44b0c ba .cfa: $rsp .ra: .cfa 8 - ^
STACK CFI 44b0c .cfa: $rsp 48 +
STACK CFI INIT 44bf4 75 .cfa: $rsp .ra: .cfa 8 - ^
STACK CFI 44bf4 .cfa: $rsp 48 +
STACK CFI INIT 44c88 101 .cfa: $rsp .ra: .cfa 8 - ^
STACK CFI 44c88 .cfa: $rsp 64 +
STACK CFI INIT 44dfc eb .cfa: $rsp .ra: .cfa 8 - ^
STACK CFI 44dfc .cfa: $rsp 160 +
STACK CFI INIT 44f24 fb .cfa: $rsp .ra: .cfa 8 - ^
STACK CFI 44f24 .cfa: $rsp 48 +
STACK CFI INIT 45060 3b .cfa: $rsp .ra: .cfa 8 - ^
STACK CFI 45060 .cfa: $rsp 48 +
STACK CFI INIT 450ac 40 .cfa: $rsp .ra: .cfa 8 - ^
STACK CFI 450ac .cfa: $rsp 48 +
STACK CFI INIT 45124 1b .cfa: $rsp .ra: .cfa 8 - ^
STACK CFI 45124 .cfa: $rsp 48 +
STACK CFI INIT 45148 1b .cfa: $rsp .ra: .cfa 8 - ^
STACK CFI 45148 .cfa: $rsp 48 +
STACK CFI INIT 45184 1b .cfa: $rsp .ra: .cfa 8 - ^
STACK CFI 45184 .cfa: $rsp 48 +
STACK CFI INIT 451a8 1b .cfa: $rsp .ra: .cfa 8 - ^
STACK CFI 451a8 .cfa: $rsp 48 +
STACK CFI INIT 451cc 2f .cfa: $rsp .ra: .cfa 8 - ^
STACK CFI 451cc .cfa: $rsp 48 +
STACK CFI INIT 45208 2f .cfa: $rsp .ra: .cfa 8 - ^
STACK CFI 45208 .cfa: $rsp 48 +
STACK CFI INIT 45244 32 .cfa: $rsp .ra: .cfa 8 - ^
STACK CFI 45244 .cfa: $rsp 48 +
STACK CFI INIT 45284 2f .cfa: $rsp .ra: .cfa 8 - ^
STACK CFI 45284 .cfa: $rsp 48 +
STACK CFI INIT 452d4 65c .cfa: $rsp .ra: .cfa 8 - ^
STACK CFI 452d4 .cfa: $rsp 208 +
STACK CFI INIT 45adc 1b .cfa: $rsp .ra: .cfa 8 - ^
STACK CFI 45adc .cfa: $rsp 48 +
STACK CFI INIT 45b0c 1b .cfa: $rsp .ra: .cfa 8 - ^
STACK CFI 45b0c .cfa: $rsp 48 +
STACK CFI INIT 45b30 10a .cfa: $rsp .ra: .cfa 8 - ^
STACK CFI 45b30 .cfa: $rsp 48 +
STACK CFI INIT 45c7c 533 .cfa: $rsp .ra: .cfa 8 - ^
STACK CFI 45c7c .cfa: $rsp 112 +
STACK CFI INIT 46340 6c .cfa: $rsp .ra: .cfa 8 - ^
STACK CFI 46340 .cfa: $rsp 48 +
STACK CFI INIT 463c8 2e8 .cfa: $rsp .ra: .cfa 8 - ^
STACK CFI 463c8 .cfa: $rsp 112 +
STACK CFI INIT 4680c 1b .cfa: $rsp .ra: .cfa 8 - ^
STACK CFI 4680c .cfa: $rsp 48 +
STACK CFI INIT 46848 53 .cfa: $rsp .ra: .cfa 8 - ^
STACK CFI 46848 .cfa: $rsp 48 +
STACK CFI INIT 468b4 77 .cfa: $rsp .ra: .cfa 8 - ^
STACK CFI 468b4 .cfa: $rsp 48 +
STACK CFI INIT 46948 33e .cfa: $rsp .ra: .cfa 8 - ^
STACK CFI 46948 .cfa: $rsp 112 +
STACK CFI INIT 46d64 1b .cfa: $rsp .ra: .cfa 8 - ^
STACK CFI 46d64 .cfa: $rsp 48 +
STACK CFI INIT 46d88 108 .cfa: $rsp .ra: .cfa 8 - ^
STACK CFI 46d88 .cfa: $rsp 48 +
STACK CFI INIT 46ed4 9c .cfa: $rsp .ra: .cfa 8 - ^
STACK CFI 46ed4 .cfa: $rsp 48 +
STACK CFI INIT 46f98 30 .cfa: $rsp .ra: .cfa 8 - ^
STACK CFI 46f98 .cfa: $rsp 48 +
STACK CFI INIT 46fd4 2f .cfa: $rsp .ra: .cfa 8 - ^
STACK CFI 46fd4 .cfa: $rsp 48 +
STACK CFI INIT 4701c 5e .cfa: $rsp .ra: .cfa 8 - ^
STACK CFI 4701c .cfa: $rsp 48 +
STACK CFI INIT 481b8 97 .cfa: $rsp .ra: .cfa 8 - ^
STACK CFI 481b8 .cfa: $rsp 48 +
STACK CFI INIT 48274 fe .cfa: $rsp .ra: .cfa 8 - ^
STACK CFI 48274 .cfa: $rsp 80 +
STACK CFI INIT 483c4 22 .cfa: $rsp .ra: .cfa 8 - ^
STACK CFI 483c4 .cfa: $rsp 48 +
STACK CFI INIT 4841c 18d .cfa: $rsp .ra: .cfa 8 - ^
STACK CFI 4841c .cfa: $rsp 144 +
STACK CFI INIT 4860c 1f .cfa: $rsp .ra: .cfa 8 - ^
STACK CFI 4860c .cfa: $rsp 48 +
STACK CFI INIT 486e4 176 .cfa: $rsp .ra: .cfa 8 - ^
STACK CFI 486e4 .cfa: $rsp 48 +
STACK CFI INIT 488e8 36 .cfa: $rsp .ra: .cfa 8 - ^
STACK CFI 488e8 .cfa: $rsp 48 +
STACK CFI INIT 4895c a8 .cfa: $rsp .ra: .cfa 8 - ^
STACK CFI 4895c .cfa: $rsp 48 +
STACK CFI INIT 48a30 6e .cfa: $rsp .ra: .cfa 8 - ^
STACK CFI 48a30 .cfa: $rsp 48 +
STACK CFI INIT 48abc 65 .cfa: $rsp .ra: .cfa 8 - ^
STACK CFI 48abc .cfa: $rsp 48 +
STACK CFI INIT 48b3c a5 .cfa: $rsp .ra: .cfa 8 - ^
STACK CFI 48b3c .cfa: $rsp 256 +
STACK CFI INIT 48c0c cd .cfa: $rsp .ra: .cfa 8 - ^
STACK CFI 48c0c .cfa: $rsp 48 +
STACK CFI INIT 48d0c 9a .cfa: $rsp .ra: .cfa 8 - ^
STACK CFI 48d0c .cfa: $rsp 48 +
STACK CFI INIT 48e08 3bb .cfa: $rsp .ra: .cfa 8 - ^
STACK CFI 48e08 .cfa: $rsp 224 +
STACK CFI INIT 492b4 ea .cfa: $rsp .ra: .cfa 8 - ^
STACK CFI 492b4 .cfa: $rsp 320 +
STACK CFI INIT 493d8 c9 .cfa: $rsp .ra: .cfa 8 - ^
STACK CFI 493d8 .cfa: $rsp 48 +
STACK CFI INIT 494d4 68 .cfa: $rsp .ra: .cfa 8 - ^
STACK CFI 494d4 .cfa: $rsp 80 +
STACK CFI INIT 49558 77 .cfa: $rsp .ra: .cfa 8 - ^
STACK CFI 49558 .cfa: $rsp 48 +
STACK CFI INIT 495ec 99 .cfa: $rsp .ra: .cfa 8 - ^
STACK CFI 495ec .cfa: $rsp 64 +
STACK CFI INIT 496ac 278 .cfa: $rsp .ra: .cfa 8 - ^
STACK CFI 496ac .cfa: $rsp 80 +
STACK CFI INIT 499c4 e8 .cfa: $rsp .ra: .cfa 8 - ^
STACK CFI 499c4 .cfa: $rsp 304 +
STACK CFI INIT 49ae8 5f .cfa: $rsp .ra: .cfa 8 - ^
STACK CFI 49ae8 .cfa: $rsp 48 +
STACK CFI INIT 49b60 21 .cfa: $rsp .ra: .cfa 8 - ^
STACK CFI 49b60 .cfa: $rsp 48 +
STACK CFI INIT 49b8c cd .cfa: $rsp .ra: .cfa 8 - ^
STACK CFI 49b8c .cfa: $rsp 48 +
STACK CFI INIT 49c8c 98 .cfa: $rsp .ra: .cfa 8 - ^
STACK CFI 49c8c .cfa: $rsp 48 +
STACK CFI INIT 49d7c 248 .cfa: $rsp .ra: .cfa 8 - ^
STACK CFI 49d7c .cfa: $rsp 320 +
STACK CFI INIT 4a058 108 .cfa: $rsp .ra: .cfa 8 - ^
STACK CFI 4a058 .cfa: $rsp 304 +
STACK CFI INIT 4a208 ae .cfa: $rsp .ra: .cfa 8 - ^
STACK CFI 4a208 .cfa: $rsp 48 +
STACK CFI INIT 4a314 ab .cfa: $rsp .ra: .cfa 8 - ^
STACK CFI 4a314 .cfa: $rsp 48 +
STACK CFI INIT 4a3ec 7f .cfa: $rsp .ra: .cfa 8 - ^
STACK CFI 4a3ec .cfa: $rsp 64 +
STACK CFI INIT 4a48c 27e .cfa: $rsp .ra: .cfa 8 - ^
STACK CFI 4a48c .cfa: $rsp 128 +
STACK CFI INIT 4a804 9b .cfa: $rsp .ra: .cfa 8 - ^
STACK CFI 4a804 .cfa: $rsp 48 +
STACK CFI INIT 4a8c8 26 .cfa: $rsp .ra: .cfa 8 - ^
STACK CFI 4a8c8 .cfa: $rsp 48 +
STACK CFI INIT 4a970 68 .cfa: $rsp .ra: .cfa 8 - ^
STACK CFI 4a970 .cfa: $rsp 48 +
STACK CFI INIT 4aa30 62 .cfa: $rsp .ra: .cfa 8 - ^
STACK CFI 4aa30 .cfa: $rsp 48 +
STACK CFI INIT 4b000 119 .cfa: $rsp .ra: .cfa 8 - ^
STACK CFI 4b000 .cfa: $rsp 64 +
STACK CFI INIT 4b160 1d6 .cfa: $rsp .ra: .cfa 8 - ^
STACK CFI 4b160 .cfa: $rsp 80 +
STACK CFI INIT 4b3ac fe .cfa: $rsp .ra: .cfa 8 - ^
STACK CFI 4b3ac .cfa: $rsp 48 +
STACK CFI INIT 4b4ec 137 .cfa: $rsp .ra: .cfa 8 - ^
STACK CFI 4b4ec .cfa: $rsp 64 +
STACK CFI INIT 4b670 73 .cfa: $rsp .ra: .cfa 8 - ^
STACK CFI 4b670 .cfa: $rsp 48 +
STACK CFI INIT 4b70c 4e .cfa: $rsp .ra: .cfa 8 - ^
STACK CFI 4b70c .cfa: $rsp 48 +
STACK CFI INIT 4b770 4e .cfa: $rsp .ra: .cfa 8 - ^
STACK CFI 4b770 .cfa: $rsp 48 +
STACK CFI INIT 4b7d4 4e .cfa: $rsp .ra: .cfa 8 - ^
STACK CFI 4b7d4 .cfa: $rsp 48 +
STACK CFI INIT 4b838 4e .cfa: $rsp .ra: .cfa 8 - ^
STACK CFI 4b838 .cfa: $rsp 48 +
STACK CFI INIT 4b89c 3a .cfa: $rsp .ra: .cfa 8 - ^
STACK CFI 4b89c .cfa: $rsp 48 +
STACK CFI INIT 4b8e4 dc .cfa: $rsp .ra: .cfa 8 - ^
STACK CFI 4b8e4 .cfa: $rsp 96 +
STACK CFI INIT 4b9f8 95 .cfa: $rsp .ra: .cfa 8 - ^
STACK CFI 4b9f8 .cfa: $rsp 96 +
STACK CFI INIT 4bab4 48 .cfa: $rsp .ra: .cfa 8 - ^
STACK CFI 4bab4 .cfa: $rsp 48 +
STACK CFI INIT 4bb10 46 .cfa: $rsp .ra: .cfa 8 - ^
STACK CFI 4bb10 .cfa: $rsp 48 +
STACK CFI INIT 4bb68 46 .cfa: $rsp .ra: .cfa 8 - ^
STACK CFI 4bb68 .cfa: $rsp 48 +
STACK CFI INIT 4bbc0 51 .cfa: $rsp .ra: .cfa 8 - ^
STACK CFI 4bbc0 .cfa: $rsp 48 +
STACK CFI INIT 4bc28 b6 .cfa: $rsp .ra: .cfa 8 - ^
STACK CFI 4bc28 .cfa: $rsp 80 +
STACK CFI INIT 4bd0c 39 .cfa: $rsp .ra: .cfa 8 - ^
STACK CFI 4bd0c .cfa: $rsp 48 +
STACK CFI INIT 4bd54 82 .cfa: $rsp .ra: .cfa 8 - ^
STACK CFI 4bd54 .cfa: $rsp 64 +
STACK CFI INIT 4bdf8 48 .cfa: $rsp .ra: .cfa 8 - ^
STACK CFI 4bdf8 .cfa: $rsp 48 +
STACK CFI INIT 4be54 ab .cfa: $rsp .ra: .cfa 8 - ^
STACK CFI 4be54 .cfa: $rsp 80 +
STACK CFI INIT 4bf2c 61 .cfa: $rsp .ra: .cfa 8 - ^
STACK CFI 4bf2c .cfa: $rsp 48 +
STACK CFI INIT 4bfa8 51 .cfa: $rsp .ra: .cfa 8 - ^
STACK CFI 4bfa8 .cfa: $rsp 48 +
STACK CFI INIT 4c010 61 .cfa: $rsp .ra: .cfa 8 - ^
STACK CFI 4c010 .cfa: $rsp 48 +
STACK CFI INIT 4c08c 56 .cfa: $rsp .ra: .cfa 8 - ^
STACK CFI 4c08c .cfa: $rsp 48 +
STACK CFI INIT 4c0f8 70 .cfa: $rsp .ra: .cfa 8 - ^
STACK CFI 4c0f8 .cfa: $rsp 64 +
STACK CFI INIT 4c184 dc .cfa: $rsp .ra: .cfa 8 - ^
STACK CFI 4c184 .cfa: $rsp 96 +
STACK CFI INIT 4c298 50 .cfa: $rsp .ra: .cfa 8 - ^
STACK CFI 4c298 .cfa: $rsp 48 +
STACK CFI INIT 4c2fc 5f .cfa: $rsp .ra: .cfa 8 - ^
STACK CFI 4c2fc .cfa: $rsp 48 +
STACK CFI INIT 4c374 71 .cfa: $rsp .ra: .cfa 8 - ^
STACK CFI 4c374 .cfa: $rsp 64 +
STACK CFI INIT 4c404 71 .cfa: $rsp .ra: .cfa 8 - ^
STACK CFI 4c404 .cfa: $rsp 64 +
STACK CFI INIT 4c494 40 .cfa: $rsp .ra: .cfa 8 - ^
STACK CFI 4c494 .cfa: $rsp 48 +
STACK CFI INIT 4c4e4 33 .cfa: $rsp .ra: .cfa 8 - ^
STACK CFI 4c4e4 .cfa: $rsp 48 +
STACK CFI INIT 4c524 4f .cfa: $rsp .ra: .cfa 8 - ^
STACK CFI 4c524 .cfa: $rsp 48 +
STACK CFI INIT 4c588 42 .cfa: $rsp .ra: .cfa 8 - ^
STACK CFI 4c588 .cfa: $rsp 48 +
STACK CFI INIT 4c5dc 6d .cfa: $rsp .ra: .cfa 8 - ^
STACK CFI 4c5dc .cfa: $rsp 48 +
STACK CFI INIT 4c664 2e .cfa: $rsp .ra: .cfa 8 - ^
STACK CFI 4c664 .cfa: $rsp 48 +
STACK CFI INIT 4c6a0 2e .cfa: $rsp .ra: .cfa 8 - ^
STACK CFI 4c6a0 .cfa: $rsp 48 +
STACK CFI INIT 4c6dc 15a .cfa: $rsp .ra: .cfa 8 - ^
STACK CFI 4c6dc .cfa: $rsp 48 +
STACK CFI INIT 4c88c 7c .cfa: $rsp .ra: .cfa 8 - ^
STACK CFI 4c88c .cfa: $rsp 48 +
STACK CFI INIT 4c928 45 .cfa: $rsp .ra: .cfa 8 - ^
STACK CFI 4c928 .cfa: $rsp 8 +
STACK CFI INIT 4c980 c7 .cfa: $rsp .ra: .cfa 8 - ^
STACK CFI 4c980 .cfa: $rsp 96 +
STACK CFI INIT 4ca78 41 .cfa: $rsp .ra: .cfa 8 - ^
STACK CFI 4ca78 .cfa: $rsp 48 +
STACK CFI INIT 4cacc 33 .cfa: $rsp .ra: .cfa 8 - ^
STACK CFI 4cacc .cfa: $rsp 48 +
STACK CFI INIT 4cb14 95 .cfa: $rsp .ra: .cfa 8 - ^
STACK CFI 4cb14 .cfa: $rsp 48 +
STACK CFI INIT 4cbdc 1c .cfa: $rsp .ra: .cfa 8 - ^
STACK CFI 4cbdc .cfa: $rsp 48 +
STACK CFI INIT 4cc1c 80 .cfa: $rsp .ra: .cfa 8 - ^
STACK CFI 4cc1c .cfa: $rsp 48 +
STACK CFI INIT 4ccbc 3c .cfa: $rsp .ra: .cfa 8 - ^
STACK CFI 4ccbc .cfa: $rsp 48 +
STACK CFI INIT 4cd9c 27 .cfa: $rsp .ra: .cfa 8 - ^
STACK CFI 4cd9c .cfa: $rsp 8 +
STACK CFI INIT 4cddc 2f .cfa: $rsp .ra: .cfa 8 - ^
STACK CFI 4cddc .cfa: $rsp 48 +
STACK CFI INIT 4ce18 34 .cfa: $rsp .ra: .cfa 8 - ^
STACK CFI 4ce18 .cfa: $rsp 48 +
STACK CFI INIT 4ce5c 59 .cfa: $rsp .ra: .cfa 8 - ^
STACK CFI 4ce5c .cfa: $rsp 48 +
STACK CFI INIT 4cef0 45 .cfa: $rsp .ra: .cfa 8 - ^
STACK CFI 4cef0 .cfa: $rsp 48 +
STACK CFI INIT 4cf48 26 .cfa: $rsp .ra: .cfa 8 - ^
STACK CFI 4cf48 .cfa: $rsp 48 +
STACK CFI INIT 4d000 a7 .cfa: $rsp .ra: .cfa 8 - ^
STACK CFI 4d000 .cfa: $rsp 48 +
STACK CFI INIT 4d11c 27 .cfa: $rsp .ra: .cfa 8 - ^
STACK CFI 4d11c .cfa: $rsp 8 +
STACK CFI INIT 4d1a8 27 .cfa: $rsp .ra: .cfa 8 - ^
STACK CFI 4d1a8 .cfa: $rsp 48 +
STACK CFI INIT 4d1dc 2e .cfa: $rsp .ra: .cfa 8 - ^
STACK CFI 4d1dc .cfa: $rsp 48 +
STACK CFI INIT 4d23c 12 .cfa: $rsp .ra: .cfa 8 - ^
STACK CFI 4d23c .cfa: $rsp 48 +
STACK CFI INIT 4d254 12 .cfa: $rsp .ra: .cfa 8 - ^
STACK CFI 4d254 .cfa: $rsp 48 +
STACK CFI INIT 4d26c 280 .cfa: $rsp .ra: .cfa 8 - ^
STACK CFI 4d26c .cfa: $rsp 112 +
STACK CFI INIT 4d58c 1da .cfa: $rsp .ra: .cfa 8 - ^
STACK CFI 4d58c .cfa: $rsp 64 +
STACK CFI INIT 4d7dc 9a .cfa: $rsp .ra: .cfa 8 - ^
STACK CFI 4d7dc .cfa: $rsp 48 +
STACK CFI INIT 4d89c e0 .cfa: $rsp .ra: .cfa 8 - ^
STACK CFI 4d89c .cfa: $rsp 128 +
STACK CFI INIT 4d9b4 40 .cfa: $rsp .ra: .cfa 8 - ^
STACK CFI 4d9b4 .cfa: $rsp 48 +
STACK CFI INIT 4da04 26 .cfa: $rsp .ra: .cfa 8 - ^
STACK CFI 4da04 .cfa: $rsp 48 +
STACK CFI INIT 4da34 28 .cfa: $rsp .ra: .cfa 8 - ^
STACK CFI 4da34 .cfa: $rsp 48 +
STACK CFI INIT 4da68 28 .cfa: $rsp .ra: .cfa 8 - ^
STACK CFI 4da68 .cfa: $rsp 48 +
STACK CFI INIT 4db58 ae .cfa: $rsp .ra: .cfa 8 - ^
STACK CFI 4db58 .cfa: $rsp 112 +
STACK CFI INIT 4dc40 78 .cfa: $rsp .ra: .cfa 8 - ^
STACK CFI 4dc40 .cfa: $rsp 48 +
STACK CFI INIT 4dcfc 5d .cfa: $rsp .ra: .cfa 8 - ^
STACK CFI 4dcfc .cfa: $rsp 80 +
STACK CFI INIT 4de60 7a .cfa: $rsp .ra: .cfa 8 - ^
STACK CFI 4de60 .cfa: $rsp 48 +
STACK CFI INIT 4def8 4b .cfa: $rsp .ra: .cfa 8 - ^
STACK CFI 4def8 .cfa: $rsp 48 +
STACK CFI INIT 4df60 66 .cfa: $rsp .ra: .cfa 8 - ^
STACK CFI 4df60 .cfa: $rsp 64 +
STACK CFI INIT 4dff4 1b .cfa: $rsp .ra: .cfa 8 - ^
STACK CFI 4dff4 .cfa: $rsp 48 +
STACK CFI INIT 4e024 1b .cfa: $rsp .ra: .cfa 8 - ^
STACK CFI 4e024 .cfa: $rsp 48 +
STACK CFI INIT 4e048 11f .cfa: $rsp .ra: .cfa 8 - ^
STACK CFI 4e048 .cfa: $rsp 48 +
STACK CFI INIT 4e1c8 5b .cfa: $rsp .ra: .cfa 8 - ^
STACK CFI 4e1c8 .cfa: $rsp 48 +
STACK CFI INIT 4e23c 47 .cfa: $rsp .ra: .cfa 8 - ^
STACK CFI 4e23c .cfa: $rsp 48 +
STACK CFI INIT 4e2e8 cf .cfa: $rsp .ra: .cfa 8 - ^
STACK CFI 4e2e8 .cfa: $rsp 48 +
STACK CFI INIT 4e3ec 39 .cfa: $rsp .ra: .cfa 8 - ^
STACK CFI 4e3ec .cfa: $rsp 48 +
STACK CFI INIT 4e45c 28 .cfa: $rsp .ra: .cfa 8 - ^
STACK CFI 4e45c .cfa: $rsp 48 +
STACK CFI INIT 4e490 25 .cfa: $rsp .ra: .cfa 8 - ^
STACK CFI 4e490 .cfa: $rsp 48 +
STACK CFI INIT 4e4c8 5d .cfa: $rsp .ra: .cfa 8 - ^
STACK CFI 4e4c8 .cfa: $rsp 80 +
STACK CFI INIT 4e53c 5d .cfa: $rsp .ra: .cfa 8 - ^
STACK CFI 4e53c .cfa: $rsp 80 +
STACK CFI INIT 4e5b0 68 .cfa: $rsp .ra: .cfa 8 - ^
STACK CFI 4e5b0 .cfa: $rsp 80 +
STACK CFI INIT 4e634 5a .cfa: $rsp .ra: .cfa 8 - ^
STACK CFI 4e634 .cfa: $rsp 80 +
STACK CFI INIT 4e6a4 6c .cfa: $rsp .ra: .cfa 8 - ^
STACK CFI 4e6a4 .cfa: $rsp 80 +
STACK CFI INIT 4e72c 6c .cfa: $rsp .ra: .cfa 8 - ^
STACK CFI 4e72c .cfa: $rsp 80 +
STACK CFI INIT 4e7b4 5a .cfa: $rsp .ra: .cfa 8 - ^
STACK CFI 4e7b4 .cfa: $rsp 80 +
STACK CFI INIT 4e824 5d .cfa: $rsp .ra: .cfa 8 - ^
STACK CFI 4e824 .cfa: $rsp 80 +
STACK CFI INIT 4e898 5a .cfa: $rsp .ra: .cfa 8 - ^
STACK CFI 4e898 .cfa: $rsp 80 +
STACK CFI INIT 4e908 5d .cfa: $rsp .ra: .cfa 8 - ^
STACK CFI 4e908 .cfa: $rsp 80 +
STACK CFI INIT 4e97c 5a .cfa: $rsp .ra: .cfa 8 - ^
STACK CFI 4e97c .cfa: $rsp 80 +
STACK CFI INIT 4e9ec 5a .cfa: $rsp .ra: .cfa 8 - ^
STACK CFI 4e9ec .cfa: $rsp 80 +
STACK CFI INIT 4ea5c 5a .cfa: $rsp .ra: .cfa 8 - ^
STACK CFI 4ea5c .cfa: $rsp 80 +
STACK CFI INIT 4eacc 5d .cfa: $rsp .ra: .cfa 8 - ^
STACK CFI 4eacc .cfa: $rsp 80 +
STACK CFI INIT 4eb40 7e .cfa: $rsp .ra: .cfa 8 - ^
STACK CFI 4eb40 .cfa: $rsp 80 +
STACK CFI INIT 4ebe0 7e .cfa: $rsp .ra: .cfa 8 - ^
STACK CFI 4ebe0 .cfa: $rsp 80 +
STACK CFI INIT 4ec80 94 .cfa: $rsp .ra: .cfa 8 - ^
STACK CFI 4ec80 .cfa: $rsp 80 +
STACK CFI INIT 4ed3c 78 .cfa: $rsp .ra: .cfa 8 - ^
STACK CFI 4ed3c .cfa: $rsp 80 +
STACK CFI INIT 4edd4 78 .cfa: $rsp .ra: .cfa 8 - ^
STACK CFI 4edd4 .cfa: $rsp 80 +
STACK CFI INIT 4ee6c 7e .cfa: $rsp .ra: .cfa 8 - ^
STACK CFI 4ee6c .cfa: $rsp 80 +
STACK CFI INIT 4ef0c 78 .cfa: $rsp .ra: .cfa 8 - ^
STACK CFI 4ef0c .cfa: $rsp 80 +
STACK CFI INIT 4efa4 7e .cfa: $rsp .ra: .cfa 8 - ^
STACK CFI 4efa4 .cfa: $rsp 80 +
STACK CFI INIT 4f044 78 .cfa: $rsp .ra: .cfa 8 - ^
STACK CFI 4f044 .cfa: $rsp 80 +
STACK CFI INIT 4f0dc 78 .cfa: $rsp .ra: .cfa 8 - ^
STACK CFI 4f0dc .cfa: $rsp 80 +
STACK CFI INIT 4f174 78 .cfa: $rsp .ra: .cfa 8 - ^
STACK CFI 4f174 .cfa: $rsp 80 +
STACK CFI INIT 4f20c 7e .cfa: $rsp .ra: .cfa 8 - ^
STACK CFI 4f20c .cfa: $rsp 80 +
STACK CFI INIT 4f2ac 13d .cfa: $rsp .ra: .cfa 8 - ^
STACK CFI 4f2ac .cfa: $rsp 144 +
STACK CFI INIT 4f438 13d .cfa: $rsp .ra: .cfa 8 - ^
STACK CFI 4f438 .cfa: $rsp 144 +
STACK CFI INIT 4f5c4 4e .cfa: $rsp .ra: .cfa 8 - ^
STACK CFI 4f5c4 .cfa: $rsp 48 +
STACK CFI INIT 4f628 4e .cfa: $rsp .ra: .cfa 8 - ^
STACK CFI 4f628 .cfa: $rsp 48 +
STACK CFI INIT 4f6c0 13e .cfa: $rsp .ra: .cfa 8 - ^
STACK CFI 4f6c0 .cfa: $rsp 128 +
STACK CFI INIT 4f854 13e .cfa: $rsp .ra: .cfa 8 - ^
STACK CFI 4f854 .cfa: $rsp 128 +
STACK CFI INIT 4f9e4 2a .cfa: $rsp .ra: .cfa 8 - ^
STACK CFI 4f9e4 .cfa: $rsp 48 +
STACK CFI INIT 4fa18 2a .cfa: $rsp .ra: .cfa 8 - ^
STACK CFI 4fa18 .cfa: $rsp 48 +
STACK CFI INIT 4fa7c 2e .cfa: $rsp .ra: .cfa 8 - ^
STACK CFI 4fa7c .cfa: $rsp 64 +
STACK CFI INIT 4fab8 2e .cfa: $rsp .ra: .cfa 8 - ^
STACK CFI 4fab8 .cfa: $rsp 64 +
STACK CFI INIT 4faf4 2e .cfa: $rsp .ra: .cfa 8 - ^
STACK CFI 4faf4 .cfa: $rsp 64 +
STACK CFI INIT 4fb30 2e .cfa: $rsp .ra: .cfa 8 - ^
STACK CFI 4fb30 .cfa: $rsp 64 +
STACK CFI INIT 4fb6c 2e .cfa: $rsp .ra: .cfa 8 - ^
STACK CFI 4fb6c .cfa: $rsp 64 +
STACK CFI INIT 4fba8 2e .cfa: $rsp .ra: .cfa 8 - ^
STACK CFI 4fba8 .cfa: $rsp 64 +
STACK CFI INIT 4fbe4 2e .cfa: $rsp .ra: .cfa 8 - ^
STACK CFI 4fbe4 .cfa: $rsp 64 +
STACK CFI INIT 4fc20 2e .cfa: $rsp .ra: .cfa 8 - ^
STACK CFI 4fc20 .cfa: $rsp 64 +
STACK CFI INIT 4fc5c 2a .cfa: $rsp .ra: .cfa 8 - ^
STACK CFI 4fc5c .cfa: $rsp 64 +
STACK CFI INIT 4fc90 2e .cfa: $rsp .ra: .cfa 8 - ^
STACK CFI 4fc90 .cfa: $rsp 64 +
STACK CFI INIT 4fccc 2e .cfa: $rsp .ra: .cfa 8 - ^
STACK CFI 4fccc .cfa: $rsp 64 +
STACK CFI INIT 4fd08 2e .cfa: $rsp .ra: .cfa 8 - ^
STACK CFI 4fd08 .cfa: $rsp 64 +
STACK CFI INIT 4fd44 2e .cfa: $rsp .ra: .cfa 8 - ^
STACK CFI 4fd44 .cfa: $rsp 64 +
STACK CFI INIT 4fd80 2a .cfa: $rsp .ra: .cfa 8 - ^
STACK CFI 4fd80 .cfa: $rsp 64 +
STACK CFI INIT 4fdb4 2e .cfa: $rsp .ra: .cfa 8 - ^
STACK CFI 4fdb4 .cfa: $rsp 64 +
STACK CFI INIT 4fdf0 2e .cfa: $rsp .ra: .cfa 8 - ^
STACK CFI 4fdf0 .cfa: $rsp 64 +
STACK CFI INIT 4fe2c 2e .cfa: $rsp .ra: .cfa 8 - ^
STACK CFI 4fe2c .cfa: $rsp 64 +
STACK CFI INIT 4fe68 2e .cfa: $rsp .ra: .cfa 8 - ^
STACK CFI 4fe68 .cfa: $rsp 64 +
STACK CFI INIT 4fea4 2a .cfa: $rsp .ra: .cfa 8 - ^
STACK CFI 4fea4 .cfa: $rsp 64 +
STACK CFI INIT 4fed8 2e .cfa: $rsp .ra: .cfa 8 - ^
STACK CFI 4fed8 .cfa: $rsp 64 +
STACK CFI INIT 4ff14 2e .cfa: $rsp .ra: .cfa 8 - ^
STACK CFI 4ff14 .cfa: $rsp 64 +
STACK CFI INIT 4ff50 2e .cfa: $rsp .ra: .cfa 8 - ^
STACK CFI 4ff50 .cfa: $rsp 64 +
STACK CFI INIT 4ff8c 2e .cfa: $rsp .ra: .cfa 8 - ^
STACK CFI 4ff8c .cfa: $rsp 64 +
STACK CFI INIT 4ffc8 2a .cfa: $rsp .ra: .cfa 8 - ^
STACK CFI 4ffc8 .cfa: $rsp 64 +
STACK CFI INIT 4fffc 2e .cfa: $rsp .ra: .cfa 8 - ^
STACK CFI 4fffc .cfa: $rsp 64 +
STACK CFI INIT 50038 2e .cfa: $rsp .ra: .cfa 8 - ^
STACK CFI 50038 .cfa: $rsp 64 +
STACK CFI INIT 50074 2e .cfa: $rsp .ra: .cfa 8 - ^
STACK CFI 50074 .cfa: $rsp 64 +
STACK CFI INIT 500b0 2e .cfa: $rsp .ra: .cfa 8 - ^
STACK CFI 500b0 .cfa: $rsp 64 +
STACK CFI INIT 500ec 2a .cfa: $rsp .ra: .cfa 8 - ^
STACK CFI 500ec .cfa: $rsp 64 +
STACK CFI INIT 50120 2a .cfa: $rsp .ra: .cfa 8 - ^
STACK CFI 50120 .cfa: $rsp 64 +
STACK CFI INIT 50154 2a .cfa: $rsp .ra: .cfa 8 - ^
STACK CFI 50154 .cfa: $rsp 64 +
STACK CFI INIT 50188 2a .cfa: $rsp .ra: .cfa 8 - ^
STACK CFI 50188 .cfa: $rsp 64 +
STACK CFI INIT 501bc 2a .cfa: $rsp .ra: .cfa 8 - ^
STACK CFI 501bc .cfa: $rsp 64 +
STACK CFI INIT 501f0 2a .cfa: $rsp .ra: .cfa 8 - ^
STACK CFI 501f0 .cfa: $rsp 64 +
STACK CFI INIT 50224 2a .cfa: $rsp .ra: .cfa 8 - ^
STACK CFI 50224 .cfa: $rsp 64 +
STACK CFI INIT 50258 2a .cfa: $rsp .ra: .cfa 8 - ^
STACK CFI 50258 .cfa: $rsp 64 +
STACK CFI INIT 5028c 2a .cfa: $rsp .ra: .cfa 8 - ^
STACK CFI 5028c .cfa: $rsp 64 +
STACK CFI INIT 502c0 2a .cfa: $rsp .ra: .cfa 8 - ^
STACK CFI 502c0 .cfa: $rsp 64 +
STACK CFI INIT 502f4 2a .cfa: $rsp .ra: .cfa 8 - ^
STACK CFI 502f4 .cfa: $rsp 64 +
STACK CFI INIT 50328 2a .cfa: $rsp .ra: .cfa 8 - ^
STACK CFI 50328 .cfa: $rsp 64 +
STACK CFI INIT 5035c 17c .cfa: $rsp .ra: .cfa 8 - ^
STACK CFI 5035c .cfa: $rsp 96 +
STACK CFI INIT 50544 72 .cfa: $rsp .ra: .cfa 8 - ^
STACK CFI 50544 .cfa: $rsp 96 +
STACK CFI INIT 505d4 183 .cfa: $rsp .ra: .cfa 8 - ^
STACK CFI 505d4 .cfa: $rsp 112 +
STACK CFI INIT 507b8 4d .cfa: $rsp .ra: .cfa 8 - ^
STACK CFI 507b8 .cfa: $rsp 64 +
STACK CFI INIT 50818 14 .cfa: $rsp .ra: .cfa 8 - ^
STACK CFI 50818 .cfa: $rsp 64 +
STACK CFI INIT 50834 31 .cfa: $rsp .ra: .cfa 8 - ^
STACK CFI 50834 .cfa: $rsp 48 +
STACK CFI INIT 50874 31 .cfa: $rsp .ra: .cfa 8 - ^
STACK CFI 50874 .cfa: $rsp 48 +
STACK CFI INIT 50934 365 .cfa: $rsp .ra: .cfa 8 - ^
STACK CFI 50934 .cfa: $rsp 160 +
STACK CFI INIT 50d74 db .cfa: $rsp .ra: .cfa 8 - ^
STACK CFI 50d74 .cfa: $rsp 96 +
STACK CFI INIT 50e88 1d2 .cfa: $rsp .ra: .cfa 8 - ^
STACK CFI 50e88 .cfa: $rsp 96 +
STACK CFI INIT 510d0 a6 .cfa: $rsp .ra: .cfa 8 - ^
STACK CFI 510d0 .cfa: $rsp 80 +
STACK CFI INIT 511a0 144 .cfa: $rsp .ra: .cfa 8 - ^
STACK CFI 511a0 .cfa: $rsp 80 +
STACK CFI INIT 51338 132 .cfa: $rsp .ra: .cfa 8 - ^
STACK CFI 51338 .cfa: $rsp 96 +
STACK CFI INIT 514b8 13f .cfa: $rsp .ra: .cfa 8 - ^
STACK CFI 514b8 .cfa: $rsp 208 +
STACK CFI INIT 51648 30 .cfa: $rsp .ra: .cfa 8 - ^
STACK CFI 51648 .cfa: $rsp 48 +
STACK CFI INIT 5168c 288 .cfa: $rsp .ra: .cfa 8 - ^
STACK CFI 5168c .cfa: $rsp 112 +
STACK CFI INIT 519dc 178 .cfa: $rsp .ra: .cfa 8 - ^
STACK CFI 519dc .cfa: $rsp 96 +
STACK CFI INIT 51bb4 23 .cfa: $rsp .ra: .cfa 8 - ^
STACK CFI 51bb4 .cfa: $rsp 48 +
STACK CFI INIT 51be8 5e .cfa: $rsp .ra: .cfa 8 - ^
STACK CFI 51be8 .cfa: $rsp 48 +
STACK CFI INIT 51c78 26 .cfa: $rsp .ra: .cfa 8 - ^
STACK CFI 51c78 .cfa: $rsp 48 +
STACK CFI INIT 51cc4 21 .cfa: $rsp .ra: .cfa 8 - ^
STACK CFI 51cc4 .cfa: $rsp 48 +
STACK CFI INIT 51d0c 114 .cfa: $rsp .ra: .cfa 8 - ^
STACK CFI 51d0c .cfa: $rsp 64 +
STACK CFI INIT 51ed0 6f .cfa: $rsp .ra: .cfa 8 - ^
STACK CFI 51ed0 .cfa: $rsp 48 +
STACK CFI INIT 51f88 113 .cfa: $rsp .ra: .cfa 8 - ^
STACK CFI 51f88 .cfa: $rsp 144 +
STACK CFI INIT 520e0 9c .cfa: $rsp .ra: .cfa 8 - ^
STACK CFI 520e0 .cfa: $rsp 80 +
STACK CFI INIT 521b0 17 .cfa: $rsp .ra: .cfa 8 - ^
STACK CFI 521b0 .cfa: $rsp 64 +
STACK CFI INIT 521c7 a4 .cfa: $rsp .ra: .cfa 8 - ^
STACK CFI 521c7 .cfa: $rsp 64 +
STACK CFI INIT 5226b 1 .cfa: $rsp .ra: .cfa 8 - ^
STACK CFI 5226b .cfa: $rsp 64 +
STACK CFI INIT 522e0 5b .cfa: $rsp .ra: .cfa 8 - ^
STACK CFI 522e0 .cfa: $rsp 1136 +
STACK CFI INIT 5233b 334 .cfa: $rsp .ra: .cfa 8 - ^
STACK CFI 5233b .cfa: $rsp 1136 +
STACK CFI INIT 5266f 1e .cfa: $rsp .ra: .cfa 8 - ^
STACK CFI 5266f .cfa: $rsp 1136 +
STACK CFI INIT 52778 d3 .cfa: $rsp .ra: .cfa 8 - ^
STACK CFI 52778 .cfa: $rsp 48 +
STACK CFI INIT 52880 e5 .cfa: $rsp .ra: .cfa 8 - ^
STACK CFI 52880 .cfa: $rsp 48 +
STACK CFI INIT 529a0 9e .cfa: $rsp .ra: .cfa 8 - ^
STACK CFI 529a0 .cfa: $rsp 96 +
STACK CFI INIT 52a70 3e0 .cfa: $rsp .ra: .cfa 8 - ^
STACK CFI 52a70 .cfa: $rsp 64 +
STACK CFI INIT 52f48 107 .cfa: $rsp .ra: .cfa 8 - ^
STACK CFI 52f48 .cfa: $rsp 64 +
STACK CFI INIT 530c8 22 .cfa: $rsp .ra: .cfa 8 - ^
STACK CFI 530c8 .cfa: $rsp 48 +
STACK CFI INIT 530f4 22 .cfa: $rsp .ra: .cfa 8 - ^
STACK CFI 530f4 .cfa: $rsp 48 +
STACK CFI INIT 53120 5c .cfa: $rsp .ra: .cfa 8 - ^
STACK CFI 53120 .cfa: $rsp 48 +
STACK CFI INIT 53194 24 .cfa: $rsp .ra: .cfa 8 - ^
STACK CFI 53194 .cfa: $rsp 48 +
STACK CFI INIT 531e0 31 .cfa: $rsp .ra: .cfa 8 - ^
STACK CFI 531e0 .cfa: $rsp 48 +
STACK CFI INIT 53228 a4 .cfa: $rsp .ra: .cfa 8 - ^
STACK CFI 53228 .cfa: $rsp 112 +
STACK CFI INIT 53350 ca .cfa: $rsp .ra: .cfa 8 - ^
STACK CFI 53350 .cfa: $rsp 64 +
STACK CFI INIT 53480 30 .cfa: $rsp .ra: .cfa 8 - ^
STACK CFI 53480 .cfa: $rsp 48 +
STACK CFI INIT 534bc 17 .cfa: $rsp .ra: .cfa 8 - ^
STACK CFI 534bc .cfa: $rsp 48 +
STACK CFI INIT 53514 132 .cfa: $rsp .ra: .cfa 8 - ^
STACK CFI 53514 .cfa: $rsp 704 +
STACK CFI INIT 536a0 94 .cfa: $rsp .ra: .cfa 8 - ^
STACK CFI 536a0 .cfa: $rsp 80 +
STACK CFI INIT 5375c 202 .cfa: $rsp .ra: .cfa 8 - ^
STACK CFI 5375c .cfa: $rsp 128 +
STACK CFI INIT 539e8 133 .cfa: $rsp .ra: .cfa 8 - ^
STACK CFI 539e8 .cfa: $rsp 96 +
STACK CFI INIT 53b88 1e .cfa: $rsp .ra: .cfa 8 - ^
STACK CFI 53b88 .cfa: $rsp 64 +
STACK CFI INIT 53bbc 315 .cfa: $rsp .ra: .cfa 8 - ^
STACK CFI 53bbc .cfa: $rsp 144 +
STACK CFI INIT 53f98 96 .cfa: $rsp .ra: .cfa 8 - ^
STACK CFI 53f98 .cfa: $rsp 128 +
STACK CFI INIT 54054 17 .cfa: $rsp .ra: .cfa 8 - ^
STACK CFI 54054 .cfa: $rsp 48 +
STACK CFI INIT 54070 ad .cfa: $rsp .ra: .cfa 8 - ^
STACK CFI 54070 .cfa: $rsp 48 +
STACK CFI INIT 54148 144 .cfa: $rsp .ra: .cfa 8 - ^
STACK CFI 54148 .cfa: $rsp 96 +
STACK CFI INIT 542fc 100 .cfa: $rsp .ra: .cfa 8 - ^
STACK CFI 542fc .cfa: $rsp 112 +
STACK CFI INIT 5443c ff .cfa: $rsp .ra: .cfa 8 - ^
STACK CFI 5443c .cfa: $rsp 176 +
STACK CFI INIT 5457c 179 .cfa: $rsp .ra: .cfa 8 - ^
STACK CFI 5457c .cfa: $rsp 144 +
STACK CFI INIT 54754 1c8 .cfa: $rsp .ra: .cfa 8 - ^
STACK CFI 54754 .cfa: $rsp 272 +
STACK CFI INIT 54990 c4 .cfa: $rsp .ra: .cfa 8 - ^
STACK CFI 54990 .cfa: $rsp 96 +
STACK CFI INIT 54a90 c4 .cfa: $rsp .ra: .cfa 8 - ^
STACK CFI 54a90 .cfa: $rsp 48 +
STACK CFI INIT 54b88 c1 .cfa: $rsp .ra: .cfa 8 - ^
STACK CFI 54b88 .cfa: $rsp 48 +
STACK CFI INIT 54c7c ae .cfa: $rsp .ra: .cfa 8 - ^
STACK CFI 54c7c .cfa: $rsp 48 +
STACK CFI INIT 54d58 c5 .cfa: $rsp .ra: .cfa 8 - ^
STACK CFI 54d58 .cfa: $rsp 48 +
STACK CFI INIT 54e50 67 .cfa: $rsp .ra: .cfa 8 - ^
STACK CFI 54e50 .cfa: $rsp 64 +
STACK CFI INIT 54ed0 69 .cfa: $rsp .ra: .cfa 8 - ^
STACK CFI 54ed0 .cfa: $rsp 64 +
STACK CFI INIT 54f54 67 .cfa: $rsp .ra: .cfa 8 - ^
STACK CFI 54f54 .cfa: $rsp 64 +
STACK CFI INIT 54fd4 69 .cfa: $rsp .ra: .cfa 8 - ^
STACK CFI 54fd4 .cfa: $rsp 64 +
STACK CFI INIT 55058 31 .cfa: $rsp .ra: .cfa 8 - ^
STACK CFI 55058 .cfa: $rsp 64 +
STACK CFI INIT 55098 21 .cfa: $rsp .ra: .cfa 8 - ^
STACK CFI 55098 .cfa: $rsp 64 +
STACK CFI INIT 550c4 31 .cfa: $rsp .ra: .cfa 8 - ^
STACK CFI 550c4 .cfa: $rsp 64 +
STACK CFI INIT 55104 21 .cfa: $rsp .ra: .cfa 8 - ^
STACK CFI 55104 .cfa: $rsp 64 +
STACK CFI INIT 55130 30 .cfa: $rsp .ra: .cfa 8 - ^
STACK CFI 55130 .cfa: $rsp 64 +
STACK CFI INIT 5516c 20 .cfa: $rsp .ra: .cfa 8 - ^
STACK CFI 5516c .cfa: $rsp 64 +
STACK CFI INIT 55194 30 .cfa: $rsp .ra: .cfa 8 - ^
STACK CFI 55194 .cfa: $rsp 64 +
STACK CFI INIT 551d0 20 .cfa: $rsp .ra: .cfa 8 - ^
STACK CFI 551d0 .cfa: $rsp 64 +
STACK CFI INIT 551f8 30 .cfa: $rsp .ra: .cfa 8 - ^
STACK CFI 551f8 .cfa: $rsp 64 +
STACK CFI INIT 55234 20 .cfa: $rsp .ra: .cfa 8 - ^
STACK CFI 55234 .cfa: $rsp 64 +
STACK CFI INIT 5525c 30 .cfa: $rsp .ra: .cfa 8 - ^
STACK CFI 5525c .cfa: $rsp 64 +
STACK CFI INIT 55298 20 .cfa: $rsp .ra: .cfa 8 - ^
STACK CFI 55298 .cfa: $rsp 64 +
STACK CFI INIT 552c0 23 .cfa: $rsp .ra: .cfa 8 - ^
STACK CFI 552c0 .cfa: $rsp 64 +
STACK CFI INIT 552ec 13 .cfa: $rsp .ra: .cfa 8 - ^
STACK CFI 552ec .cfa: $rsp 64 +
STACK CFI INIT 55304 23 .cfa: $rsp .ra: .cfa 8 - ^
STACK CFI 55304 .cfa: $rsp 64 +
STACK CFI INIT 55330 13 .cfa: $rsp .ra: .cfa 8 - ^
STACK CFI 55330 .cfa: $rsp 64 +
STACK CFI INIT 55348 23 .cfa: $rsp .ra: .cfa 8 - ^
STACK CFI 55348 .cfa: $rsp 64 +
STACK CFI INIT 55374 13 .cfa: $rsp .ra: .cfa 8 - ^
STACK CFI 55374 .cfa: $rsp 64 +
STACK CFI INIT 5538c 23 .cfa: $rsp .ra: .cfa 8 - ^
STACK CFI 5538c .cfa: $rsp 64 +
STACK CFI INIT 553b8 13 .cfa: $rsp .ra: .cfa 8 - ^
STACK CFI 553b8 .cfa: $rsp 64 +
STACK CFI INIT 553d0 aa .cfa: $rsp .ra: .cfa 8 - ^
STACK CFI 553d0 .cfa: $rsp 48 +
STACK CFI INIT 554a4 126 .cfa: $rsp .ra: .cfa 8 - ^
STACK CFI 554a4 .cfa: $rsp 80 +
STACK CFI INIT 556b8 e8 .cfa: $rsp .ra: .cfa 8 - ^
STACK CFI 556b8 .cfa: $rsp 24 +
STACK CFI INIT 55860 e8 .cfa: $rsp .ra: .cfa 8 - ^
STACK CFI 55860 .cfa: $rsp 64 +
STACK CFI INIT 55984 31 .cfa: $rsp .ra: .cfa 8 - ^
STACK CFI 55984 .cfa: $rsp 48 +
STACK CFI INIT 559cc 39 .cfa: $rsp .ra: .cfa 8 - ^
STACK CFI 559cc .cfa: $rsp 48 +
STACK CFI INIT 55a14 7a .cfa: $rsp .ra: .cfa 8 - ^
STACK CFI 55a14 .cfa: $rsp 48 +
STACK CFI INIT 55aac 8c .cfa: $rsp .ra: .cfa 8 - ^
STACK CFI 55aac .cfa: $rsp 48 +
STACK CFI INIT 55b5c 26 .cfa: $rsp .ra: .cfa 8 - ^
STACK CFI 55b5c .cfa: $rsp 48 +
STACK CFI INIT 55bac 69 .cfa: $rsp .ra: .cfa 8 - ^
STACK CFI 55bac .cfa: $rsp 48 +
STACK CFI INIT 55c40 91 .cfa: $rsp .ra: .cfa 8 - ^
STACK CFI 55c40 .cfa: $rsp 64 +
STACK CFI INIT 55cf8 6c .cfa: $rsp .ra: .cfa 8 - ^
STACK CFI 55cf8 .cfa: $rsp 64 +
STACK CFI INIT 55d80 215 .cfa: $rsp .ra: .cfa 8 - ^
STACK CFI 55d80 .cfa: $rsp 192 +
STACK CFI INIT 5601c 95 .cfa: $rsp .ra: .cfa 8 - ^
STACK CFI 5601c .cfa: $rsp 48 +
STACK CFI INIT 560d8 8d .cfa: $rsp .ra: .cfa 8 - ^
STACK CFI 560d8 .cfa: $rsp 48 +
STACK CFI INIT 56188 102 .cfa: $rsp .ra: .cfa 8 - ^
STACK CFI 56188 .cfa: $rsp 5232 +
STACK CFI INIT 562cc 119 .cfa: $rsp .ra: .cfa 8 - ^
STACK CFI 562cc .cfa: $rsp 5232 +
STACK CFI INIT 5642c 170 .cfa: $rsp .ra: .cfa 8 - ^
STACK CFI 5642c .cfa: $rsp 5280 +
STACK CFI INIT 565f8 e9 .cfa: $rsp .ra: .cfa 8 - ^
STACK CFI 565f8 .cfa: $rsp 80 +
STACK CFI INIT 5671c 2e0 .cfa: $rsp .ra: .cfa 8 - ^
STACK CFI 5671c .cfa: $rsp 160 +
STACK CFI INIT 56ac4 b1 .cfa: $rsp .ra: .cfa 8 - ^
STACK CFI 56ac4 .cfa: $rsp 64 +
STACK CFI INIT 56bb4 40 .cfa: $rsp .ra: .cfa 8 - ^
STACK CFI 56bb4 .cfa: $rsp 48 +
STACK CFI INIT 56c04 5f .cfa: $rsp .ra: .cfa 8 - ^
STACK CFI 56c04 .cfa: $rsp 48 +
STACK CFI INIT 56c7c 2c .cfa: $rsp .ra: .cfa 8 - ^
STACK CFI 56c7c .cfa: $rsp 48 +
STACK CFI INIT 56cb4 2c .cfa: $rsp .ra: .cfa 8 - ^
STACK CFI 56cb4 .cfa: $rsp 48 +
STACK CFI INIT 56cec 3f .cfa: $rsp .ra: .cfa 8 - ^
STACK CFI 56cec .cfa: $rsp 80 +
STACK CFI INIT 56d7c 2c .cfa: $rsp .ra: .cfa 8 - ^
STACK CFI 56d7c .cfa: $rsp 48 +
STACK CFI INIT 56db4 2c .cfa: $rsp .ra: .cfa 8 - ^
STACK CFI 56db4 .cfa: $rsp 48 +
STACK CFI INIT 56e4c 41 .cfa: $rsp .ra: .cfa 8 - ^
STACK CFI 56e4c .cfa: $rsp 80 +
STACK CFI INIT 56f84 39 .cfa: $rsp .ra: .cfa 8 - ^
STACK CFI 56f84 .cfa: $rsp 64 +
STACK CFI INIT 56fcc 176 .cfa: $rsp .ra: .cfa 8 - ^
STACK CFI 56fcc .cfa: $rsp 80 +
STACK CFI INIT 571a0 251 .cfa: $rsp .ra: .cfa 8 - ^
STACK CFI 571a0 .cfa: $rsp 112 +
STACK CFI INIT 57488 15e .cfa: $rsp .ra: .cfa 8 - ^
STACK CFI 57488 .cfa: $rsp 144 +
STACK CFI INIT 57640 68 .cfa: $rsp .ra: .cfa 8 - ^
STACK CFI 57640 .cfa: $rsp 64 +
STACK CFI INIT 576c4 3e .cfa: $rsp .ra: .cfa 8 - ^
STACK CFI 576c4 .cfa: $rsp 64 +
STACK CFI INIT 57714 60 .cfa: $rsp .ra: .cfa 8 - ^
STACK CFI 57714 .cfa: $rsp 64 +
STACK CFI INIT 57794 d4 .cfa: $rsp .ra: .cfa 8 - ^
STACK CFI 57794 .cfa: $rsp 48 +
STACK CFI INIT 578a0 e2 .cfa: $rsp .ra: .cfa 8 - ^
STACK CFI 578a0 .cfa: $rsp 48 +
STACK CFI INIT 579bc 1120 .cfa: $rsp .ra: .cfa 8 - ^
STACK CFI 579bc .cfa: $rsp 2048 +
STACK CFI INIT 58f30 2f .cfa: $rsp .ra: .cfa 8 - ^
STACK CFI 58f30 .cfa: $rsp 48 +
STACK CFI INIT 58f7c 3b .cfa: $rsp .ra: .cfa 8 - ^
STACK CFI 58f7c .cfa: $rsp 48 +
STACK CFI INIT 58fc8 14 .cfa: $rsp .ra: .cfa 8 - ^
STACK CFI 58fc8 .cfa: $rsp 48 +
STACK CFI INIT 58ff0 2f .cfa: $rsp .ra: .cfa 8 - ^
STACK CFI 58ff0 .cfa: $rsp 48 +
STACK CFI INIT 59160 2a .cfa: $rsp .ra: .cfa 8 - ^
STACK CFI 59160 .cfa: $rsp 608 +
STACK CFI INIT 5918a 23 .cfa: $rsp .ra: .cfa 8 - ^
STACK CFI 5918a .cfa: $rsp 608 +
STACK CFI INIT 591ad 188 .cfa: $rsp .ra: .cfa 8 - ^
STACK CFI 591ad .cfa: $rsp 608 +
STACK CFI INIT 59335 286 .cfa: $rsp .ra: .cfa 8 - ^
STACK CFI 59335 .cfa: $rsp 608 +
STACK CFI INIT 595bb 33 .cfa: $rsp .ra: .cfa 8 - ^
STACK CFI 595bb .cfa: $rsp 608 +
STACK CFI INIT 59750 67 .cfa: $rsp .ra: .cfa 8 - ^
STACK CFI 59750 .cfa: $rsp 48 +
STACK CFI INIT 597d0 f7 .cfa: $rsp .ra: .cfa 8 - ^
STACK CFI 597d0 .cfa: $rsp 1056 +
STACK CFI INIT 598c7 f4 .cfa: $rsp .ra: .cfa 8 - ^
STACK CFI 598c7 .cfa: $rsp 1056 +
STACK CFI INIT 599bb 184 .cfa: $rsp .ra: .cfa 8 - ^
STACK CFI 599bb .cfa: $rsp 1056 +
STACK CFI INIT 59b3f 10 .cfa: $rsp .ra: .cfa 8 - ^
STACK CFI 59b3f .cfa: $rsp 1056 +
STACK CFI INIT 59b4f 1b .cfa: $rsp .ra: .cfa 8 - ^
STACK CFI 59b4f .cfa: $rsp 1056 +
STACK CFI INIT 59b6a 21 .cfa: $rsp .ra: .cfa 8 - ^
STACK CFI 59b6a .cfa: $rsp 1056 +
STACK CFI INIT 59c80 3e .cfa: $rsp .ra: .cfa 8 - ^
STACK CFI 59c80 .cfa: $rsp 512 +
STACK CFI INIT 59cbe 20 .cfa: $rsp .ra: .cfa 8 - ^
STACK CFI 59cbe .cfa: $rsp 512 +
STACK CFI INIT 59cde 54 .cfa: $rsp .ra: .cfa 8 - ^
STACK CFI 59cde .cfa: $rsp 512 +
STACK CFI INIT 59d32 2a .cfa: $rsp .ra: .cfa 8 - ^
STACK CFI 59d32 .cfa: $rsp 512 +
STACK CFI INIT 59d5c 21 .cfa: $rsp .ra: .cfa 8 - ^
STACK CFI 59d5c .cfa: $rsp 512 +
STACK CFI INIT 59dd0 59a .cfa: $rsp .ra: .cfa 8 - ^
STACK CFI 59dd0 .cfa: $rsp 1536 +
STACK CFI INIT 5a4d0 49 .cfa: $rsp .ra: .cfa 8 - ^
STACK CFI 5a4d0 .cfa: $rsp 8 +
STACK CFI INIT 5a530 74 .cfa: $rsp .ra: .cfa 8 - ^
STACK CFI 5a530 .cfa: $rsp 544 +
STACK CFI INIT 5a5a4 a1 .cfa: $rsp .ra: .cfa 8 - ^
STACK CFI 5a5a4 .cfa: $rsp 544 +
STACK CFI INIT 5a645 38 .cfa: $rsp .ra: .cfa 8 - ^
STACK CFI 5a645 .cfa: $rsp 544 +
STACK CFI INIT 5a6d0 12d7 .cfa: $rsp .ra: .cfa 8 - ^
STACK CFI 5a6d0 .cfa: $rsp 2080 +
STACK CFI INIT 5be5c 87 .cfa: $rsp .ra: .cfa 8 - ^
STACK CFI 5be5c .cfa: $rsp 48 +
STACK CFI INIT 5bf04 e6 .cfa: $rsp .ra: .cfa 8 - ^
STACK CFI 5bf04 .cfa: $rsp 48 +
STACK CFI INIT 5c024 e7 .cfa: $rsp .ra: .cfa 8 - ^
STACK CFI 5c024 .cfa: $rsp 48 +
STACK CFI INIT 5c144 e0 .cfa: $rsp .ra: .cfa 8 - ^
STACK CFI 5c144 .cfa: $rsp 48 +
STACK CFI INIT 5c25c e4 .cfa: $rsp .ra: .cfa 8 - ^
STACK CFI 5c25c .cfa: $rsp 48 +
STACK CFI INIT 5c38c e8 .cfa: $rsp .ra: .cfa 8 - ^
STACK CFI 5c38c .cfa: $rsp 48 +
STACK CFI INIT 5c4b0 e9 .cfa: $rsp .ra: .cfa 8 - ^
STACK CFI 5c4b0 .cfa: $rsp 48 +
STACK CFI INIT 5c5dc 367 .cfa: $rsp .ra: .cfa 8 - ^
STACK CFI 5c5dc .cfa: $rsp 208 +
STACK CFI INIT 5ca68 ec .cfa: $rsp .ra: .cfa 8 - ^
STACK CFI 5ca68 .cfa: $rsp 48 +
STACK CFI INIT 5cb9c 1e .cfa: $rsp .ra: .cfa 8 - ^
STACK CFI 5cb9c .cfa: $rsp 64 +
STACK CFI INIT 5cbe0 bd .cfa: $rsp .ra: .cfa 8 - ^
STACK CFI 5cbe0 .cfa: $rsp 96 +
STACK CFI INIT 5cccc 5c .cfa: $rsp .ra: .cfa 8 - ^
STACK CFI 5cccc .cfa: $rsp 8 +
STACK CFI INIT 5cd40 4f .cfa: $rsp .ra: .cfa 8 - ^
STACK CFI 5cd40 .cfa: $rsp 48 +
STACK CFI INIT 5cda4 da .cfa: $rsp .ra: .cfa 8 - ^
STACK CFI 5cda4 .cfa: $rsp 80 +
STACK CFI INIT 5ceb4 34c .cfa: $rsp .ra: .cfa 8 - ^
STACK CFI 5ceb4 .cfa: $rsp 208 +
STACK CFI INIT 5d2d4 89 .cfa: $rsp .ra: .cfa 8 - ^
STACK CFI 5d2d4 .cfa: $rsp 112 +
STACK CFI INIT 5d380 87 .cfa: $rsp .ra: .cfa 8 - ^
STACK CFI 5d380 .cfa: $rsp 96 +
STACK CFI INIT 5d428 e9 .cfa: $rsp .ra: .cfa 8 - ^
STACK CFI 5d428 .cfa: $rsp 80 +
STACK CFI INIT 5d54c ed .cfa: $rsp .ra: .cfa 8 - ^
STACK CFI 5d54c .cfa: $rsp 80 +
STACK CFI INIT 5d674 f3 .cfa: $rsp .ra: .cfa 8 - ^
STACK CFI 5d674 .cfa: $rsp 64 +
STACK CFI INIT 5d7a4 99 .cfa: $rsp .ra: .cfa 8 - ^
STACK CFI 5d7a4 .cfa: $rsp 48 +
STACK CFI INIT 5d864 9e .cfa: $rsp .ra: .cfa 8 - ^
STACK CFI 5d864 .cfa: $rsp 64 +
STACK CFI INIT 5d92c 33 .cfa: $rsp .ra: .cfa 8 - ^
STACK CFI 5d92c .cfa: $rsp 48 +
STACK CFI INIT 5d98c 40 .cfa: $rsp .ra: .cfa 8 - ^
STACK CFI 5d98c .cfa: $rsp 48 +
STACK CFI INIT 5d9dc 26 .cfa: $rsp .ra: .cfa 8 - ^
STACK CFI 5d9dc .cfa: $rsp 48 +
STACK CFI INIT 5da4c 3b .cfa: $rsp .ra: .cfa 8 - ^
STACK CFI 5da4c .cfa: $rsp 64 +
STACK CFI INIT 5da98 3b .cfa: $rsp .ra: .cfa 8 - ^
STACK CFI 5da98 .cfa: $rsp 48 +
STACK CFI INIT 5dae4 83 .cfa: $rsp .ra: .cfa 8 - ^
STACK CFI 5dae4 .cfa: $rsp 48 +
STACK CFI INIT 5db88 62 .cfa: $rsp .ra: .cfa 8 - ^
STACK CFI 5db88 .cfa: $rsp 48 +
STACK CFI INIT 5dc04 1db .cfa: $rsp .ra: .cfa 8 - ^
STACK CFI 5dc04 .cfa: $rsp 112 +
STACK CFI INIT 5de64 1d .cfa: $rsp .ra: .cfa 8 - ^
STACK CFI 5de64 .cfa: $rsp 48 +
STACK CFI INIT 5de90 20 .cfa: $rsp .ra: .cfa 8 - ^
STACK CFI 5de90 .cfa: $rsp 48 +
STACK CFI INIT 5deb8 4d .cfa: $rsp .ra: .cfa 8 - ^
STACK CFI 5deb8 .cfa: $rsp 48 +
STACK CFI INIT 5df18 50 .cfa: $rsp .ra: .cfa 8 - ^
STACK CFI 5df18 .cfa: $rsp 48 +
STACK CFI INIT 5e070 5ab .cfa: $rsp .ra: .cfa 8 - ^
STACK CFI 5e070 .cfa: $rsp 96 +
STACK CFI INIT 5e788 66 .cfa: $rsp .ra: .cfa 8 - ^
STACK CFI 5e788 .cfa: $rsp 48 +
STACK CFI INIT 5e808 11b .cfa: $rsp .ra: .cfa 8 - ^
STACK CFI 5e808 .cfa: $rsp 128 +
STACK CFI INIT 5e96c f6 .cfa: $rsp .ra: .cfa 8 - ^
STACK CFI 5e96c .cfa: $rsp 128 +
STACK CFI INIT 5eaa0 1dc .cfa: $rsp .ra: .cfa 8 - ^
STACK CFI 5eaa0 .cfa: $rsp 192 +
STACK CFI INIT 5ecf4 87 .cfa: $rsp .ra: .cfa 8 - ^
STACK CFI 5ecf4 .cfa: $rsp 48 +
STACK CFI INIT 5ed9c 3a .cfa: $rsp .ra: .cfa 8 - ^
STACK CFI 5ed9c .cfa: $rsp 64 +
STACK CFI INIT 5ede4 8b .cfa: $rsp .ra: .cfa 8 - ^
STACK CFI 5ede4 .cfa: $rsp 96 +
STACK CFI INIT 5ee9c c3 .cfa: $rsp .ra: .cfa 8 - ^
STACK CFI 5ee9c .cfa: $rsp 48 +
STACK CFI INIT 5ef90 70 .cfa: $rsp .ra: .cfa 8 - ^
STACK CFI 5ef90 .cfa: $rsp 96 +
STACK CFI INIT 5f01c aa .cfa: $rsp .ra: .cfa 8 - ^
STACK CFI 5f01c .cfa: $rsp 80 +
STACK CFI INIT 5f10c 27 .cfa: $rsp .ra: .cfa 8 - ^
STACK CFI 5f10c .cfa: $rsp 64 +
STACK CFI INIT 5f13c 3b .cfa: $rsp .ra: .cfa 8 - ^
STACK CFI 5f13c .cfa: $rsp 80 +
STACK CFI INIT 5f188 52 .cfa: $rsp .ra: .cfa 8 - ^
STACK CFI 5f188 .cfa: $rsp 80 +
STACK CFI INIT 5f1f0 1c .cfa: $rsp .ra: .cfa 8 - ^
STACK CFI 5f1f0 .cfa: $rsp 48 +
STACK CFI INIT 5f214 be .cfa: $rsp .ra: .cfa 8 - ^
STACK CFI 5f214 .cfa: $rsp 80 +
STACK CFI INIT 5f304 71 .cfa: $rsp .ra: .cfa 8 - ^
STACK CFI 5f304 .cfa: $rsp 48 +
STACK CFI INIT 5f394 26 .cfa: $rsp .ra: .cfa 8 - ^
STACK CFI 5f394 .cfa: $rsp 48 +
STACK CFI INIT 5f3e4 49 .cfa: $rsp .ra: .cfa 8 - ^
STACK CFI 5f3e4 .cfa: $rsp 48 +
STACK CFI INIT 5f450 7b .cfa: $rsp .ra: .cfa 8 - ^
STACK CFI 5f450 .cfa: $rsp 48 +
STACK CFI INIT 5f4ec a1 .cfa: $rsp .ra: .cfa 8 - ^
STACK CFI 5f4ec .cfa: $rsp 64 +
STACK CFI INIT 5f5b8 ba .cfa: $rsp .ra: .cfa 8 - ^
STACK CFI 5f5b8 .cfa: $rsp 48 +
STACK CFI INIT 5f6c0 1b .cfa: $rsp .ra: .cfa 8 - ^
STACK CFI 5f6c0 .cfa: $rsp 48 +
STACK CFI INIT 5f6e4 56 .cfa: $rsp .ra: .cfa 8 - ^
STACK CFI 5f6e4 .cfa: $rsp 48 +
STACK CFI INIT 5f78c ea .cfa: $rsp .ra: .cfa 8 - ^
STACK CFI 5f78c .cfa: $rsp 48 +
STACK CFI INIT 5f8bc 1b .cfa: $rsp .ra: .cfa 8 - ^
STACK CFI 5f8bc .cfa: $rsp 48 +
STACK CFI INIT 5feb4 138 .cfa: $rsp .ra: .cfa 8 - ^
STACK CFI 5feb4 .cfa: $rsp 8 +
STACK CFI INIT 60314 147 .cfa: $rsp .ra: .cfa 8 - ^
STACK CFI 60314 .cfa: $rsp 8 +
STACK CFI INIT 606bc 6e .cfa: $rsp .ra: .cfa 8 - ^
STACK CFI 606bc .cfa: $rsp 48 +
STACK CFI INIT 60858 34 .cfa: $rsp .ra: .cfa 8 - ^
STACK CFI 60858 .cfa: $rsp 48 +
STACK CFI INIT 60918 2be .cfa: $rsp .ra: .cfa 8 - ^
STACK CFI 60918 .cfa: $rsp 64 +
STACK CFI INIT 60c88 65 .cfa: $rsp .ra: .cfa 8 - ^
STACK CFI 60c88 .cfa: $rsp 96 +
STACK CFI INIT 60d08 ba .cfa: $rsp .ra: .cfa 8 - ^
STACK CFI 60d08 .cfa: $rsp 48 +
STACK CFI INIT 60df0 127 .cfa: $rsp .ra: .cfa 8 - ^
STACK CFI 60df0 .cfa: $rsp 288 +
STACK CFI INIT 60f60 133 .cfa: $rsp .ra: .cfa 8 - ^
STACK CFI 60f60 .cfa: $rsp 288 +
STACK CFI INIT 61120 70 .cfa: $rsp .ra: .cfa 8 - ^
STACK CFI 61120 .cfa: $rsp 32 +
STACK CFI INIT 611d0 20 .cfa: $rsp .ra: .cfa 8 - ^
STACK CFI 611d0 .cfa: $rsp 64 +
STACK CFI INIT 611f8 20 .cfa: $rsp .ra: .cfa 8 - ^
STACK CFI 611f8 .cfa: $rsp 64 +
STACK CFI INIT 61220 20 .cfa: $rsp .ra: .cfa 8 - ^
STACK CFI 61220 .cfa: $rsp 64 +
STACK CFI INIT 61248 96 .cfa: $rsp .ra: .cfa 8 - ^
STACK CFI 61248 .cfa: $rsp 112 +
STACK CFI INIT 61304 20 .cfa: $rsp .ra: .cfa 8 - ^
STACK CFI 61304 .cfa: $rsp 64 +
STACK CFI INIT 6132c 9c .cfa: $rsp .ra: .cfa 8 - ^
STACK CFI 6132c .cfa: $rsp 128 +
STACK CFI INIT 613f0 a7 .cfa: $rsp .ra: .cfa 8 - ^
STACK CFI 613f0 .cfa: $rsp 48 +
STACK CFI INIT 61540 10 .cfa: $rsp .ra: .cfa 8 - ^
STACK CFI 61540 .cfa: $rsp 16 +
STACK CFI INIT 615f8 f1 .cfa: $rsp .ra: .cfa 8 - ^
STACK CFI 615f8 .cfa: $rsp 256 +
STACK CFI INIT 61728 106 .cfa: $rsp .ra: .cfa 8 - ^
STACK CFI 61728 .cfa: $rsp 272 +
STACK CFI INIT 618b0 267 .cfa: $rsp .ra: .cfa 8 - ^
STACK CFI 618b0 .cfa: $rsp 112 +
STACK CFI INIT 61bb8 27 .cfa: $rsp .ra: .cfa 8 - ^
STACK CFI 61bb8 .cfa: $rsp 80 +
STACK CFI INIT 61be8 30d .cfa: $rsp .ra: .cfa 8 - ^
STACK CFI 61be8 .cfa: $rsp 48 +
STACK CFI INIT 61fb8 2a .cfa: $rsp .ra: .cfa 8 - ^
STACK CFI 61fb8 .cfa: $rsp 80 +
STACK CFI INIT 61fec 2e .cfa: $rsp .ra: .cfa 8 - ^
STACK CFI 61fec .cfa: $rsp 48 +
STACK CFI INIT 62028 d4 .cfa: $rsp .ra: .cfa 8 - ^
STACK CFI 62028 .cfa: $rsp 96 +
STACK CFI INIT 62134 1d .cfa: $rsp .ra: .cfa 8 - ^
STACK CFI 62134 .cfa: $rsp 48 +
STACK CFI INIT 62158 7c .cfa: $rsp .ra: .cfa 8 - ^
STACK CFI 62158 .cfa: $rsp 48 +
STACK CFI INIT 621f4 1f .cfa: $rsp .ra: .cfa 8 - ^
STACK CFI 621f4 .cfa: $rsp 48 +
STACK CFI INIT 6221c 11 .cfa: $rsp .ra: .cfa 8 - ^
STACK CFI 6221c .cfa: $rsp 48 +
STACK CFI INIT 62234 b7 .cfa: $rsp .ra: .cfa 8 - ^
STACK CFI 62234 .cfa: $rsp 48 +
STACK CFI INIT 626b0 4d .cfa: $rsp .ra: .cfa 8 - ^
STACK CFI 626b0 .cfa: $rsp 48 +
STACK CFI INIT 62758 2b .cfa: $rsp .ra: .cfa 8 - ^
STACK CFI 62758 .cfa: $rsp 48 +
STACK CFI INIT 62790 1d .cfa: $rsp .ra: .cfa 8 - ^
STACK CFI 62790 .cfa: $rsp 48 +
STACK CFI INIT 627b4 5b .cfa: $rsp .ra: .cfa 8 - ^
STACK CFI 627b4 .cfa: $rsp 16 +
STACK CFI INIT 62840 21 .cfa: $rsp .ra: .cfa 8 - ^
STACK CFI 62840 .cfa: $rsp 8 +
STACK CFI INIT 62878 85 .cfa: $rsp .ra: .cfa 8 - ^
STACK CFI 62878 .cfa: $rsp 48 +
STACK CFI INIT 62920 34 .cfa: $rsp .ra: .cfa 8 - ^
STACK CFI 62920 .cfa: $rsp 48 +
STACK CFI INIT 62964 d1 .cfa: $rsp .ra: .cfa 8 - ^
STACK CFI 62964 .cfa: $rsp 64 +
STACK CFI INIT 62a6c 13 .cfa: $rsp .ra: .cfa 8 - ^
STACK CFI 62a6c .cfa: $rsp 48 +
STACK CFI INIT 62a84 9b .cfa: $rsp .ra: .cfa 8 - ^
STACK CFI 62a84 .cfa: $rsp 48 +
STACK CFI INIT 62b48 10e .cfa: $rsp .ra: .cfa 8 - ^
STACK CFI 62b48 .cfa: $rsp 64 +
STACK CFI INIT 62c9c 6d .cfa: $rsp .ra: .cfa 8 - ^
STACK CFI 62c9c .cfa: $rsp 80 +
STACK CFI INIT 62d24 71 .cfa: $rsp .ra: .cfa 8 - ^
STACK CFI 62d24 .cfa: $rsp 96 +
STACK CFI INIT 62dd0 51 .cfa: $rsp .ra: .cfa 8 - ^
STACK CFI 62dd0 .cfa: $rsp 24 +
STACK CFI INIT 62e3c 7f .cfa: $rsp .ra: .cfa 8 - ^
STACK CFI 62e3c .cfa: $rsp 48 +
STACK CFI INIT 63080 c7 .cfa: $rsp .ra: .cfa 8 - ^
STACK CFI 63080 .cfa: $rsp 8 +
STACK CFI INIT 6317c 89 .cfa: $rsp .ra: .cfa 8 - ^
STACK CFI 6317c .cfa: $rsp 32 +
STACK CFI INIT 63228 91 .cfa: $rsp .ra: .cfa 8 - ^
STACK CFI 63228 .cfa: $rsp 32 +
STACK CFI INIT 632e0 149 .cfa: $rsp .ra: .cfa 8 - ^
STACK CFI 632e0 .cfa: $rsp 32 +
STACK CFI INIT 6347c 29 .cfa: $rsp .ra: .cfa 8 - ^
STACK CFI 6347c .cfa: $rsp 48 +
STACK CFI INIT 66710 2 .cfa: $rsp .ra: .cfa 8 - ^
STACK CFI 66710 .cfa: $rsp 8 +
STACK CFI INIT 67720 1e .cfa: $rsp .ra: .cfa 8 - ^
STACK CFI 67720 .cfa: $rsp 48 +
STACK CFI INIT 67745 18 .cfa: $rsp .ra: .cfa 8 - ^
STACK CFI 67745 .cfa: $rsp 16 +
STACK CFI INIT 67763 18 .cfa: $rsp .ra: .cfa 8 - ^
STACK CFI 67763 .cfa: $rsp 48 +
STACK CFI INIT 67790 16 .cfa: $rsp .ra: .cfa 8 - ^
STACK CFI 67790 .cfa: $rsp 48 +
STACK CFI INIT 677ab 91 .cfa: $rsp .ra: .cfa 8 - ^
STACK CFI 677ab .cfa: $rsp 96 +
STACK CFI INIT 67860 91 .cfa: $rsp .ra: .cfa 8 - ^
STACK CFI 67860 .cfa: $rsp 96 +
STACK CFI INIT 67915 25 .cfa: $rsp .ra: .cfa 8 - ^
STACK CFI 67915 .cfa: $rsp 48 +
STACK CFI INIT 6793a 78 .cfa: $rsp .ra: .cfa 8 - ^
STACK CFI 6793a .cfa: $rsp 64 +
STACK CFI INIT 679d9 3e .cfa: $rsp .ra: .cfa 8 - ^
STACK CFI 679d9 .cfa: $rsp 64 +
STACK CFI INIT 67a17 94 .cfa: $rsp .ra: .cfa 8 - ^
STACK CFI 67a17 .cfa: $rsp 64 +
STACK CFI INIT 67adf 16 .cfa: $rsp .ra: .cfa 8 - ^
STACK CFI 67adf .cfa: $rsp 48 +
STACK CFI INIT 67af5 23 .cfa: $rsp .ra: .cfa 8 - ^
STACK CFI 67af5 .cfa: $rsp 48 +
STACK CFI INIT 67b26 16 .cfa: $rsp .ra: .cfa 8 - ^
STACK CFI 67b26 .cfa: $rsp 64 +
STACK CFI INIT 67b3c 23 .cfa: $rsp .ra: .cfa 8 - ^
STACK CFI 67b3c .cfa: $rsp 64 +
STACK CFI INIT 67b6d 1a .cfa: $rsp .ra: .cfa 8 - ^
STACK CFI 67b6d .cfa: $rsp 48 +
STACK CFI INIT 67b8d 1b .cfa: $rsp .ra: .cfa 8 - ^
STACK CFI 67b8d .cfa: $rsp 48 +
STACK CFI INIT 67bae 17 .cfa: $rsp .ra: .cfa 8 - ^
STACK CFI 67bae .cfa: $rsp 48 +
STACK CFI INIT 67bca 1a .cfa: $rsp .ra: .cfa 8 - ^
STACK CFI 67bca .cfa: $rsp 48 +
STACK CFI INIT 67bea 1a .cfa: $rsp .ra: .cfa 8 - ^
STACK CFI 67bea .cfa: $rsp 48 +
STACK CFI INIT 67c0a 1a .cfa: $rsp .ra: .cfa 8 - ^
STACK CFI 67c0a .cfa: $rsp 48 +
STACK CFI INIT 67c2a 21 .cfa: $rsp .ra: .cfa 8 - ^
STACK CFI 67c2a .cfa: $rsp 48 +
STACK CFI INIT 67c53 1a .cfa: $rsp .ra: .cfa 8 - ^
STACK CFI 67c53 .cfa: $rsp 48 +
STACK CFI INIT 67c73 19 .cfa: $rsp .ra: .cfa 8 - ^
STACK CFI 67c73 .cfa: $rsp 48 +
STACK CFI INIT 67c8c 19 .cfa: $rsp .ra: .cfa 8 - ^
STACK CFI 67c8c .cfa: $rsp 48 +
STACK CFI INIT 67cb1 1a .cfa: $rsp .ra: .cfa 8 - ^
STACK CFI 67cb1 .cfa: $rsp 48 +
STACK CFI INIT 67cd1 1a .cfa: $rsp .ra: .cfa 8 - ^
STACK CFI 67cd1 .cfa: $rsp 48 +
STACK CFI INIT 67cf1 1b .cfa: $rsp .ra: .cfa 8 - ^
STACK CFI 67cf1 .cfa: $rsp 48 +
STACK CFI INIT 67d12 1b .cfa: $rsp .ra: .cfa 8 - ^
STACK CFI 67d12 .cfa: $rsp 48 +
STACK CFI INIT 67d33 1b .cfa: $rsp .ra: .cfa 8 - ^
STACK CFI 67d33 .cfa: $rsp 48 +
STACK CFI INIT 67d54 1b .cfa: $rsp .ra: .cfa 8 - ^
STACK CFI 67d54 .cfa: $rsp 48 +
STACK CFI INIT 67d75 1b .cfa: $rsp .ra: .cfa 8 - ^
STACK CFI 67d75 .cfa: $rsp 48 +
STACK CFI INIT 67d96 1b .cfa: $rsp .ra: .cfa 8 - ^
STACK CFI 67d96 .cfa: $rsp 48 +
STACK CFI INIT 67db7 1a .cfa: $rsp .ra: .cfa 8 - ^
STACK CFI 67db7 .cfa: $rsp 48 +
STACK CFI INIT 67dd7 1a .cfa: $rsp .ra: .cfa 8 - ^
STACK CFI 67dd7 .cfa: $rsp 48 +
STACK CFI INIT 67df7 1a .cfa: $rsp .ra: .cfa 8 - ^
STACK CFI 67df7 .cfa: $rsp 48 +
STACK CFI INIT 67e17 1a .cfa: $rsp .ra: .cfa 8 - ^
STACK CFI 67e17 .cfa: $rsp 48 +
STACK CFI INIT 67e37 1a .cfa: $rsp .ra: .cfa 8 - ^
STACK CFI 67e37 .cfa: $rsp 48 +
STACK CFI INIT 67e57 19 .cfa: $rsp .ra: .cfa 8 - ^
STACK CFI 67e57 .cfa: $rsp 48 +
STACK CFI INIT 67e76 19 .cfa: $rsp .ra: .cfa 8 - ^
STACK CFI 67e76 .cfa: $rsp 48 +
STACK CFI INIT 67e95 19 .cfa: $rsp .ra: .cfa 8 - ^
STACK CFI 67e95 .cfa: $rsp 48 +
STACK CFI INIT 67eb4 41 .cfa: $rsp .ra: .cfa 8 - ^
STACK CFI 67eb4 .cfa: $rsp 48 +
STACK CFI INIT 67f05 19 .cfa: $rsp .ra: .cfa 8 - ^
STACK CFI 67f05 .cfa: $rsp 48 +
STACK CFI INIT 67f24 19 .cfa: $rsp .ra: .cfa 8 - ^
STACK CFI 67f24 .cfa: $rsp 48 +
STACK CFI INIT 67f43 1a .cfa: $rsp .ra: .cfa 8 - ^
STACK CFI 67f43 .cfa: $rsp 48 +
STACK CFI INIT 67f63 16 .cfa: $rsp .ra: .cfa 8 - ^
STACK CFI 67f63 .cfa: $rsp 48 +
STACK CFI INIT 67f7e 16 .cfa: $rsp .ra: .cfa 8 - ^
STACK CFI 67f7e .cfa: $rsp 48 +
STACK CFI INIT 67f99 1a .cfa: $rsp .ra: .cfa 8 - ^
STACK CFI 67f99 .cfa: $rsp 48 +
STACK CFI INIT 67fb9 19 .cfa: $rsp .ra: .cfa 8 - ^
STACK CFI 67fb9 .cfa: $rsp 48 +
STACK CFI INIT 67fd8 21 .cfa: $rsp .ra: .cfa 8 - ^
STACK CFI 67fd8 .cfa: $rsp 48 +
STACK CFI INIT 68001 19 .cfa: $rsp .ra: .cfa 8 - ^
STACK CFI 68001 .cfa: $rsp 48 +
STACK CFI INIT 68020 1b .cfa: $rsp .ra: .cfa 8 - ^
STACK CFI 68020 .cfa: $rsp 48 +
STACK CFI INIT 68041 1d .cfa: $rsp .ra: .cfa 8 - ^
STACK CFI 68041 .cfa: $rsp 48 +
STACK CFI INIT 68065 1b .cfa: $rsp .ra: .cfa 8 - ^
STACK CFI 68065 .cfa: $rsp 48 +
STACK CFI INIT 68086 18 .cfa: $rsp .ra: .cfa 8 - ^
STACK CFI 68086 .cfa: $rsp 48 +
STACK CFI INIT 680a4 1a .cfa: $rsp .ra: .cfa 8 - ^
STACK CFI 680a4 .cfa: $rsp 48 +
STACK CFI INIT 680c4 1a .cfa: $rsp .ra: .cfa 8 - ^
STACK CFI 680c4 .cfa: $rsp 48 +
STACK CFI INIT 680e4 17 .cfa: $rsp .ra: .cfa 8 - ^
STACK CFI 680e4 .cfa: $rsp 48 +
STACK CFI INIT 68100 19 .cfa: $rsp .ra: .cfa 8 - ^
STACK CFI 68100 .cfa: $rsp 48 +
STACK CFI INIT 6812e 17 .cfa: $rsp .ra: .cfa 8 - ^
STACK CFI 6812e .cfa: $rsp 48 +
STACK CFI INIT 6814a 17 .cfa: $rsp .ra: .cfa 8 - ^
STACK CFI 6814a .cfa: $rsp 48 +
STACK CFI INIT 68166 1a .cfa: $rsp .ra: .cfa 8 - ^
STACK CFI 68166 .cfa: $rsp 48 +
STACK CFI INIT 68186 18 .cfa: $rsp .ra: .cfa 8 - ^
STACK CFI 68186 .cfa: $rsp 48 +
STACK CFI INIT 681a4 1a .cfa: $rsp .ra: .cfa 8 - ^
STACK CFI 681a4 .cfa: $rsp 48 +
STACK CFI INIT 681c4 19 .cfa: $rsp .ra: .cfa 8 - ^
STACK CFI 681c4 .cfa: $rsp 48 +
STACK CFI INIT 681e3 2c .cfa: $rsp .ra: .cfa 8 - ^
STACK CFI 681e3 .cfa: $rsp 48 +
STACK CFI INIT 6821a 2c .cfa: $rsp .ra: .cfa 8 - ^
STACK CFI 6821a .cfa: $rsp 48 +
STACK CFI INIT 68260 20 .cfa: $rsp .ra: .cfa 8 - ^
STACK CFI 68260 .cfa: $rsp 48 +
