MODULE windows x86 3003763BAFCB4A97AAE328DE8F188D7C1 crash.pdb
INFO CODE_ID 5C0680C99000 crash.exe
FUNC 1000 114 0 google_breakpad::CrashGenerationClient::RequestDump(_EXCEPTION_POINTERS *,MDRawAssertionInfo *)
FUNC 1120 54 0 std::basic_string<wchar_t,std::char_traits<wchar_t>,std::allocator<wchar_t> >::~basic_string<wchar_t,std::char_traits<wchar_t>,std::allocator<wchar_t> >()
FUNC 1180 153 0 std::basic_string<wchar_t,std::char_traits<wchar_t>,std::allocator<wchar_t> >::assign(wchar_t const * const,unsigned int)
FUNC 12e0 c 0 std::basic_string<wchar_t,std::char_traits<wchar_t>,std::allocator<wchar_t> >::_Xlen()
FUNC 12f0 7f 0 std::basic_string<wchar_t,std::char_traits<wchar_t>,std::allocator<wchar_t> >::operator=(std::basic_string<wchar_t,std::char_traits<wchar_t>,std::allocator<wchar_t> > &&)
FUNC 1370 6 0 __local_stdio_printf_options
FUNC 1380 35 c swprintf_s
FUNC 13c0 34 0 _snwprintf_s
FUNC 1400 24 0 fprintf
FUNC 1430 34d 0 google_breakpad::ExceptionHandler::Initialize(std::basic_string<wchar_t,std::char_traits<wchar_t>,std::allocator<wchar_t> > const &,bool (*)(void *,_EXCEPTION_POINTERS *,MDRawAssertionInfo *),bool (*)(wchar_t const *,wchar_t const *,void *,_EXCEPTION_POINTERS *,MDRawAssertionInfo *,bool),void *,int,_MINIDUMP_TYPE,wchar_t const *,void *,google_breakpad::CrashGenerationClient *,google_breakpad::CustomClientInfo const *)
FUNC 1780 30e 0 google_breakpad::ExceptionHandler::~ExceptionHandler()
FUNC 1a90 109 0 google_breakpad::ExceptionHandler::ExceptionHandlerThreadMain(void *)
FUNC 1ba0 70 0 google_breakpad::AutoExceptionHandler::AutoExceptionHandler()
FUNC 1c10 36 0 google_breakpad::AutoExceptionHandler::~AutoExceptionHandler()
FUNC 1c50 11d 0 google_breakpad::ExceptionHandler::HandleException(_EXCEPTION_POINTERS *)
FUNC 1d70 18b 0 google_breakpad::ExceptionHandler::HandleInvalidParameter(wchar_t const *,wchar_t const *,wchar_t const *,unsigned int,unsigned int)
FUNC 1f00 129 0 google_breakpad::ExceptionHandler::HandlePureVirtualCall()
FUNC 2030 da 0 google_breakpad::ExceptionHandler::WriteMinidumpOnHandlerThread(_EXCEPTION_POINTERS *,MDRawAssertionInfo *)
FUNC 2110 71 0 google_breakpad::ExceptionHandler::WriteMinidumpWithException(unsigned long,_EXCEPTION_POINTERS *,MDRawAssertionInfo *)
FUNC 2190 80 0 google_breakpad::ExceptionHandler::MinidumpWriteDumpCallback(void *,_MINIDUMP_CALLBACK_INPUT * const,_MINIDUMP_CALLBACK_OUTPUT *)
FUNC 2210 21c 14 google_breakpad::ExceptionHandler::WriteMinidumpWithExceptionForProcess(unsigned long,_EXCEPTION_POINTERS *,MDRawAssertionInfo *,void *,bool)
FUNC 2430 11e 0 google_breakpad::ExceptionHandler::UpdateNextID()
FUNC 2550 d 0 google_breakpad::scoped_ptr<google_breakpad::CrashGenerationClient>::~scoped_ptr<google_breakpad::CrashGenerationClient>()
FUNC 2560 43 0 std::list<google_breakpad::AppMemory,std::allocator<google_breakpad::AppMemory> >::~list<google_breakpad::AppMemory,std::allocator<google_breakpad::AppMemory> >()
FUNC 25b0 8c 0 google_breakpad::CrashGenerationClient::`scalar deleting destructor'(unsigned int)
FUNC 2640 c 0 std::vector<google_breakpad::ExceptionHandler *,std::allocator<google_breakpad::ExceptionHandler *> >::_Xrange()
FUNC 2650 2a 0 std::_List_alloc<std::_List_base_types<google_breakpad::AppMemory,std::allocator<google_breakpad::AppMemory> > >::_Buynode0(std::_List_node<google_breakpad::AppMemory,void *> *,std::_List_node<google_breakpad::AppMemory,void *> *)
FUNC 2680 14f 0 std::vector<google_breakpad::ExceptionHandler *,std::allocator<google_breakpad::ExceptionHandler *> >::_Emplace_reallocate<google_breakpad::ExceptionHandler *>(google_breakpad::ExceptionHandler * * const,google_breakpad::ExceptionHandler * &&)
FUNC 27d0 c 0 std::vector<google_breakpad::ExceptionHandler *,std::allocator<google_breakpad::ExceptionHandler *> >::_Xlength()
FUNC 27e0 1b 0 std::_List_buy<google_breakpad::AppMemory,std::allocator<google_breakpad::AppMemory> >::_Buynode<google_breakpad::AppMemory const &>(std::_List_node<google_breakpad::AppMemory,void *> *,std::_List_node<google_breakpad::AppMemory,void *> *,google_breakpad::AppMemory const &)
FUNC 2800 ae 0 google_breakpad::GUIDString::GUIDToWString(_GUID *)
FUNC 28b0 2e 0 printf
FUNC 28e0 33 0 `anonymous namespace'::callback
FUNC 2920 15e 8 main
FUNC 2a7e 11 0 __security_check_cookie
FUNC 2a8f 30 0 operator new(unsigned int)
FUNC 2abf e 0 operator delete(void *,unsigned int)
FUNC 2acd 28 0 __raise_securityfailure
FUNC 2af5 f9 0 __report_gsfailure
FUNC 2bee ab 0 pre_c_initialization
FUNC 2c99 8 0 post_pgo_initialization
FUNC 2ca1 12 0 pre_cpp_initialization
FUNC 2cb3 182 0 __scrt_common_main_seh
FUNC 2e35 a 0 mainCRTStartup
FUNC 2e3f 5 0 operator delete(void *)
FUNC 2e44 1b 0 std::bad_alloc::bad_alloc(std::bad_alloc const &)
FUNC 2e5f 18 0 std::bad_alloc::bad_alloc()
FUNC 2e77 1b 0 std::bad_array_new_length::bad_array_new_length(std::bad_array_new_length const &)
FUNC 2e92 18 0 std::bad_array_new_length::bad_array_new_length()
FUNC 2eaa 2c 0 std::exception::exception(std::exception const &)
FUNC m 2ed6 11 0 std::bad_alloc::~bad_alloc()
FUNC m 2ee7 2d 0 std::bad_alloc::`scalar deleting destructor'(unsigned int)
FUNC 2f14 1d 0 __scrt_throw_std_bad_alloc()
FUNC 2f31 1d 0 __scrt_throw_std_bad_array_new_length()
FUNC 2f4e d 0 std::exception::what()
FUNC 2f5b 44 0 find_pe_section
FUNC 2f9f 32 0 __scrt_acquire_startup_lock
FUNC 2fd1 39 0 __scrt_initialize_crt
FUNC 300a a5 0 __scrt_initialize_onexit_tables
FUNC 30af 94 0 __scrt_is_nonwritable_in_current_image
FUNC 3143 1d 0 __scrt_release_startup_lock
FUNC 3160 28 0 __scrt_uninitialize_crt
FUNC 3188 3b 0 _onexit
FUNC 31c3 15 0 atexit
FUNC 31d8 4d 0 __get_entropy
FUNC 3225 4b 0 __security_init_cookie
FUNC m 3270 3 0 __scrt_initialize_winrt
FUNC 3273 4 0 _get_startup_argv_mode
FUNC 3277 6 0 _get_startup_file_mode
FUNC 327d c 0 __scrt_initialize_type_info()
FUNC m 3289 3 0 __scrt_stub_for_acrt_initialize
FUNC 328c 21 0 _initialize_default_precision
FUNC m 32ad 1 0 _guard_check_icall_nop
FUNC 32ae 6 0 __local_stdio_scanf_options
FUNC 32b4 1d 0 __scrt_initialize_default_local_stdio_options
FUNC 32d1 c 0 __scrt_is_user_matherr_present
FUNC 32dd 6 0 __scrt_get_dyn_tls_init_callback
FUNC 32e3 6 0 __scrt_get_dyn_tls_dtor_callback
FUNC 32e9 11a 0 __scrt_fastfail
FUNC 3403 5 0 __scrt_initialize_mta
FUNC 3408 43 0 __scrt_is_managed_app
FUNC 344b c 0 __scrt_set_unhandled_exception_filter
FUNC 3457 41 4 __scrt_unhandled_exception_filter
FUNC 3498 8 4 _crt_debugger_hook
FUNC 34a0 2c 0 _RTC_Initialize
FUNC 34cc 2c 0 _RTC_Terminate
FUNC 3500 46 0 _SEH_prolog4
FUNC 3546 15 0 _SEH_epilog4
FUNC 355b 23 0 _except_handler4
FUNC 357e 23 0 type_info::`scalar deleting destructor'(unsigned int)
FUNC 35a1 197 0 __isa_available_init
FUNC 3738 c 0 __scrt_is_ucrt_dll_in_use
PUBLIC 3744 0 __CxxFrameHandler3
PUBLIC 374a 0 __std_exception_copy
PUBLIC 3750 0 __std_exception_destroy
PUBLIC 3756 8 _CxxThrowException
PUBLIC 375c 0 memset
PUBLIC 3762 0 _except_handler4_common
PUBLIC 3768 0 exit
PUBLIC 376e 0 _callnewh
PUBLIC 3774 0 malloc
PUBLIC 377a 0 _seh_filter_exe
PUBLIC 3780 0 _set_app_type
PUBLIC 3786 0 __setusermatherr
PUBLIC 378c 0 _configure_narrow_argv
PUBLIC 3792 0 _initialize_narrow_environment
PUBLIC 3798 0 _get_initial_narrow_environment
PUBLIC 379e 0 _initterm
PUBLIC 37a4 0 _initterm_e
PUBLIC 37aa 0 _exit
PUBLIC 37b0 0 _set_fmode
PUBLIC 37b6 0 __p___argc
PUBLIC 37bc 0 __p___argv
PUBLIC 37c2 0 _cexit
PUBLIC 37c8 0 _c_exit
PUBLIC 37ce 0 _register_thread_local_exe_atexit_callback
PUBLIC 37d4 0 _configthreadlocale
PUBLIC 37da 0 _set_new_mode
PUBLIC 37e0 0 __p__commode
PUBLIC 37e6 0 free
PUBLIC 37ec 0 _initialize_onexit_table
PUBLIC 37f2 0 _register_onexit_function
PUBLIC 37f8 0 _crt_atexit
PUBLIC 37fe 0 _controlfp_s
PUBLIC 3804 0 terminate
PUBLIC 380a 4 IsProcessorFeaturePresent
PUBLIC 3810 0 memcpy
PUBLIC 3816 0 memmove
STACK WIN 4 1000 114 11 0 8 0 0 0 1 $T0 .raSearch = $eip $T0 ^ = $esp $T0 4 + = 
STACK WIN 4 100f f5 2 0 8 4 c 0 1 $T0 .raSearch = $eip $T0 ^ = $esp $T0 4 + =  $20 $T0 16 - ^ = 
STACK WIN 4 1030 92 0 0 8 8 c 0 1 $T0 .raSearch = $eip $T0 ^ = $esp $T0 4 + =  $20 $T0 16 - ^ =  $23 $T0 20 - ^ = 
STACK WIN 4 1048 a 0 0 8 c c 0 1 $T0 .raSearch = $eip $T0 ^ = $esp $T0 4 + =  $20 $T0 16 - ^ =  $23 $T0 20 - ^ =  $24 $T0 24 - ^ = 
STACK WIN 4 1120 54 3 0 0 0 0 0 1 $T0 .raSearch = $eip $T0 ^ = $esp $T0 4 + = 
STACK WIN 4 1121 4b 2 0 0 4 0 0 1 $T0 .raSearch = $eip $T0 ^ = $esp $T0 4 + =  $23 $T0 4 - ^ = 
STACK WIN 4 1180 153 11 0 8 0 0 0 1 $T0 .raSearch = $eip $T0 ^ = $esp $T0 4 + = 
STACK WIN 4 1188 139 9 0 8 4 8 0 1 $T0 .raSearch = $eip $T0 ^ = $esp $T0 4 + =  $20 $T0 12 - ^ = 
STACK WIN 4 1189 137 8 0 8 8 8 0 1 $T0 .raSearch = $eip $T0 ^ = $esp $T0 4 + =  $20 $T0 12 - ^ =  $22 $T0 16 - ^ = 
STACK WIN 4 118e 131 3 0 8 c 8 0 1 $T0 .raSearch = $eip $T0 ^ = $esp $T0 4 + =  $20 $T0 12 - ^ =  $22 $T0 16 - ^ =  $23 $T0 20 - ^ = 
STACK WIN 4 118f 12f 2 0 8 10 8 0 1 $T0 .raSearch = $eip $T0 ^ = $esp $T0 4 + =  $20 $T0 12 - ^ =  $22 $T0 16 - ^ =  $23 $T0 20 - ^ =  $24 $T0 24 - ^ = 
STACK WIN 4 12e0 c 0 0 0 0 0 0 1 $T0 .raSearch = $eip $T0 ^ = $esp $T0 4 + = 
STACK WIN 4 12f0 7f 8 0 4 0 0 0 1 $T0 .raSearch = $eip $T0 ^ = $esp $T0 4 + = 
STACK WIN 4 12f1 74 7 0 4 4 0 0 1 $T0 .raSearch = $eip $T0 ^ = $esp $T0 4 + =  $23 $T0 4 - ^ = 
STACK WIN 4 12f2 70 6 0 4 8 0 0 1 $T0 .raSearch = $eip $T0 ^ = $esp $T0 4 + =  $23 $T0 4 - ^ =  $24 $T0 8 - ^ = 
STACK WIN 4 1370 6 0 0 0 0 0 0 1 $T0 .raSearch = $eip $T0 ^ = $esp $T0 4 + = 
STACK WIN 4 1380 35 6 0 c 0 0 0 1 $T1 .raSearch = $T0  $T1 4 - 8 @ = $ebp $T1 4 - ^ = $eip $T1 ^ = $esp $T1 4 + =
STACK WIN 4 13c0 34 0 0 10 0 0 0 1 $T0 .raSearch = $eip $T0 ^ = $esp $T0 4 + = 
STACK WIN 4 1400 24 0 0 8 0 0 0 1 $T0 .raSearch = $eip $T0 ^ = $esp $T0 4 + = 
STACK WIN 4 1430 34d 2d 0 28 10 30 0 1 $T0 $ebp = $eip $T0 4 + ^ = $ebp $T0 ^ = $esp $T0 8 + =  $20 $T0 52 - ^ =  $23 $T0 56 - ^ =  $24 $T0 60 - ^ = 
STACK WIN 4 1780 30e 16 0 0 0 0 0 1 $T0 .raSearch = $eip $T0 ^ = $esp $T0 4 + = 
STACK WIN 4 178c 2f2 a 0 0 4 4 0 1 $T0 .raSearch = $eip $T0 ^ = $esp $T0 4 + =  $20 $T0 8 - ^ = 
STACK WIN 4 178d 2f0 9 0 0 8 4 0 1 $T0 .raSearch = $eip $T0 ^ = $esp $T0 4 + =  $20 $T0 8 - ^ =  $23 $T0 12 - ^ = 
STACK WIN 4 1794 2e8 2 0 0 c 4 0 1 $T0 .raSearch = $eip $T0 ^ = $esp $T0 4 + =  $20 $T0 8 - ^ =  $23 $T0 12 - ^ =  $24 $T0 16 - ^ = 
STACK WIN 4 1839 2f 0 0 0 10 4 0 1 $T0 .raSearch = $eip $T0 ^ = $esp $T0 4 + =  $20 $T0 8 - ^ =  $23 $T0 12 - ^ =  $24 $T0 16 - ^ =  $22 $T0 32 - ^ = 
STACK WIN 4 1a90 109 8 0 4 0 0 0 1 $T0 .raSearch = $eip $T0 ^ = $esp $T0 4 + = 
STACK WIN 4 1a91 105 7 0 4 4 0 0 1 $T0 .raSearch = $eip $T0 ^ = $esp $T0 4 + =  $20 $T0 4 - ^ = 
STACK WIN 4 1a92 101 6 0 4 8 0 0 1 $T0 .raSearch = $eip $T0 ^ = $esp $T0 4 + =  $20 $T0 4 - ^ =  $22 $T0 8 - ^ = 
STACK WIN 4 1a93 ff 5 0 4 c 0 0 1 $T0 .raSearch = $eip $T0 ^ = $esp $T0 4 + =  $20 $T0 4 - ^ =  $22 $T0 8 - ^ =  $23 $T0 12 - ^ = 
STACK WIN 4 1a98 f9 0 0 4 10 0 0 1 $T0 .raSearch = $eip $T0 ^ = $esp $T0 4 + =  $20 $T0 4 - ^ =  $22 $T0 8 - ^ =  $23 $T0 12 - ^ =  $24 $T0 16 - ^ = 
STACK WIN 4 1ba0 70 9 0 0 0 0 0 1 $T0 .raSearch = $eip $T0 ^ = $esp $T0 4 + = 
STACK WIN 4 1ba1 68 8 0 0 4 0 0 1 $T0 .raSearch = $eip $T0 ^ = $esp $T0 4 + =  $23 $T0 4 - ^ = 
STACK WIN 4 1ba2 66 7 0 0 8 0 0 1 $T0 .raSearch = $eip $T0 ^ = $esp $T0 4 + =  $23 $T0 4 - ^ =  $24 $T0 8 - ^ = 
STACK WIN 4 1c10 36 0 0 0 0 0 0 1 $T0 .raSearch = $eip $T0 ^ = $esp $T0 4 + = 
STACK WIN 4 1c50 11d 2a 0 4 c 14 0 1 $T0 $ebp = $eip $T0 4 + ^ = $ebp $T0 ^ = $esp $T0 8 + =  $23 $T0 24 - ^ =  $24 $T0 28 - ^ = 
STACK WIN 4 1d70 18b 2e 0 14 10 644 0 1 $T0 $ebp = $eip $T0 4 + ^ = $ebp $T0 ^ = $esp $T0 8 + =  $20 $T0 1608 - ^ =  $23 $T0 1612 - ^ =  $24 $T0 1616 - ^ = 
STACK WIN 4 1f00 129 2c 0 0 8 640 0 1 $T0 $ebp = $eip $T0 4 + ^ = $ebp $T0 ^ = $esp $T0 8 + =  $23 $T0 1604 - ^ = 
STACK WIN 4 2030 da 3 0 8 0 0 0 1 $T0 .raSearch = $eip $T0 ^ = $esp $T0 4 + = 
STACK WIN 4 2031 d6 2 0 8 4 0 0 1 $T0 .raSearch = $eip $T0 ^ = $esp $T0 4 + =  $23 $T0 4 - ^ = 
STACK WIN 4 2034 d2 0 0 8 8 0 0 1 $T0 .raSearch = $eip $T0 ^ = $esp $T0 4 + =  $23 $T0 4 - ^ =  $24 $T0 8 - ^ = 
STACK WIN 4 2060 a5 0 0 8 c 0 0 1 $T0 .raSearch = $eip $T0 ^ = $esp $T0 4 + =  $23 $T0 4 - ^ =  $24 $T0 8 - ^ =  $20 $T0 12 - ^ = 
STACK WIN 4 2110 71 8 0 c 0 0 0 1 $T0 .raSearch = $eip $T0 ^ = $esp $T0 4 + = 
STACK WIN 4 2111 6d 7 0 c 4 0 0 1 $T0 .raSearch = $eip $T0 ^ = $esp $T0 4 + =  $20 $T0 4 - ^ = 
STACK WIN 4 2116 67 2 0 c 8 0 0 1 $T0 .raSearch = $eip $T0 ^ = $esp $T0 4 + =  $20 $T0 4 - ^ =  $23 $T0 8 - ^ = 
STACK WIN 4 2119 63 0 0 c c 0 0 1 $T0 .raSearch = $eip $T0 ^ = $esp $T0 4 + =  $20 $T0 4 - ^ =  $23 $T0 8 - ^ =  $24 $T0 12 - ^ = 
STACK WIN 4 2190 80 d 0 c 0 0 0 1 $T0 .raSearch = $eip $T0 ^ = $esp $T0 4 + = 
STACK WIN 4 219d 51 0 0 c 4 0 0 1 $T0 .raSearch = $eip $T0 ^ = $esp $T0 4 + =  $23 $T0 4 - ^ = 
STACK WIN 4 2210 21c 24 0 14 c 84 0 1 $T1 .raSearch = $T0  $T1 4 - 8 @ = $ebp $T1 4 - ^ = $eip $T1 ^ = $esp $T1 4 + = $20 $T0 136 - ^ =  $23 $T0 140 - ^ =  $24 $T0 144 - ^ = 
STACK WIN 4 2430 11e 1e 0 0 8 238 0 1 $T1 .raSearch = $T0  $T1 4 - 16 @ = $ebp $T1 4 - ^ = $eip $T1 ^ = $esp $T1 4 + = $23 $T0 572 - ^ =  $24 $T0 576 - ^ = 
STACK WIN 4 2550 d 0 0 0 0 0 0 1 $T0 .raSearch = $eip $T0 ^ = $esp $T0 4 + = 
STACK WIN 4 2560 43 3 0 0 0 0 0 1 $T0 .raSearch = $eip $T0 ^ = $esp $T0 4 + = 
STACK WIN 4 2561 41 2 0 0 4 0 0 1 $T0 .raSearch = $eip $T0 ^ = $esp $T0 4 + =  $24 $T0 4 - ^ = 
STACK WIN 4 257c 1a 0 0 0 8 0 0 1 $T0 .raSearch = $eip $T0 ^ = $esp $T0 4 + =  $24 $T0 4 - ^ =  $23 $T0 8 - ^ = 
STACK WIN 4 25b0 8c 3 0 4 0 0 0 1 $T0 .raSearch = $eip $T0 ^ = $esp $T0 4 + = 
STACK WIN 4 25b1 81 2 0 4 4 0 0 1 $T0 .raSearch = $eip $T0 ^ = $esp $T0 4 + =  $23 $T0 4 - ^ = 
STACK WIN 4 25b4 7d 0 0 4 8 0 0 1 $T0 .raSearch = $eip $T0 ^ = $esp $T0 4 + =  $23 $T0 4 - ^ =  $24 $T0 8 - ^ = 
STACK WIN 4 2640 c 0 0 0 0 0 0 1 $T0 .raSearch = $eip $T0 ^ = $esp $T0 4 + = 
STACK WIN 4 2650 2a 0 0 8 0 0 0 1 $T0 .raSearch = $eip $T0 ^ = $esp $T0 4 + = 
STACK WIN 4 2680 14f e 0 8 0 0 0 1 $T0 .raSearch = $eip $T0 ^ = $esp $T0 4 + = 
STACK WIN 4 2684 139 a 0 8 4 8 0 1 $T0 .raSearch = $eip $T0 ^ = $esp $T0 4 + =  $20 $T0 12 - ^ = 
STACK WIN 4 2685 135 9 0 8 8 8 0 1 $T0 .raSearch = $eip $T0 ^ = $esp $T0 4 + =  $20 $T0 12 - ^ =  $22 $T0 16 - ^ = 
STACK WIN 4 268c 12d 2 0 8 c 8 0 1 $T0 .raSearch = $eip $T0 ^ = $esp $T0 4 + =  $20 $T0 12 - ^ =  $22 $T0 16 - ^ =  $24 $T0 20 - ^ = 
STACK WIN 4 26ae 10a 0 0 8 10 8 0 1 $T0 .raSearch = $eip $T0 ^ = $esp $T0 4 + =  $20 $T0 12 - ^ =  $22 $T0 16 - ^ =  $24 $T0 20 - ^ =  $23 $T0 24 - ^ = 
STACK WIN 4 27d0 c 0 0 0 0 0 0 1 $T0 .raSearch = $eip $T0 ^ = $esp $T0 4 + = 
STACK WIN 4 27e0 1b 0 0 c 0 0 0 1 $T0 .raSearch = $eip $T0 ^ = $esp $T0 4 + = 
STACK WIN 4 2800 ae 15 0 0 4 60 0 1 $T0 .raSearch = $eip $T0 ^ = $esp $T0 4 + =  $23 $T0 100 - ^ = 
STACK WIN 4 28b0 2e 1 0 4 0 0 0 1 $T0 .raSearch = $eip $T0 ^ = $esp $T0 4 + = 
STACK WIN 4 28b1 2c 0 0 4 4 0 0 1 $T0 .raSearch = $eip $T0 ^ = $esp $T0 4 + =  $23 $T0 4 - ^ = 
STACK WIN 4 28e0 33 1 0 18 0 0 0 1 $T0 .raSearch = $eip $T0 ^ = $esp $T0 4 + = 
STACK WIN 4 28e1 31 0 0 18 4 0 0 1 $T0 .raSearch = $eip $T0 ^ = $esp $T0 4 + =  $20 $T0 4 - ^ = 
STACK WIN 4 2920 15e 36 0 8 4 f4 0 1 $T0 $ebp 204 + =$eip $T0 4 + ^ =$ebp $T0 ^ = $esp $T0 8 + = 
STACK WIN 4 2a7e 11 0 0 0 0 0 0 1 $T0 .raSearch = $eip $T0 ^ = $esp $T0 4 + = 
STACK WIN 4 2a8f 30 3 0 4 0 0 0 1 $T0 $ebp = $eip $T0 4 + ^ = $ebp $T0 ^ = $esp $T0 8 + = 
STACK WIN 4 2abf e 3 0 8 0 0 0 1 $T0 $ebp = $eip $T0 4 + ^ = $ebp $T0 ^ = $esp $T0 8 + = 
STACK WIN 4 2acd 28 3 0 4 0 0 0 1 $T0 $ebp = $eip $T0 4 + ^ = $ebp $T0 ^ = $esp $T0 8 + = 
STACK WIN 4 2af5 f9 9 0 0 0 324 0 1 $T0 $ebp = $eip $T0 4 + ^ = $ebp $T0 ^ = $esp $T0 8 + = 
STACK WIN 4 2bee ab 1 0 0 0 0 0 1 $T0 .raSearch = $eip $T0 ^ = $esp $T0 4 + = 
STACK WIN 4 2bef 2b 0 0 0 4 0 0 1 $T0 .raSearch = $eip $T0 ^ = $esp $T0 4 + =  $23 $T0 4 - ^ = 
STACK WIN 4 2c99 8 0 0 0 0 0 0 1 $T0 .raSearch = $eip $T0 ^ = $esp $T0 4 + = 
STACK WIN 4 2ca1 12 0 0 0 0 0 0 1 $T0 .raSearch = $eip $T0 ^ = $esp $T0 4 + = 
STACK WIN 4 2cb3 182 c 0 0 10 24 0 1 $T0 $ebp = $eip $T0 4 + ^ = $ebp $T0 ^ = $esp $T0 8 + =  $20 $T0 40 - ^ =  $23 $T0 44 - ^ =  $24 $T0 48 - ^ = 
STACK WIN 4 2dda 14 0 0 0 10 24 0 1 $T0 $ebp = $T2 $esp = $T1 .raSearchStart = $eip $T1 ^ = $ebp $T0 = $esp $T1 4 + = 
STACK WIN 4 2e35 a 0 0 0 0 0 0 1 $T0 .raSearch = $eip $T0 ^ = $esp $T0 4 + = 
STACK WIN 4 2e3f 5 0 0 4 0 0 0 1 $T0 $ebp = $eip $T0 4 + ^ = $ebp $T0 ^ = $esp $T0 8 + = 
STACK WIN 4 2e44 1b 9 0 4 0 0 0 1 $T0 $ebp = $eip $T0 4 + ^ = $ebp $T0 ^ = $esp $T0 8 + = 
STACK WIN 4 2e48 13 5 0 4 4 0 0 1 $T0 $ebp = $eip $T0 4 + ^ = $ebp $T0 ^ = $esp $T0 8 + =  $23 $T0 4 - ^ = 
STACK WIN 4 2e5f 18 0 0 0 0 0 0 1 $T0 .raSearch = $eip $T0 ^ = $esp $T0 4 + = 
STACK WIN 4 2e77 1b 9 0 4 0 0 0 1 $T0 $ebp = $eip $T0 4 + ^ = $ebp $T0 ^ = $esp $T0 8 + = 
STACK WIN 4 2e7b 13 5 0 4 4 0 0 1 $T0 $ebp = $eip $T0 4 + ^ = $ebp $T0 ^ = $esp $T0 8 + =  $23 $T0 4 - ^ = 
STACK WIN 4 2e92 18 0 0 0 0 0 0 1 $T0 .raSearch = $eip $T0 ^ = $esp $T0 4 + = 
STACK WIN 4 2eaa 2c 6 0 4 0 0 0 1 $T0 $ebp = $eip $T0 4 + ^ = $ebp $T0 ^ = $esp $T0 8 + = 
STACK WIN 4 2eae 24 2 0 4 4 0 0 1 $T0 $ebp = $eip $T0 4 + ^ = $ebp $T0 ^ = $esp $T0 8 + =  $23 $T0 4 - ^ = 
STACK WIN 4 2ed6 11 0 0 0 0 0 0 1 $T0 .raSearch = $eip $T0 ^ = $esp $T0 4 + = 
STACK WIN 4 2ee7 2d 6 0 4 0 0 0 1 $T0 $ebp = $eip $T0 4 + ^ = $ebp $T0 ^ = $esp $T0 8 + = 
STACK WIN 4 2eeb 25 2 0 4 4 0 0 1 $T0 $ebp = $eip $T0 4 + ^ = $ebp $T0 ^ = $esp $T0 8 + =  $23 $T0 4 - ^ = 
STACK WIN 4 2f14 1d 6 0 0 0 c 0 1 $T0 $ebp = $eip $T0 4 + ^ = $ebp $T0 ^ = $esp $T0 8 + = 
STACK WIN 4 2f31 1d 6 0 0 0 c 0 1 $T0 $ebp = $eip $T0 4 + ^ = $ebp $T0 ^ = $esp $T0 8 + = 
STACK WIN 4 2f4e d 0 0 0 0 0 0 1 $T0 .raSearch = $eip $T0 ^ = $esp $T0 4 + = 
STACK WIN 4 2f5b 44 7 0 8 0 0 0 1 $T0 $ebp = $eip $T0 4 + ^ = $ebp $T0 ^ = $esp $T0 8 + = 
STACK WIN 4 2f62 37 0 0 8 4 0 0 1 $T0 $ebp = $eip $T0 4 + ^ = $ebp $T0 ^ = $esp $T0 8 + =  $23 $T0 4 - ^ = 
STACK WIN 4 2f9f 32 1 0 0 0 0 0 1 $T0 .raSearch = $eip $T0 ^ = $esp $T0 4 + = 
STACK WIN 4 2fa0 30 0 0 0 4 0 0 1 $T0 .raSearch = $eip $T0 ^ = $esp $T0 4 + =  $23 $T0 4 - ^ = 
STACK WIN 4 2fd1 39 3 0 4 0 0 0 1 $T0 $ebp = $eip $T0 4 + ^ = $ebp $T0 ^ = $esp $T0 8 + = 
STACK WIN 4 300a a5 6 0 4 0 c 0 1 $T0 $ebp = $eip $T0 4 + ^ = $ebp $T0 ^ = $esp $T0 8 + = 
STACK WIN 4 301e 87 0 0 4 4 c 0 1 $T0 $ebp = $eip $T0 4 + ^ = $ebp $T0 ^ = $esp $T0 8 + =  $23 $T0 16 - ^ = 
STACK WIN 4 3062 39 0 0 4 8 c 0 1 $T0 $ebp = $eip $T0 4 + ^ = $ebp $T0 ^ = $esp $T0 8 + =  $23 $T0 16 - ^ =  $24 $T0 20 - ^ = 
STACK WIN 4 30af 94 c 0 4 10 18 0 1 $T0 $ebp = $eip $T0 4 + ^ = $ebp $T0 ^ = $esp $T0 8 + =  $20 $T0 28 - ^ =  $23 $T0 32 - ^ =  $24 $T0 36 - ^ = 
STACK WIN 4 3114 13 0 0 4 10 18 0 1 $T0 $ebp = $T2 $esp = $T1 .raSearchStart = $eip $T1 ^ = $ebp $T0 = $esp $T1 4 + = 
STACK WIN 4 3143 1d 3 0 4 0 0 0 1 $T0 $ebp = $eip $T0 4 + ^ = $ebp $T0 ^ = $esp $T0 8 + = 
STACK WIN 4 3160 28 3 0 8 0 0 0 1 $T0 $ebp = $eip $T0 4 + ^ = $ebp $T0 ^ = $esp $T0 8 + = 
STACK WIN 4 3188 3b 3 0 4 0 0 0 1 $T0 $ebp = $eip $T0 4 + ^ = $ebp $T0 ^ = $esp $T0 8 + = 
STACK WIN 4 31c3 15 3 0 4 0 0 0 1 $T0 $ebp = $eip $T0 4 + ^ = $ebp $T0 ^ = $esp $T0 8 + = 
STACK WIN 4 31d8 4d 6 0 0 0 14 0 1 $T0 $ebp = $eip $T0 4 + ^ = $ebp $T0 ^ = $esp $T0 8 + = 
STACK WIN 4 3225 4b 8 0 0 0 0 0 1 $T0 .raSearch = $eip $T0 ^ = $esp $T0 4 + = 
STACK WIN 4 322c 43 1 0 0 4 0 0 1 $T0 .raSearch = $eip $T0 ^ = $esp $T0 4 + =  $23 $T0 4 - ^ = 
STACK WIN 4 322d 3b 0 0 0 8 0 0 1 $T0 .raSearch = $eip $T0 ^ = $esp $T0 4 + =  $23 $T0 4 - ^ =  $24 $T0 8 - ^ = 
STACK WIN 4 3270 3 0 0 0 0 0 0 1 $T0 .raSearch = $eip $T0 ^ = $esp $T0 4 + = 
STACK WIN 4 3273 4 0 0 0 0 0 0 1 $T0 .raSearch = $eip $T0 ^ = $esp $T0 4 + = 
STACK WIN 4 3277 6 0 0 0 0 0 0 1 $T0 .raSearch = $eip $T0 ^ = $esp $T0 4 + = 
STACK WIN 4 327d c 0 0 0 0 0 0 1 $T0 .raSearch = $eip $T0 ^ = $esp $T0 4 + = 
STACK WIN 4 3289 3 0 0 0 0 0 0 1 $T0 .raSearch = $eip $T0 ^ = $esp $T0 4 + = 
STACK WIN 4 328c 21 0 0 0 0 0 0 1 $T0 .raSearch = $eip $T0 ^ = $esp $T0 4 + = 
STACK WIN 4 32ad 1 0 0 0 0 0 0 1 $T0 .raSearch = $eip $T0 ^ = $esp $T0 4 + = 
STACK WIN 4 32ae 6 0 0 0 0 0 0 1 $T0 .raSearch = $eip $T0 ^ = $esp $T0 4 + = 
STACK WIN 4 32b4 1d 0 0 0 0 0 0 1 $T0 .raSearch = $eip $T0 ^ = $esp $T0 4 + = 
STACK WIN 4 32d1 c 0 0 0 0 0 0 1 $T0 .raSearch = $eip $T0 ^ = $esp $T0 4 + = 
STACK WIN 4 32dd 6 0 0 0 0 0 0 1 $T0 .raSearch = $eip $T0 ^ = $esp $T0 4 + = 
STACK WIN 4 32e3 6 0 0 0 0 0 0 1 $T0 .raSearch = $eip $T0 ^ = $esp $T0 4 + = 
STACK WIN 4 32e9 11a a 0 4 4 324 0 1 $T0 $ebp = $eip $T0 4 + ^ = $ebp $T0 ^ = $esp $T0 8 + =  $20 $T0 808 - ^ = 
STACK WIN 4 3403 5 0 0 0 0 0 0 1 $T0 .raSearch = $eip $T0 ^ = $esp $T0 4 + = 
STACK WIN 4 3408 43 0 0 0 0 0 0 1 $T0 .raSearch = $eip $T0 ^ = $esp $T0 4 + = 
STACK WIN 4 344b c 0 0 0 0 0 0 1 $T0 .raSearch = $eip $T0 ^ = $esp $T0 4 + = 
STACK WIN 4 3457 41 3 0 4 0 0 0 1 $T0 $ebp = $eip $T0 4 + ^ = $ebp $T0 ^ = $esp $T0 8 + = 
STACK WIN 4 3498 8 0 0 4 0 0 0 1 $T0 .raSearch = $eip $T0 ^ = $esp $T0 4 + = 
STACK WIN 4 34a0 2c 2 0 0 0 0 0 1 $T0 .raSearch = $eip $T0 ^ = $esp $T0 4 + = 
STACK WIN 4 34a1 2a 1 0 0 4 0 0 1 $T0 .raSearch = $eip $T0 ^ = $esp $T0 4 + =  $20 $T0 4 - ^ = 
STACK WIN 4 34a2 28 0 0 0 8 0 0 1 $T0 .raSearch = $eip $T0 ^ = $esp $T0 4 + =  $20 $T0 4 - ^ =  $23 $T0 8 - ^ = 
STACK WIN 4 34b1 18 0 0 0 c 0 0 1 $T0 .raSearch = $eip $T0 ^ = $esp $T0 4 + =  $20 $T0 4 - ^ =  $23 $T0 8 - ^ =  $24 $T0 12 - ^ = 
STACK WIN 4 34cc 2c 2 0 0 0 0 0 1 $T0 .raSearch = $eip $T0 ^ = $esp $T0 4 + = 
STACK WIN 4 34cd 2a 1 0 0 4 0 0 1 $T0 .raSearch = $eip $T0 ^ = $esp $T0 4 + =  $20 $T0 4 - ^ = 
STACK WIN 4 34ce 28 0 0 0 8 0 0 1 $T0 .raSearch = $eip $T0 ^ = $esp $T0 4 + =  $20 $T0 4 - ^ =  $23 $T0 8 - ^ = 
STACK WIN 4 34dd 18 0 0 0 c 0 0 1 $T0 .raSearch = $eip $T0 ^ = $esp $T0 4 + =  $20 $T0 4 - ^ =  $23 $T0 8 - ^ =  $24 $T0 12 - ^ = 
STACK WIN 4 355b 23 3 0 10 0 0 0 1 $T0 $ebp = $eip $T0 4 + ^ = $ebp $T0 ^ = $esp $T0 8 + = 
STACK WIN 4 357e 23 a 0 4 0 0 0 1 $T0 $ebp = $eip $T0 4 + ^ = $ebp $T0 ^ = $esp $T0 8 + = 
STACK WIN 4 3586 17 2 0 4 4 0 0 1 $T0 $ebp = $eip $T0 4 + ^ = $ebp $T0 ^ = $esp $T0 8 + =  $23 $T0 4 - ^ = 
STACK WIN 4 35a1 197 e 0 0 0 24 0 1 $T0 $ebp = $eip $T0 4 + ^ = $ebp $T0 ^ = $esp $T0 8 + = 
STACK WIN 4 35af 187 0 0 0 4 24 0 1 $T0 $ebp = $eip $T0 4 + ^ = $ebp $T0 ^ = $esp $T0 8 + =  $20 $T0 40 - ^ = 
STACK WIN 4 35d7 ef 0 0 0 8 24 0 1 $T0 $ebp = $eip $T0 4 + ^ = $ebp $T0 ^ = $esp $T0 8 + =  $20 $T0 40 - ^ =  $23 $T0 44 - ^ = 
STACK WIN 4 35d8 ed 0 0 0 c 24 0 1 $T0 $ebp = $eip $T0 4 + ^ = $ebp $T0 ^ = $esp $T0 8 + =  $20 $T0 40 - ^ =  $23 $T0 44 - ^ =  $24 $T0 48 - ^ = 
STACK WIN 4 3738 c 0 0 0 0 0 0 1 $T0 .raSearch = $eip $T0 ^ = $esp $T0 4 + = 
STACK WIN 0 2dda 14 0 0 0 0 0 0 0 0
STACK WIN 0 3114 13 0 0 0 0 0 0 0 0
