MODULE windows x86_64 F535C5FB2AE84BB8AA206C30BE566C5A1 CrashWithException.pdb
INFO CODE_ID 5C9E09599000 CrashWithException.exe
FUNC 1000 8 0 _local_stdio_printf_options
FUNC 1010 55 0 printf
FUNC 1070 18 0 std::exception::exception()
FUNC 1090 13 0 std::exception::what()
FUNC 10b0 43 0 std::exception::`scalar deleting destructor'(unsigned int)
FUNC 1100 c 0 X::foo()
FUNC 1110 c 0 X::~X()
FUNC 1120 2d 0 crashing_function()
FUNC 1150 18 0 test()
FUNC 1170 a 0 main
FUNC 1190 21 0 _security_check_cookie
FUNC 11b4 5 0 operator delete(void *,unsigned __int64)
FUNC 11bc 3c 0 operator new(unsigned __int64)
FUNC 11f8 2b 0 type_info::`scalar deleting destructor'(unsigned int)
FUNC 1224 b7 0 static int pre_c_initialization()
FUNC 12dc 10 0 static int post_pgo_initialization()
FUNC 12ec 19 0 static void pre_cpp_initialization()
FUNC 1308 17c 0 static int __scrt_common_main_seh()
FUNC 1484 12 0 mainCRTStartup
FUNC 1498 34 0 _raise_securityfailure
FUNC 14cc d1 0 _report_gsfailure
FUNC 15a0 71 0 static void capture_previous_context(struct _CONTEXT *)
FUNC 1614 5 0 operator delete(void *)
FUNC 161c 3f 0 std::bad_alloc::bad_alloc(std::bad_alloc const &)
FUNC 165c 1e 0 std::bad_alloc::bad_alloc()
FUNC 167c 3f 0 std::bad_array_new_length::bad_array_new_length(std::bad_array_new_length const &)
FUNC 16bc 1e 0 std::bad_array_new_length::bad_array_new_length()
FUNC 16dc 35 0 std::exception::exception(std::exception const &)
FUNC m 1714 13 0 std::bad_alloc::~bad_alloc()
FUNC m 1728 42 0 std::bad_alloc::`scalar deleting destructor'(unsigned int)
FUNC 176c 20 0 __scrt_throw_std_bad_alloc()
FUNC 178c 20 0 __scrt_throw_std_bad_array_new_length()
FUNC 17ac 39 0 _scrt_acquire_startup_lock
FUNC 17e8 49 0 _scrt_initialize_crt
FUNC 1834 d8 0 _scrt_initialize_onexit_tables
FUNC 190c 99 0 _scrt_is_nonwritable_in_current_image
FUNC 19a8 24 0 _scrt_release_startup_lock
FUNC 19cc 2b 0 _scrt_uninitialize_crt
FUNC 19f8 4f 0 onexit
FUNC 1a48 17 0 atexit
FUNC 1a60 ac 0 _security_init_cookie
FUNC m 1b0c 3 0 _scrt_initialize_winrt
FUNC 1b10 6 0 get_startup_argv_mode
FUNC 1b18 6 0 get_startup_file_mode
FUNC 1b20 e 0 __scrt_initialize_type_info()
FUNC m 1b30 3 0 _scrt_stub_for_acrt_initialize
FUNC m 1b34 3 0 guard_check_icall_nop
FUNC 1b38 8 0 _local_stdio_scanf_options
FUNC 1b40 1b 0 _scrt_initialize_default_local_stdio_options
FUNC 1b5c c 0 _scrt_is_user_matherr_present
FUNC 1b68 8 0 _scrt_get_dyn_tls_init_callback
FUNC 1b70 8 0 _scrt_get_dyn_tls_dtor_callback
FUNC 1b78 8 0 _crt_debugger_hook
FUNC 1b80 14a 0 _scrt_fastfail
FUNC 1ccc 5 0 _scrt_initialize_mta
FUNC 1cd4 52 0 _scrt_is_managed_app
FUNC 1d28 e 0 _scrt_set_unhandled_exception_filter
FUNC 1d38 38 0 _scrt_unhandled_exception_filter
FUNC 1d70 3c 0 RTC_Initialize
FUNC 1dac 3c 0 RTC_Terminate
FUNC 1de8 1b9 0 _isa_available_init
FUNC 1fa4 c 0 _scrt_is_ucrt_dll_in_use
PUBLIC 1fb0 0 _CxxFrameHandler3
PUBLIC 1fb6 0 _std_exception_destroy
PUBLIC 1fbc 0 _C_specific_handler
PUBLIC 1fc2 0 _std_exception_copy
PUBLIC 1fc8 0 CxxThrowException
PUBLIC 1fce 0 memset
PUBLIC 1fd4 0 callnewh
PUBLIC 1fda 0 malloc
PUBLIC 1fe0 0 seh_filter_exe
PUBLIC 1fe6 0 set_app_type
PUBLIC 1fec 0 _setusermatherr
PUBLIC 1ff2 0 configure_narrow_argv
PUBLIC 1ff8 0 initialize_narrow_environment
PUBLIC 1ffe 0 get_initial_narrow_environment
PUBLIC 2004 0 initterm
PUBLIC 200a 0 initterm_e
PUBLIC 2010 0 exit
PUBLIC 2016 0 exit
PUBLIC 201c 0 set_fmode
PUBLIC 2022 0 _p___argc
PUBLIC 2028 0 _p___argv
PUBLIC 202e 0 cexit
PUBLIC 2034 0 c_exit
PUBLIC 203a 0 register_thread_local_exe_atexit_callback
PUBLIC 2040 0 configthreadlocale
PUBLIC 2046 0 set_new_mode
PUBLIC 204c 0 _p__commode
PUBLIC 2052 0 free
PUBLIC 2058 0 initialize_onexit_table
PUBLIC 205e 0 register_onexit_function
PUBLIC 2064 0 crt_atexit
PUBLIC 206a 0 terminate
PUBLIC 2070 0 IsProcessorFeaturePresent
FUNC 2090 2 0 guard_dispatch_icall_nop
FUNC 20a0 c 0 static  `test'::`1'::dtor$0()
FUNC 20ac 1e 0 static  `__scrt_common_main_seh'::`1'::filt$0()
FUNC 20ca 18 0 static  __scrt_is_nonwritable_in_current_image$filt$0()
STACK CFI INIT 1010 55 .cfa: $rsp .ra: .cfa 8 - ^
STACK CFI 1010 .cfa: $rsp 80 +
STACK CFI INIT 10b0 43 .cfa: $rsp .ra: .cfa 8 - ^
STACK CFI 10b0 .cfa: $rsp 48 +
STACK CFI INIT 1120 2d .cfa: $rsp .ra: .cfa 8 - ^
STACK CFI 1120 .cfa: $rsp 48 +
STACK CFI INIT 1150 18 .cfa: $rsp .ra: .cfa 8 - ^
STACK CFI 1150 .cfa: $rsp 64 +
STACK CFI INIT 1170 a .cfa: $rsp .ra: .cfa 8 - ^
STACK CFI 1170 .cfa: $rsp 48 +
STACK CFI INIT 1190 21 .cfa: $rsp .ra: .cfa 8 - ^
STACK CFI 1190 .cfa: $rsp 8 +
STACK CFI INIT 11bc 3c .cfa: $rsp .ra: .cfa 8 - ^
STACK CFI 11bc .cfa: $rsp 48 +
STACK CFI INIT 11f8 2b .cfa: $rsp .ra: .cfa 8 - ^
STACK CFI 11f8 .cfa: $rsp 48 +
STACK CFI INIT 1224 b7 .cfa: $rsp .ra: .cfa 8 - ^
STACK CFI 1224 .cfa: $rsp 48 +
STACK CFI INIT 12dc 10 .cfa: $rsp .ra: .cfa 8 - ^
STACK CFI 12dc .cfa: $rsp 48 +
STACK CFI INIT 12ec 19 .cfa: $rsp .ra: .cfa 8 - ^
STACK CFI 12ec .cfa: $rsp 48 +
STACK CFI INIT 1308 17c .cfa: $rsp .ra: .cfa 8 - ^
STACK CFI 1308 .cfa: $rsp 64 +
STACK CFI INIT 1484 12 .cfa: $rsp .ra: .cfa 8 - ^
STACK CFI 1484 .cfa: $rsp 48 +
STACK CFI INIT 1498 34 .cfa: $rsp .ra: .cfa 8 - ^
STACK CFI 1498 .cfa: $rsp 48 +
STACK CFI INIT 14cc d1 .cfa: $rsp .ra: .cfa 8 - ^
STACK CFI 14cc .cfa: $rsp 64 +
STACK CFI INIT 15a0 71 .cfa: $rsp .ra: .cfa 8 - ^
STACK CFI 15a0 .cfa: $rsp 96 +
STACK CFI INIT 161c 3f .cfa: $rsp .ra: .cfa 8 - ^
STACK CFI 161c .cfa: $rsp 48 +
STACK CFI INIT 167c 3f .cfa: $rsp .ra: .cfa 8 - ^
STACK CFI 167c .cfa: $rsp 48 +
STACK CFI INIT 16dc 35 .cfa: $rsp .ra: .cfa 8 - ^
STACK CFI 16dc .cfa: $rsp 48 +
STACK CFI INIT 1728 42 .cfa: $rsp .ra: .cfa 8 - ^
STACK CFI 1728 .cfa: $rsp 48 +
STACK CFI INIT 176c 20 .cfa: $rsp .ra: .cfa 8 - ^
STACK CFI 176c .cfa: $rsp 80 +
STACK CFI INIT 178c 20 .cfa: $rsp .ra: .cfa 8 - ^
STACK CFI 178c .cfa: $rsp 80 +
STACK CFI INIT 17ac 39 .cfa: $rsp .ra: .cfa 8 - ^
STACK CFI 17ac .cfa: $rsp 48 +
STACK CFI INIT 17e8 49 .cfa: $rsp .ra: .cfa 8 - ^
STACK CFI 17e8 .cfa: $rsp 48 +
STACK CFI INIT 1834 d8 .cfa: $rsp .ra: .cfa 8 - ^
STACK CFI 1834 .cfa: $rsp 80 +
STACK CFI INIT 190c 99 .cfa: $rsp .ra: .cfa 8 - ^
STACK CFI 190c .cfa: $rsp 32 +
STACK CFI INIT 19a8 24 .cfa: $rsp .ra: .cfa 8 - ^
STACK CFI 19a8 .cfa: $rsp 48 +
STACK CFI INIT 19cc 2b .cfa: $rsp .ra: .cfa 8 - ^
STACK CFI 19cc .cfa: $rsp 48 +
STACK CFI INIT 19f8 4f .cfa: $rsp .ra: .cfa 8 - ^
STACK CFI 19f8 .cfa: $rsp 48 +
STACK CFI INIT 1a48 17 .cfa: $rsp .ra: .cfa 8 - ^
STACK CFI 1a48 .cfa: $rsp 48 +
STACK CFI INIT 1a60 ac .cfa: $rsp .ra: .cfa 8 - ^
STACK CFI 1a60 .cfa: $rsp 48 +
STACK CFI INIT 1b40 1b .cfa: $rsp .ra: .cfa 8 - ^
STACK CFI 1b40 .cfa: $rsp 48 +
STACK CFI INIT 1b80 14a .cfa: $rsp .ra: .cfa 8 - ^
STACK CFI 1b80 .cfa: $rsp 1488 +
STACK CFI INIT 1cd4 52 .cfa: $rsp .ra: .cfa 8 - ^
STACK CFI 1cd4 .cfa: $rsp 48 +
STACK CFI INIT 1d38 38 .cfa: $rsp .ra: .cfa 8 - ^
STACK CFI 1d38 .cfa: $rsp 48 +
STACK CFI INIT 1d70 3c .cfa: $rsp .ra: .cfa 8 - ^
STACK CFI 1d70 .cfa: $rsp 48 +
STACK CFI INIT 1dac 3c .cfa: $rsp .ra: .cfa 8 - ^
STACK CFI 1dac .cfa: $rsp 48 +
STACK CFI INIT 1de8 1b9 .cfa: $rsp .ra: .cfa 8 - ^
STACK CFI 1de8 .cfa: $rsp 48 +
STACK CFI INIT 2090 2 .cfa: $rsp .ra: .cfa 8 - ^
STACK CFI 2090 .cfa: $rsp 8 +
STACK CFI INIT 20ac 1e .cfa: $rsp .ra: .cfa 8 - ^
STACK CFI 20ac .cfa: $rsp 48 +
STACK CFI INIT 20ca 18 .cfa: $rsp .ra: .cfa 8 - ^
STACK CFI 20ca .cfa: $rsp 16 +
