STACK CFI INIT 1f10 2a .cfa: $rsp 8 +
STACK CFI INIT 1a90 470 .cfa: $rsp 16 + .ra: .cfa -8 + ^
STACK CFI 1a96 .cfa: $rsp 24 +
STACK CFI INIT 21d4 3a .cfa: $rsp 8 + .ra: .cfa -8 + ^
STACK CFI INIT 220e cc .cfa: $rsp 8 + .ra: .cfa -8 + ^
STACK CFI 2212 .cfa: $rsp 32 +
STACK CFI 22d9 .cfa: $rsp 8 +
STACK CFI INIT 22da f .cfa: $rsp 8 + .ra: .cfa -8 + ^
STACK CFI INIT 2006 59 .cfa: $rsp 8 + .ra: .cfa -8 + ^
STACK CFI 200a .cfa: $rsp 48 +
STACK CFI 205e .cfa: $rsp 8 +
STACK CFI INIT 205f 16 .cfa: $rsp 8 + .ra: .cfa -8 + ^
STACK CFI INIT 2075 7 .cfa: $rsp 8 + .ra: .cfa -8 + ^
STACK CFI INIT 22ea 31 .cfa: $rsp 8 + .ra: .cfa -8 + ^
STACK CFI 22ee .cfa: $rsp 32 +
STACK CFI 231a .cfa: $rsp 8 +
STACK CFI INIT 207c 157 .cfa: $rsp 8 + .ra: .cfa -8 + ^
STACK CFI 207d .cfa: $rsp 16 + $rbp: .cfa -16 + ^
STACK CFI 2080 .cfa: $rbp 16 +
STACK CFI 2088 $rbx: .cfa -24 + ^
STACK CFI 21d2 .cfa: $rsp 8 +
STACK CFI INIT 436e 10 .cfa: $rsp 8 + .ra: .cfa -8 + ^
STACK CFI INIT 437e 13 .cfa: $rsp 8 + .ra: .cfa -8 + ^
STACK CFI INIT 4392 e .cfa: $rsp 8 + .ra: .cfa -8 + ^
STACK CFI INIT 43a0 13 .cfa: $rsp 8 + .ra: .cfa -8 + ^
STACK CFI INIT 43b4 f .cfa: $rsp 8 + .ra: .cfa -8 + ^
STACK CFI INIT 43c4 f .cfa: $rsp 8 + .ra: .cfa -8 + ^
STACK CFI INIT 43d4 f .cfa: $rsp 8 + .ra: .cfa -8 + ^
STACK CFI INIT 43e4 f .cfa: $rsp 8 + .ra: .cfa -8 + ^
STACK CFI INIT 43f4 47 .cfa: $rsp 8 + .ra: .cfa -8 + ^
STACK CFI 43f8 .cfa: $rsp 32 +
STACK CFI 443a .cfa: $rsp 8 +
STACK CFI INIT 231c c3 .cfa: $rsp 8 + .ra: .cfa -8 + ^
STACK CFI 231e .cfa: $rsp 16 + $r12: .cfa -16 + ^
STACK CFI 231f .cfa: $rsp 24 + $rbp: .cfa -24 + ^
STACK CFI 2320 .cfa: $rsp 32 + $rbx: .cfa -32 + ^
STACK CFI 2324 .cfa: $rsp 96 +
STACK CFI 23da .cfa: $rsp 32 +
STACK CFI 23db .cfa: $rsp 24 +
STACK CFI 23dc .cfa: $rsp 16 +
STACK CFI 23de .cfa: $rsp 8 +
STACK CFI INIT 23df 4f .cfa: $rsp 8 + .ra: .cfa -8 + ^
STACK CFI 23e3 .cfa: $rsp 48 +
STACK CFI 242d .cfa: $rsp 8 +
STACK CFI INIT 242e 41 .cfa: $rsp 8 + .ra: .cfa -8 + ^
STACK CFI 2432 .cfa: $rsp 32 +
STACK CFI 246e .cfa: $rsp 8 +
STACK CFI INIT 246f 41 .cfa: $rsp 8 + .ra: .cfa -8 + ^
STACK CFI 2473 .cfa: $rsp 32 +
STACK CFI 24af .cfa: $rsp 8 +
STACK CFI INIT 24b0 56 .cfa: $rsp 8 + .ra: .cfa -8 + ^
STACK CFI 24b4 .cfa: $rsp 48 +
STACK CFI 2505 .cfa: $rsp 8 +
STACK CFI INIT 2506 7c .cfa: $rsp 8 + .ra: .cfa -8 + ^
STACK CFI 2507 .cfa: $rsp 16 + $rbx: .cfa -16 + ^
STACK CFI 250b .cfa: $rsp 80 +
STACK CFI 2580 .cfa: $rsp 16 +
STACK CFI 2581 .cfa: $rsp 8 +
STACK CFI INIT 2582 60 .cfa: $rsp 8 + .ra: .cfa -8 + ^
STACK CFI 2586 .cfa: $rsp 64 +
STACK CFI 25e1 .cfa: $rsp 8 +
STACK CFI INIT 25e2 56 .cfa: $rsp 8 + .ra: .cfa -8 + ^
STACK CFI 25e6 .cfa: $rsp 48 +
STACK CFI 2637 .cfa: $rsp 8 +
STACK CFI INIT 2638 60 .cfa: $rsp 8 + .ra: .cfa -8 + ^
STACK CFI 263c .cfa: $rsp 64 +
STACK CFI 2697 .cfa: $rsp 8 +
STACK CFI INIT 2698 6e .cfa: $rsp 8 + .ra: .cfa -8 + ^
STACK CFI 269c .cfa: $rsp 64 +
STACK CFI 2705 .cfa: $rsp 8 +
STACK CFI INIT 2706 2d .cfa: $rsp 8 + .ra: .cfa -8 + ^
STACK CFI 270a .cfa: $rsp 32 +
STACK CFI 2732 .cfa: $rsp 8 +
STACK CFI INIT 2733 92 .cfa: $rsp 8 + .ra: .cfa -8 + ^
STACK CFI 2735 .cfa: $rsp 16 + $r12: .cfa -16 + ^
STACK CFI 2736 .cfa: $rsp 24 + $rbp: .cfa -24 + ^
STACK CFI 2737 .cfa: $rsp 32 + $rbx: .cfa -32 + ^
STACK CFI 273b .cfa: $rsp 96 +
STACK CFI 27c0 .cfa: $rsp 32 +
STACK CFI 27c1 .cfa: $rsp 24 +
STACK CFI 27c2 .cfa: $rsp 16 +
STACK CFI 27c4 .cfa: $rsp 8 +
STACK CFI INIT 27c5 4e .cfa: $rsp 8 + .ra: .cfa -8 + ^
STACK CFI 27c9 .cfa: $rsp 48 +
STACK CFI 2812 .cfa: $rsp 8 +
STACK CFI INIT 2813 24 .cfa: $rsp 8 + .ra: .cfa -8 + ^
STACK CFI 2817 .cfa: $rsp 32 +
STACK CFI 2836 .cfa: $rsp 8 +
STACK CFI INIT 443c 53 .cfa: $rsp 8 + .ra: .cfa -8 + ^
STACK CFI 4440 .cfa: $rsp 32 +
STACK CFI 448e .cfa: $rsp 8 +
STACK CFI INIT 4490 1c .cfa: $rsp 8 + .ra: .cfa -8 + ^
STACK CFI 4494 .cfa: $rsp 32 +
STACK CFI 44ab .cfa: $rsp 8 +
STACK CFI INIT 44ac 1a1 .cfa: $rsp 8 + .ra: .cfa -8 + ^
STACK CFI 44b0 .cfa: $rsp 64 +
STACK CFI 464c .cfa: $rsp 8 +
STACK CFI INIT 464e aa .cfa: $rsp 8 + .ra: .cfa -8 + ^
STACK CFI 4652 .cfa: $rsp 48 +
STACK CFI 46f7 .cfa: $rsp 8 +
STACK CFI INIT 46f8 63 .cfa: $rsp 8 + .ra: .cfa -8 + ^
STACK CFI 46fc .cfa: $rsp 48 +
STACK CFI 475a .cfa: $rsp 8 +
STACK CFI INIT 475c 1b .cfa: $rsp 8 + .ra: .cfa -8 + ^
STACK CFI INIT 4778 25 .cfa: $rsp 8 + .ra: .cfa -8 + ^
STACK CFI 477c .cfa: $rsp 32 +
STACK CFI 479c .cfa: $rsp 8 +
STACK CFI INIT 2837 32 .cfa: $rsp 8 + .ra: .cfa -8 + ^
STACK CFI 283b .cfa: $rsp 32 +
STACK CFI 2868 .cfa: $rsp 8 +
STACK CFI INIT 2869 169 .cfa: $rsp 8 + .ra: .cfa -8 + ^
STACK CFI 286d .cfa: $rsp 32 +
STACK CFI 29d1 .cfa: $rsp 8 +
STACK CFI INIT 29d2 d6 .cfa: $rsp 8 + .ra: .cfa -8 + ^
STACK CFI 29d6 .cfa: $rsp 80 +
STACK CFI 2aa7 .cfa: $rsp 8 +
STACK CFI INIT 2aa8 1e .cfa: $rsp 8 + .ra: .cfa -8 + ^
STACK CFI 2aac .cfa: $rsp 32 +
STACK CFI 2ac5 .cfa: $rsp 8 +
STACK CFI INIT 479e 1c .cfa: $rsp 8 + .ra: .cfa -8 + ^
STACK CFI 47a2 .cfa: $rsp 32 +
STACK CFI 47b9 .cfa: $rsp 8 +
STACK CFI INIT 47ba 1c .cfa: $rsp 8 + .ra: .cfa -8 + ^
STACK CFI 47be .cfa: $rsp 32 +
STACK CFI 47d5 .cfa: $rsp 8 +
STACK CFI INIT 2ac6 250 .cfa: $rsp 8 + .ra: .cfa -8 + ^
STACK CFI 2ac7 .cfa: $rsp 16 + $rbx: .cfa -16 + ^
STACK CFI 2acb .cfa: $rsp 80 +
STACK CFI 2d14 .cfa: $rsp 16 +
STACK CFI 2d15 .cfa: $rsp 8 +
STACK CFI INIT 2d16 14c .cfa: $rsp 8 + .ra: .cfa -8 + ^
STACK CFI 2d17 .cfa: $rsp 16 + $rbx: .cfa -16 + ^
STACK CFI 2d1b .cfa: $rsp 64 +
STACK CFI 2e60 .cfa: $rsp 16 +
STACK CFI 2e61 .cfa: $rsp 8 +
STACK CFI INIT 2e62 193 .cfa: $rsp 8 + .ra: .cfa -8 + ^
STACK CFI 2e69 .cfa: $rsp 192 +
STACK CFI 2ff4 .cfa: $rsp 8 +
STACK CFI INIT 2ff6 b8 .cfa: $rsp 8 + .ra: .cfa -8 + ^
STACK CFI 2ffa .cfa: $rsp 32 +
STACK CFI 30ad .cfa: $rsp 8 +
STACK CFI INIT 30ae 21e .cfa: $rsp 8 + .ra: .cfa -8 + ^
STACK CFI 30af .cfa: $rsp 16 + $rbx: .cfa -16 + ^
STACK CFI 30b6 .cfa: $rsp 224 +
STACK CFI 32ca .cfa: $rsp 16 +
STACK CFI 32cb .cfa: $rsp 8 +
STACK CFI INIT 32cc 85 .cfa: $rsp 8 + .ra: .cfa -8 + ^
STACK CFI 32d0 .cfa: $rsp 48 +
STACK CFI 3350 .cfa: $rsp 8 +
STACK CFI INIT 3352 1db .cfa: $rsp 8 + .ra: .cfa -8 + ^
STACK CFI 3353 .cfa: $rsp 16 + $rbx: .cfa -16 + ^
STACK CFI 3357 .cfa: $rsp 64 +
STACK CFI 352b .cfa: $rsp 16 +
STACK CFI 352c .cfa: $rsp 8 +
STACK CFI INIT 352e 97 .cfa: $rsp 8 + .ra: .cfa -8 + ^
STACK CFI 3535 .cfa: $rsp 1104 +
STACK CFI 35c4 .cfa: $rsp 8 +
STACK CFI INIT 35c6 3ab .cfa: $rsp 8 + .ra: .cfa -8 + ^
STACK CFI 35c7 .cfa: $rsp 16 + $rbx: .cfa -16 + ^
STACK CFI 35ce .cfa: $rsp 160 +
STACK CFI 3766 .cfa: $rsp 168 +
STACK CFI 3768 .cfa: $rsp 176 +
STACK CFI 3792 .cfa: $rsp 160 +
STACK CFI 396f .cfa: $rsp 16 +
STACK CFI 3970 .cfa: $rsp 8 +
STACK CFI INIT 3972 b1 .cfa: $rsp 8 + .ra: .cfa -8 + ^
STACK CFI 3973 .cfa: $rsp 16 + $rbx: .cfa -16 + ^
STACK CFI 3977 .cfa: $rsp 48 +
STACK CFI 3a21 .cfa: $rsp 16 +
STACK CFI 3a22 .cfa: $rsp 8 +
STACK CFI INIT 3a24 d7 .cfa: $rsp 8 + .ra: .cfa -8 + ^
STACK CFI 3a25 .cfa: $rsp 16 + $rbx: .cfa -16 + ^
STACK CFI 3a29 .cfa: $rsp 64 +
STACK CFI 3af9 .cfa: $rsp 16 +
STACK CFI 3afa .cfa: $rsp 8 +
STACK CFI INIT 3afc 1d5 .cfa: $rsp 8 + .ra: .cfa -8 + ^
STACK CFI 3afe .cfa: $rsp 16 + $r14: .cfa -16 + ^
STACK CFI 3b00 .cfa: $rsp 24 + $r13: .cfa -24 + ^
STACK CFI 3b02 .cfa: $rsp 32 + $r12: .cfa -32 + ^
STACK CFI 3b03 .cfa: $rsp 40 + $rbp: .cfa -40 + ^
STACK CFI 3b04 .cfa: $rsp 48 + $rbx: .cfa -48 + ^
STACK CFI 3b08 .cfa: $rsp 96 +
STACK CFI 3bae .cfa: $rsp 104 +
STACK CFI 3baf .cfa: $rsp 112 +
STACK CFI 3bbd .cfa: $rsp 96 +
STACK CFI 3c2e .cfa: $rsp 104 +
STACK CFI 3c32 .cfa: $rsp 112 +
STACK CFI 3c33 .cfa: $rsp 120 +
STACK CFI 3c35 .cfa: $rsp 128 +
STACK CFI 3c4c .cfa: $rsp 96 +
STACK CFI 3ca6 .cfa: $rsp 104 +
STACK CFI 3caa .cfa: $rsp 112 +
STACK CFI 3cab .cfa: $rsp 120 +
STACK CFI 3cad .cfa: $rsp 128 +
STACK CFI 3cc4 .cfa: $rsp 96 +
STACK CFI 3cc8 .cfa: $rsp 48 +
STACK CFI 3cc9 .cfa: $rsp 40 +
STACK CFI 3cca .cfa: $rsp 32 +
STACK CFI 3ccc .cfa: $rsp 24 +
STACK CFI 3cce .cfa: $rsp 16 +
STACK CFI 3cd0 .cfa: $rsp 8 +
STACK CFI INIT 3cd2 106 .cfa: $rsp 8 + .ra: .cfa -8 + ^
STACK CFI 3cd3 .cfa: $rsp 16 + $rbp: .cfa -16 + ^
STACK CFI 3cd6 .cfa: $rbp 16 +
STACK CFI 3cde $rbx: .cfa -24 + ^
STACK CFI 3dd7 .cfa: $rsp 8 +
STACK CFI INIT 3dd8 1c0 .cfa: $rsp 8 + .ra: .cfa -8 + ^
STACK CFI 3ddf .cfa: $rsp 1648 +
STACK CFI 3f97 .cfa: $rsp 8 +
STACK CFI INIT 3f98 103 .cfa: $rsp 8 + .ra: .cfa -8 + ^
STACK CFI 3f99 .cfa: $rsp 16 + $rbx: .cfa -16 + ^
STACK CFI 3fa0 .cfa: $rsp 688 +
STACK CFI 4099 .cfa: $rsp 16 +
STACK CFI 409a .cfa: $rsp 8 +
STACK CFI INIT 409c e7 .cfa: $rsp 8 + .ra: .cfa -8 + ^
STACK CFI 409d .cfa: $rsp 16 + $rbx: .cfa -16 + ^
STACK CFI 40a1 .cfa: $rsp 96 +
STACK CFI 4181 .cfa: $rsp 16 +
STACK CFI 4182 .cfa: $rsp 8 +
STACK CFI INIT 4184 de .cfa: $rsp 8 + .ra: .cfa -8 + ^
STACK CFI 4185 .cfa: $rsp 16 + $rbx: .cfa -16 + ^
STACK CFI 4189 .cfa: $rsp 64 +
STACK CFI 4260 .cfa: $rsp 16 +
STACK CFI 4261 .cfa: $rsp 8 +
STACK CFI INIT 4262 f9 .cfa: $rsp 8 + .ra: .cfa -8 + ^
STACK CFI 4263 .cfa: $rsp 16 + $rbx: .cfa -16 + ^
STACK CFI 426a .cfa: $rsp 192 +
STACK CFI 4359 .cfa: $rsp 16 +
STACK CFI 435a .cfa: $rsp 8 +
STACK CFI INIT 435b 13 .cfa: $rsp 8 + .ra: .cfa -8 + ^
STACK CFI INIT 47d6 59 .cfa: $rsp 8 + .ra: .cfa -8 + ^
STACK CFI 47da .cfa: $rsp 32 +
STACK CFI 482e .cfa: $rsp 8 +
STACK CFI INIT 4830 e .cfa: $rsp 8 + .ra: .cfa -8 + ^
STACK CFI INIT 483e 29 .cfa: $rsp 8 + .ra: .cfa -8 + ^
STACK CFI INIT 4868 19 .cfa: $rsp 8 + .ra: .cfa -8 + ^
STACK CFI INIT 4882 3b .cfa: $rsp 8 + .ra: .cfa -8 + ^
STACK CFI 4886 .cfa: $rsp 32 +
STACK CFI 48bc .cfa: $rsp 8 +
STACK CFI INIT 48be 1c .cfa: $rsp 8 + .ra: .cfa -8 + ^
STACK CFI 48c2 .cfa: $rsp 32 +
STACK CFI 48d9 .cfa: $rsp 8 +
STACK CFI INIT 48da 1c .cfa: $rsp 8 + .ra: .cfa -8 + ^
STACK CFI 48de .cfa: $rsp 32 +
STACK CFI 48f5 .cfa: $rsp 8 +
STACK CFI INIT 48f6 29 .cfa: $rsp 8 + .ra: .cfa -8 + ^
STACK CFI 48fa .cfa: $rsp 32 +
STACK CFI 491e .cfa: $rsp 8 +
STACK CFI INIT 4920 1c .cfa: $rsp 8 + .ra: .cfa -8 + ^
STACK CFI 4924 .cfa: $rsp 32 +
STACK CFI 493b .cfa: $rsp 8 +
STACK CFI INIT 493c 1c .cfa: $rsp 8 + .ra: .cfa -8 + ^
STACK CFI 4940 .cfa: $rsp 32 +
STACK CFI 4957 .cfa: $rsp 8 +
STACK CFI INIT 4958 29 .cfa: $rsp 8 + .ra: .cfa -8 + ^
STACK CFI 495c .cfa: $rsp 32 +
STACK CFI 4980 .cfa: $rsp 8 +
STACK CFI INIT 4982 1c .cfa: $rsp 8 + .ra: .cfa -8 + ^
STACK CFI 4986 .cfa: $rsp 32 +
STACK CFI 499d .cfa: $rsp 8 +
STACK CFI INIT 499e b .cfa: $rsp 8 + .ra: .cfa -8 + ^
STACK CFI INIT 49aa 32 .cfa: $rsp 8 + .ra: .cfa -8 + ^
STACK CFI 49ae .cfa: $rsp 32 +
STACK CFI 49db .cfa: $rsp 8 +
STACK CFI INIT 49dc 4d .cfa: $rsp 8 + .ra: .cfa -8 + ^
STACK CFI 49e0 .cfa: $rsp 48 +
STACK CFI 4a28 .cfa: $rsp 8 +
STACK CFI INIT 4a2a 51 .cfa: $rsp 8 + .ra: .cfa -8 + ^
STACK CFI 4a2e .cfa: $rsp 48 +
STACK CFI 4a7a .cfa: $rsp 8 +
STACK CFI INIT 4a7b 3b .cfa: $rsp 8 + .ra: .cfa -8 + ^
STACK CFI 4a7f .cfa: $rsp 48 +
STACK CFI 4ab5 .cfa: $rsp 8 +
STACK CFI INIT 4ab6 2a .cfa: $rsp 8 + .ra: .cfa -8 + ^
STACK CFI 4aba .cfa: $rsp 32 +
STACK CFI 4adf .cfa: $rsp 8 +
STACK CFI INIT 4ae0 96 .cfa: $rsp 8 + .ra: .cfa -8 + ^
STACK CFI 4ae1 .cfa: $rsp 16 + $rbx: .cfa -16 + ^
STACK CFI 4ae5 .cfa: $rsp 64 +
STACK CFI 4b74 .cfa: $rsp 16 +
STACK CFI 4b75 .cfa: $rsp 8 +
STACK CFI INIT 4b76 6c .cfa: $rsp 8 + .ra: .cfa -8 + ^
STACK CFI 4b7a .cfa: $rsp 64 +
STACK CFI 4be1 .cfa: $rsp 8 +
STACK CFI INIT 4be2 48 .cfa: $rsp 8 + .ra: .cfa -8 + ^
STACK CFI 4be6 .cfa: $rsp 32 +
STACK CFI 4c29 .cfa: $rsp 8 +
STACK CFI INIT 4c2a 24 .cfa: $rsp 8 + .ra: .cfa -8 + ^
STACK CFI INIT 4c4e 1f .cfa: $rsp 8 + .ra: .cfa -8 + ^
STACK CFI INIT 4c6e 42 .cfa: $rsp 8 + .ra: .cfa -8 + ^
STACK CFI 4c72 .cfa: $rsp 32 +
STACK CFI 4caf .cfa: $rsp 8 +
STACK CFI INIT 4cb0 7 .cfa: $rsp 8 + .ra: .cfa -8 + ^
STACK CFI INIT 4cb8 37 .cfa: $rsp 8 + .ra: .cfa -8 + ^
STACK CFI 4cbc .cfa: $rsp 32 +
STACK CFI 4cee .cfa: $rsp 8 +
STACK CFI INIT 4cf0 50 .cfa: $rsp 8 + .ra: .cfa -8 + ^
STACK CFI 4cf4 .cfa: $rsp 48 +
STACK CFI 4d3f .cfa: $rsp 8 +
STACK CFI INIT 4d40 4d .cfa: $rsp 8 + .ra: .cfa -8 + ^
STACK CFI 4d44 .cfa: $rsp 48 +
STACK CFI 4d8c .cfa: $rsp 8 +
STACK CFI INIT 4d8d 3b .cfa: $rsp 8 + .ra: .cfa -8 + ^
STACK CFI 4d91 .cfa: $rsp 48 +
STACK CFI 4dc7 .cfa: $rsp 8 +
STACK CFI INIT 4dc8 21 .cfa: $rsp 8 + .ra: .cfa -8 + ^
STACK CFI INIT 4dea 37 .cfa: $rsp 8 + .ra: .cfa -8 + ^
STACK CFI 4dee .cfa: $rsp 32 +
STACK CFI 4e20 .cfa: $rsp 8 +
STACK CFI INIT 4e22 1c .cfa: $rsp 8 + .ra: .cfa -8 + ^
STACK CFI INIT 4e3e 71 .cfa: $rsp 8 + .ra: .cfa -8 + ^
STACK CFI 4e42 .cfa: $rsp 48 +
STACK CFI 4eae .cfa: $rsp 8 +
STACK CFI INIT 4eb0 29 .cfa: $rsp 8 + .ra: .cfa -8 + ^
STACK CFI 4eb4 .cfa: $rsp 32 +
STACK CFI 4ed8 .cfa: $rsp 8 +
STACK CFI INIT 4eda 1c .cfa: $rsp 8 + .ra: .cfa -8 + ^
STACK CFI 4ede .cfa: $rsp 32 +
STACK CFI 4ef5 .cfa: $rsp 8 +
STACK CFI INIT 4ef6 76 .cfa: $rsp 8 + .ra: .cfa -8 + ^
STACK CFI 4efa .cfa: $rsp 48 +
STACK CFI 4f6b .cfa: $rsp 8 +
STACK CFI INIT 4f6c 29 .cfa: $rsp 8 + .ra: .cfa -8 + ^
STACK CFI 4f70 .cfa: $rsp 32 +
STACK CFI 4f94 .cfa: $rsp 8 +
STACK CFI INIT 4f96 1c .cfa: $rsp 8 + .ra: .cfa -8 + ^
STACK CFI 4f9a .cfa: $rsp 32 +
STACK CFI 4fb1 .cfa: $rsp 8 +
STACK CFI INIT 4fb2 76 .cfa: $rsp 8 + .ra: .cfa -8 + ^
STACK CFI 4fb6 .cfa: $rsp 48 +
STACK CFI 5027 .cfa: $rsp 8 +
STACK CFI INIT 5028 1c .cfa: $rsp 8 + .ra: .cfa -8 + ^
STACK CFI 502c .cfa: $rsp 32 +
STACK CFI 5043 .cfa: $rsp 8 +
STACK CFI INIT 5044 1c .cfa: $rsp 8 + .ra: .cfa -8 + ^
STACK CFI 5048 .cfa: $rsp 32 +
STACK CFI 505f .cfa: $rsp 8 +
STACK CFI INIT 5060 55 .cfa: $rsp 8 + .ra: .cfa -8 + ^
STACK CFI 5064 .cfa: $rsp 32 +
STACK CFI 50b4 .cfa: $rsp 8 +
STACK CFI INIT 50b5 b .cfa: $rsp 8 + .ra: .cfa -8 + ^
STACK CFI INIT 50c0 89 .cfa: $rsp 8 + .ra: .cfa -8 + ^
STACK CFI 50c4 .cfa: $rsp 32 +
STACK CFI 5148 .cfa: $rsp 8 +
STACK CFI INIT 514a 1c .cfa: $rsp 8 + .ra: .cfa -8 + ^
STACK CFI INIT 5166 4d .cfa: $rsp 8 + .ra: .cfa -8 + ^
STACK CFI 516a .cfa: $rsp 48 +
STACK CFI 51b2 .cfa: $rsp 8 +
STACK CFI INIT 51b3 6d .cfa: $rsp 8 + .ra: .cfa -8 + ^
STACK CFI 51b4 .cfa: $rsp 16 + $rbx: .cfa -16 + ^
STACK CFI 51b8 .cfa: $rsp 80 +
STACK CFI 51f5 .cfa: $rsp 88 +
STACK CFI 51f6 .cfa: $rsp 96 +
STACK CFI 5205 .cfa: $rsp 80 +
STACK CFI 521e .cfa: $rsp 16 +
STACK CFI 521f .cfa: $rsp 8 +
STACK CFI INIT 5220 b .cfa: $rsp 8 + .ra: .cfa -8 + ^
STACK CFI INIT 522c 5a .cfa: $rsp 8 + .ra: .cfa -8 + ^
STACK CFI 5230 .cfa: $rsp 64 +
STACK CFI 5285 .cfa: $rsp 8 +
STACK CFI INIT 5286 40 .cfa: $rsp 8 + .ra: .cfa -8 + ^
STACK CFI 5287 .cfa: $rsp 16 + $rbx: .cfa -16 + ^
STACK CFI 528b .cfa: $rsp 32 +
STACK CFI 52c4 .cfa: $rsp 16 +
STACK CFI 52c5 .cfa: $rsp 8 +
STACK CFI INIT 52c6 69 .cfa: $rsp 8 + .ra: .cfa -8 + ^
STACK CFI 52ca .cfa: $rsp 64 +
STACK CFI 532e .cfa: $rsp 8 +
STACK CFI INIT 5330 e1 .cfa: $rsp 8 + .ra: .cfa -8 + ^
STACK CFI 5331 .cfa: $rsp 16 + $rbx: .cfa -16 + ^
STACK CFI 5335 .cfa: $rsp 64 +
STACK CFI 540f .cfa: $rsp 16 +
STACK CFI 5410 .cfa: $rsp 8 +
STACK CFI INIT 5412 5a .cfa: $rsp 8 + .ra: .cfa -8 + ^
STACK CFI 5416 .cfa: $rsp 64 +
STACK CFI 546b .cfa: $rsp 8 +
STACK CFI INIT 546c 5b .cfa: $rsp 8 + .ra: .cfa -8 + ^
STACK CFI 5470 .cfa: $rsp 64 +
STACK CFI 54c6 .cfa: $rsp 8 +
STACK CFI INIT 54c7 39 .cfa: $rsp 8 + .ra: .cfa -8 + ^
STACK CFI 54c8 .cfa: $rsp 16 + $rbx: .cfa -16 + ^
STACK CFI 54cc .cfa: $rsp 32 +
STACK CFI 54fe .cfa: $rsp 16 +
STACK CFI 54ff .cfa: $rsp 8 +
STACK CFI INIT 5500 b .cfa: $rsp 8 + .ra: .cfa -8 + ^
STACK CFI INIT 550b 2e .cfa: $rsp 8 + .ra: .cfa -8 + ^
STACK CFI 550f .cfa: $rsp 48 +
STACK CFI 5538 .cfa: $rsp 8 +
STACK CFI INIT 553a 4d .cfa: $rsp 8 + .ra: .cfa -8 + ^
STACK CFI 553e .cfa: $rsp 48 +
STACK CFI 5586 .cfa: $rsp 8 +
STACK CFI INIT 5587 b .cfa: $rsp 8 + .ra: .cfa -8 + ^
STACK CFI INIT 5592 65 .cfa: $rsp 8 + .ra: .cfa -8 + ^
STACK CFI 5596 .cfa: $rsp 64 +
STACK CFI 55f6 .cfa: $rsp 8 +
STACK CFI INIT 55f8 19 .cfa: $rsp 8 + .ra: .cfa -8 + ^
STACK CFI INIT 5611 4d .cfa: $rsp 8 + .ra: .cfa -8 + ^
STACK CFI 5615 .cfa: $rsp 48 +
STACK CFI 565d .cfa: $rsp 8 +
STACK CFI INIT 565e 6d .cfa: $rsp 8 + .ra: .cfa -8 + ^
STACK CFI 565f .cfa: $rsp 16 + $rbx: .cfa -16 + ^
STACK CFI 5663 .cfa: $rsp 80 +
STACK CFI 56a0 .cfa: $rsp 88 +
STACK CFI 56a1 .cfa: $rsp 96 +
STACK CFI 56b0 .cfa: $rsp 80 +
STACK CFI 56c9 .cfa: $rsp 16 +
STACK CFI 56ca .cfa: $rsp 8 +
STACK CFI INIT 56cb b .cfa: $rsp 8 + .ra: .cfa -8 + ^
STACK CFI INIT 56d6 65 .cfa: $rsp 8 + .ra: .cfa -8 + ^
STACK CFI 56da .cfa: $rsp 64 +
STACK CFI 573a .cfa: $rsp 8 +
STACK CFI INIT 573c 6f .cfa: $rsp 8 + .ra: .cfa -8 + ^
STACK CFI 5740 .cfa: $rsp 48 +
STACK CFI 57aa .cfa: $rsp 8 +
STACK CFI INIT 57ac 50 .cfa: $rsp 8 + .ra: .cfa -8 + ^
STACK CFI 57b0 .cfa: $rsp 48 +
STACK CFI 57fb .cfa: $rsp 8 +
STACK CFI INIT 57fc 29 .cfa: $rsp 8 + .ra: .cfa -8 + ^
STACK CFI 5800 .cfa: $rsp 32 +
STACK CFI 5824 .cfa: $rsp 8 +
STACK CFI INIT 5826 3c .cfa: $rsp 8 + .ra: .cfa -8 + ^
STACK CFI 582a .cfa: $rsp 32 +
STACK CFI 5861 .cfa: $rsp 8 +
STACK CFI INIT 5862 7 .cfa: $rsp 8 + .ra: .cfa -8 + ^
STACK CFI INIT 586a b .cfa: $rsp 8 + .ra: .cfa -8 + ^
STACK CFI INIT 5876 c .cfa: $rsp 8 + .ra: .cfa -8 + ^
STACK CFI INIT 5882 2c .cfa: $rsp 8 + .ra: .cfa -8 + ^
STACK CFI 5886 .cfa: $rsp 32 +
STACK CFI 58ad .cfa: $rsp 8 +
STACK CFI INIT 58ae 29 .cfa: $rsp 8 + .ra: .cfa -8 + ^
STACK CFI 58b2 .cfa: $rsp 32 +
STACK CFI 58d6 .cfa: $rsp 8 +
STACK CFI INIT 58d8 3c .cfa: $rsp 8 + .ra: .cfa -8 + ^
STACK CFI 58dc .cfa: $rsp 32 +
STACK CFI 5913 .cfa: $rsp 8 +
STACK CFI INIT 5914 7 .cfa: $rsp 8 + .ra: .cfa -8 + ^
STACK CFI INIT 591c b .cfa: $rsp 8 + .ra: .cfa -8 + ^
STACK CFI INIT 5928 c .cfa: $rsp 8 + .ra: .cfa -8 + ^
STACK CFI INIT 5934 2c .cfa: $rsp 8 + .ra: .cfa -8 + ^
STACK CFI 5938 .cfa: $rsp 32 +
STACK CFI 595f .cfa: $rsp 8 +
STACK CFI INIT 5960 42 .cfa: $rsp 8 + .ra: .cfa -8 + ^
STACK CFI 5964 .cfa: $rsp 32 +
STACK CFI 59a1 .cfa: $rsp 8 +
STACK CFI INIT 59a2 1c .cfa: $rsp 8 + .ra: .cfa -8 + ^
STACK CFI 59a6 .cfa: $rsp 32 +
STACK CFI 59bd .cfa: $rsp 8 +
STACK CFI INIT 59be 3b .cfa: $rsp 8 + .ra: .cfa -8 + ^
STACK CFI 59c2 .cfa: $rsp 48 +
STACK CFI 59f8 .cfa: $rsp 8 +
STACK CFI INIT 59f9 3e .cfa: $rsp 8 + .ra: .cfa -8 + ^
STACK CFI 59fd .cfa: $rsp 48 +
STACK CFI 5a36 .cfa: $rsp 8 +
STACK CFI INIT 5a38 211 .cfa: $rsp 8 + .ra: .cfa -8 + ^
STACK CFI 5a39 .cfa: $rsp 16 + $rbx: .cfa -16 + ^
STACK CFI 5a3d .cfa: $rsp 64 +
STACK CFI 5c47 .cfa: $rsp 16 +
STACK CFI 5c48 .cfa: $rsp 8 +
STACK CFI INIT 5c4a 19 .cfa: $rsp 8 + .ra: .cfa -8 + ^
STACK CFI INIT 5c63 6 .cfa: $rsp 8 + .ra: .cfa -8 + ^
STACK CFI INIT 5c69 1b6 .cfa: $rsp 8 + .ra: .cfa -8 + ^
STACK CFI 5c6d .cfa: $rsp 80 +
STACK CFI 5e1e .cfa: $rsp 8 +
STACK CFI INIT 5e20 1c .cfa: $rsp 8 + .ra: .cfa -8 + ^
STACK CFI INIT 5e3c b .cfa: $rsp 8 + .ra: .cfa -8 + ^
STACK CFI INIT 5e47 39 .cfa: $rsp 8 + .ra: .cfa -8 + ^
STACK CFI 5e48 .cfa: $rsp 16 + $rbx: .cfa -16 + ^
STACK CFI 5e4c .cfa: $rsp 32 +
STACK CFI 5e7e .cfa: $rsp 16 +
STACK CFI 5e7f .cfa: $rsp 8 +
STACK CFI INIT 5e80 4b .cfa: $rsp 8 + .ra: .cfa -8 + ^
STACK CFI 5e81 .cfa: $rsp 16 + $rbx: .cfa -16 + ^
STACK CFI 5e85 .cfa: $rsp 64 +
STACK CFI 5ec9 .cfa: $rsp 16 +
STACK CFI 5eca .cfa: $rsp 8 +
STACK CFI INIT 5ecb 27 .cfa: $rsp 8 + .ra: .cfa -8 + ^
STACK CFI 5ecf .cfa: $rsp 32 +
STACK CFI 5ef1 .cfa: $rsp 8 +
STACK CFI INIT 5ef2 27 .cfa: $rsp 8 + .ra: .cfa -8 + ^
STACK CFI 5ef6 .cfa: $rsp 32 +
STACK CFI 5f18 .cfa: $rsp 8 +
STACK CFI INIT 5f1a 19 .cfa: $rsp 8 + .ra: .cfa -8 + ^
STACK CFI INIT 5f34 94 .cfa: $rsp 8 + .ra: .cfa -8 + ^
STACK CFI 5f35 .cfa: $rsp 16 + $rbx: .cfa -16 + ^
STACK CFI 5f39 .cfa: $rsp 48 +
STACK CFI 5fc6 .cfa: $rsp 16 +
STACK CFI 5fc7 .cfa: $rsp 8 +
STACK CFI INIT 5fc8 26 .cfa: $rsp 8 + .ra: .cfa -8 + ^
STACK CFI INIT 5fee 19 .cfa: $rsp 8 + .ra: .cfa -8 + ^
STACK CFI INIT 6007 6 .cfa: $rsp 8 + .ra: .cfa -8 + ^
STACK CFI INIT 600d 6e .cfa: $rsp 8 + .ra: .cfa -8 + ^
STACK CFI 6011 .cfa: $rsp 64 +
STACK CFI 607a .cfa: $rsp 8 +
STACK CFI INIT 607c 94 .cfa: $rsp 8 + .ra: .cfa -8 + ^
STACK CFI 607d .cfa: $rsp 16 + $rbx: .cfa -16 + ^
STACK CFI 6081 .cfa: $rsp 48 +
STACK CFI 610e .cfa: $rsp 16 +
STACK CFI 610f .cfa: $rsp 8 +
STACK CFI INIT 6110 26 .cfa: $rsp 8 + .ra: .cfa -8 + ^
STACK CFI INIT 6136 26 .cfa: $rsp 8 + .ra: .cfa -8 + ^
STACK CFI INIT 615c 1c .cfa: $rsp 8 + .ra: .cfa -8 + ^
STACK CFI 6160 .cfa: $rsp 32 +
STACK CFI 6177 .cfa: $rsp 8 +
STACK CFI INIT 6178 2d .cfa: $rsp 8 + .ra: .cfa -8 + ^
STACK CFI INIT 61a6 1a .cfa: $rsp 8 + .ra: .cfa -8 + ^
STACK CFI INIT 61c0 26 .cfa: $rsp 8 + .ra: .cfa -8 + ^
STACK CFI 61c4 .cfa: $rsp 48 +
STACK CFI 61e5 .cfa: $rsp 8 +
STACK CFI INIT 61e6 1c .cfa: $rsp 8 + .ra: .cfa -8 + ^
STACK CFI 61ea .cfa: $rsp 32 +
STACK CFI 6201 .cfa: $rsp 8 +
STACK CFI INIT 6202 1a .cfa: $rsp 8 + .ra: .cfa -8 + ^
STACK CFI INIT 621c 26 .cfa: $rsp 8 + .ra: .cfa -8 + ^
STACK CFI 6220 .cfa: $rsp 48 +
STACK CFI 6241 .cfa: $rsp 8 +
STACK CFI INIT 6242 1c .cfa: $rsp 8 + .ra: .cfa -8 + ^
STACK CFI 6246 .cfa: $rsp 32 +
STACK CFI 625d .cfa: $rsp 8 +
STACK CFI INIT 625e 7 .cfa: $rsp 8 + .ra: .cfa -8 + ^
STACK CFI INIT 6265 33 .cfa: $rsp 8 + .ra: .cfa -8 + ^
STACK CFI 6269 .cfa: $rsp 48 +
STACK CFI 6297 .cfa: $rsp 8 +
STACK CFI INIT 6298 45 .cfa: $rsp 8 + .ra: .cfa -8 + ^
STACK CFI 6299 .cfa: $rsp 16 + $rbx: .cfa -16 + ^
STACK CFI 629d .cfa: $rsp 48 +
STACK CFI 62db .cfa: $rsp 16 +
STACK CFI 62dc .cfa: $rsp 8 +
STACK CFI INIT 62de fc .cfa: $rsp 8 + .ra: .cfa -8 + ^
STACK CFI 62df .cfa: $rsp 16 + $rbx: .cfa -16 + ^
STACK CFI 62e3 .cfa: $rsp 80 +
STACK CFI 63d8 .cfa: $rsp 16 +
STACK CFI 63d9 .cfa: $rsp 8 +
STACK CFI INIT 63da 34 .cfa: $rsp 8 + .ra: .cfa -8 + ^
STACK CFI 63de .cfa: $rsp 32 +
STACK CFI 640d .cfa: $rsp 8 +
STACK CFI INIT 640e 55 .cfa: $rsp 8 + .ra: .cfa -8 + ^
STACK CFI 640f .cfa: $rsp 16 + $rbx: .cfa -16 + ^
STACK CFI 6413 .cfa: $rsp 48 +
STACK CFI 6461 .cfa: $rsp 16 +
STACK CFI 6462 .cfa: $rsp 8 +
STACK CFI INIT 6463 40 .cfa: $rsp 8 + .ra: .cfa -8 + ^
STACK CFI 6464 .cfa: $rsp 16 + $rbx: .cfa -16 + ^
STACK CFI 6468 .cfa: $rsp 32 +
STACK CFI 64a1 .cfa: $rsp 16 +
STACK CFI 64a2 .cfa: $rsp 8 +
STACK CFI INIT 64a4 31 .cfa: $rsp 8 + .ra: .cfa -8 + ^
STACK CFI 64a8 .cfa: $rsp 32 +
STACK CFI 64d4 .cfa: $rsp 8 +
STACK CFI INIT 64d6 1f .cfa: $rsp 8 + .ra: .cfa -8 + ^
STACK CFI INIT 64f5 19 .cfa: $rsp 8 + .ra: .cfa -8 + ^
STACK CFI 64f9 .cfa: $rsp 32 +
STACK CFI 650d .cfa: $rsp 8 +
STACK CFI INIT 650e 99 .cfa: $rsp 8 + .ra: .cfa -8 + ^
STACK CFI 650f .cfa: $rsp 16 + $rbp: .cfa -16 + ^
STACK CFI 6510 .cfa: $rsp 24 + $rbx: .cfa -24 + ^
STACK CFI 6514 .cfa: $rsp 112 +
STACK CFI 65a4 .cfa: $rsp 24 +
STACK CFI 65a5 .cfa: $rsp 16 +
STACK CFI 65a6 .cfa: $rsp 8 +
STACK CFI INIT 65a8 c .cfa: $rsp 8 + .ra: .cfa -8 + ^
STACK CFI INIT 65b4 c .cfa: $rsp 8 + .ra: .cfa -8 + ^
STACK CFI INIT 65c0 25 .cfa: $rsp 8 + .ra: .cfa -8 + ^
STACK CFI 65c4 .cfa: $rsp 32 +
STACK CFI 65e4 .cfa: $rsp 8 +
STACK CFI INIT 65e6 4d .cfa: $rsp 8 + .ra: .cfa -8 + ^
STACK CFI 65e7 .cfa: $rsp 16 + $rbx: .cfa -16 + ^
STACK CFI 65eb .cfa: $rsp 48 +
STACK CFI 6631 .cfa: $rsp 16 +
STACK CFI 6632 .cfa: $rsp 8 +
STACK CFI INIT 6634 35 .cfa: $rsp 8 + .ra: .cfa -8 + ^
STACK CFI 6635 .cfa: $rsp 16 + $rbx: .cfa -16 + ^
STACK CFI 6639 .cfa: $rsp 32 +
STACK CFI 6667 .cfa: $rsp 16 +
STACK CFI 6668 .cfa: $rsp 8 +
STACK CFI INIT 666a 1e .cfa: $rsp 8 + .ra: .cfa -8 + ^
STACK CFI INIT 6688 25 .cfa: $rsp 8 + .ra: .cfa -8 + ^
STACK CFI 668c .cfa: $rsp 32 +
STACK CFI 66ac .cfa: $rsp 8 +
STACK CFI INIT 66ae 4d .cfa: $rsp 8 + .ra: .cfa -8 + ^
STACK CFI 66af .cfa: $rsp 16 + $rbx: .cfa -16 + ^
STACK CFI 66b3 .cfa: $rsp 48 +
STACK CFI 66f9 .cfa: $rsp 16 +
STACK CFI 66fa .cfa: $rsp 8 +
STACK CFI INIT 66fc 7 .cfa: $rsp 8 + .ra: .cfa -8 + ^
STACK CFI INIT 6704 7 .cfa: $rsp 8 + .ra: .cfa -8 + ^
STACK CFI INIT 670c 7 .cfa: $rsp 8 + .ra: .cfa -8 + ^
STACK CFI INIT 6714 26 .cfa: $rsp 8 + .ra: .cfa -8 + ^
STACK CFI 6718 .cfa: $rsp 48 +
STACK CFI 6739 .cfa: $rsp 8 +
STACK CFI INIT 673a 23 .cfa: $rsp 8 + .ra: .cfa -8 + ^
STACK CFI 673e .cfa: $rsp 32 +
STACK CFI 675c .cfa: $rsp 8 +
STACK CFI INIT 675d 2c .cfa: $rsp 8 + .ra: .cfa -8 + ^
STACK CFI INIT 6789 2b .cfa: $rsp 8 + .ra: .cfa -8 + ^
STACK CFI 678d .cfa: $rsp 32 +
STACK CFI 67b3 .cfa: $rsp 8 +
STACK CFI INIT 67b4 4d .cfa: $rsp 8 + .ra: .cfa -8 + ^
STACK CFI 67b8 .cfa: $rsp 48 +
STACK CFI 6800 .cfa: $rsp 8 +
STACK CFI INIT 6801 35 .cfa: $rsp 8 + .ra: .cfa -8 + ^
STACK CFI 6805 .cfa: $rsp 48 +
STACK CFI 6835 .cfa: $rsp 8 +
STACK CFI INIT 6836 e .cfa: $rsp 8 + .ra: .cfa -8 + ^
STACK CFI INIT 6844 b .cfa: $rsp 8 + .ra: .cfa -8 + ^
STACK CFI INIT 684f 19 .cfa: $rsp 8 + .ra: .cfa -8 + ^
STACK CFI 6853 .cfa: $rsp 32 +
STACK CFI 6867 .cfa: $rsp 8 +
STACK CFI INIT 6868 37 .cfa: $rsp 8 + .ra: .cfa -8 + ^
STACK CFI 686c .cfa: $rsp 64 +
STACK CFI 689e .cfa: $rsp 8 +
STACK CFI INIT 68a0 58 .cfa: $rsp 8 + .ra: .cfa -8 + ^
STACK CFI 68a4 .cfa: $rsp 48 +
STACK CFI 68f7 .cfa: $rsp 8 +
STACK CFI INIT 68f8 55 .cfa: $rsp 8 + .ra: .cfa -8 + ^
STACK CFI 68fc .cfa: $rsp 32 +
STACK CFI 694c .cfa: $rsp 8 +
STACK CFI INIT 694e 12 .cfa: $rsp 8 + .ra: .cfa -8 + ^
STACK CFI INIT 6960 47 .cfa: $rsp 8 + .ra: .cfa -8 + ^
STACK CFI 6964 .cfa: $rsp 48 +
STACK CFI 69a6 .cfa: $rsp 8 +
STACK CFI INIT 69a8 4c .cfa: $rsp 8 + .ra: .cfa -8 + ^
STACK CFI 69ac .cfa: $rsp 32 +
STACK CFI 69f3 .cfa: $rsp 8 +
STACK CFI INIT 69f4 1b .cfa: $rsp 8 + .ra: .cfa -8 + ^
STACK CFI 69f8 .cfa: $rsp 32 +
STACK CFI 6a0e .cfa: $rsp 8 +
STACK CFI INIT 6a10 b .cfa: $rsp 8 + .ra: .cfa -8 + ^
STACK CFI INIT 6a1c 47 .cfa: $rsp 8 + .ra: .cfa -8 + ^
STACK CFI 6a20 .cfa: $rsp 48 +
STACK CFI 6a62 .cfa: $rsp 8 +
STACK CFI INIT 6a64 19 .cfa: $rsp 8 + .ra: .cfa -8 + ^
STACK CFI INIT 6a7d 35 .cfa: $rsp 8 + .ra: .cfa -8 + ^
STACK CFI 6a81 .cfa: $rsp 64 +
STACK CFI 6ab1 .cfa: $rsp 8 +
STACK CFI INIT 6ab2 1b .cfa: $rsp 8 + .ra: .cfa -8 + ^
STACK CFI 6ab6 .cfa: $rsp 32 +
STACK CFI 6acc .cfa: $rsp 8 +
STACK CFI INIT 6acd 70 .cfa: $rsp 8 + .ra: .cfa -8 + ^
STACK CFI 6ad1 .cfa: $rsp 64 +
STACK CFI 6b3c .cfa: $rsp 8 +
STACK CFI INIT 6b3e 10 .cfa: $rsp 8 + .ra: .cfa -8 + ^
STACK CFI INIT 6b4e 10 .cfa: $rsp 8 + .ra: .cfa -8 + ^
STACK CFI INIT 6b5e 10 .cfa: $rsp 8 + .ra: .cfa -8 + ^
STACK CFI INIT 6b6e 30 .cfa: $rsp 8 + .ra: .cfa -8 + ^
STACK CFI 6b72 .cfa: $rsp 48 +
STACK CFI 6b9d .cfa: $rsp 8 +
STACK CFI INIT 6b9e 4b .cfa: $rsp 8 + .ra: .cfa -8 + ^
STACK CFI 6b9f .cfa: $rsp 16 + $rbx: .cfa -16 + ^
STACK CFI 6ba3 .cfa: $rsp 48 +
STACK CFI 6be7 .cfa: $rsp 16 +
STACK CFI 6be8 .cfa: $rsp 8 +
STACK CFI INIT 6be9 19 .cfa: $rsp 8 + .ra: .cfa -8 + ^
STACK CFI 6bed .cfa: $rsp 32 +
STACK CFI 6c01 .cfa: $rsp 8 +
STACK CFI INIT 6c02 57 .cfa: $rsp 8 + .ra: .cfa -8 + ^
STACK CFI 6c03 .cfa: $rsp 16 + $rbp: .cfa -16 + ^
STACK CFI 6c04 .cfa: $rsp 24 + $rbx: .cfa -24 + ^
STACK CFI 6c08 .cfa: $rsp 64 +
STACK CFI 6c56 .cfa: $rsp 24 +
STACK CFI 6c57 .cfa: $rsp 16 +
STACK CFI 6c58 .cfa: $rsp 8 +
STACK CFI INIT 6c59 18 .cfa: $rsp 8 + .ra: .cfa -8 + ^
STACK CFI 6c5d .cfa: $rsp 32 +
STACK CFI 6c70 .cfa: $rsp 8 +
STACK CFI INIT 6c71 1b .cfa: $rsp 8 + .ra: .cfa -8 + ^
STACK CFI 6c75 .cfa: $rsp 32 +
STACK CFI 6c8b .cfa: $rsp 8 +
STACK CFI INIT 6c8c e .cfa: $rsp 8 + .ra: .cfa -8 + ^
STACK CFI INIT 6c9a b .cfa: $rsp 8 + .ra: .cfa -8 + ^
STACK CFI INIT 6ca6 10d .cfa: $rsp 8 + .ra: .cfa -8 + ^
STACK CFI 6caa .cfa: $rsp 32 +
STACK CFI 6db2 .cfa: $rsp 8 +
STACK CFI INIT 6db4 12c .cfa: $rsp 8 + .ra: .cfa -8 + ^
STACK CFI 6db8 .cfa: $rsp 32 +
STACK CFI 6edf .cfa: $rsp 8 +
STACK CFI INIT 6ee0 1f1 .cfa: $rsp 8 + .ra: .cfa -8 + ^
STACK CFI 6ee1 .cfa: $rsp 16 + $rbx: .cfa -16 + ^
STACK CFI 6ee8 .cfa: $rsp 192 +
STACK CFI 70cf .cfa: $rsp 16 +
STACK CFI 70d0 .cfa: $rsp 8 +
STACK CFI INIT 70d1 8b .cfa: $rsp 8 + .ra: .cfa -8 + ^
STACK CFI 70d2 .cfa: $rsp 16 + $rbx: .cfa -16 + ^
STACK CFI 70d6 .cfa: $rsp 64 +
STACK CFI 715a .cfa: $rsp 16 +
STACK CFI 715b .cfa: $rsp 8 +
STACK CFI INIT 715c b .cfa: $rsp 8 + .ra: .cfa -8 + ^
STACK CFI INIT 7167 4d .cfa: $rsp 8 + .ra: .cfa -8 + ^
STACK CFI 716b .cfa: $rsp 48 +
STACK CFI 71b3 .cfa: $rsp 8 +
STACK CFI INIT 71b4 60 .cfa: $rsp 8 + .ra: .cfa -8 + ^
STACK CFI 71b8 .cfa: $rsp 64 +
STACK CFI 7213 .cfa: $rsp 8 +
STACK CFI INIT 7214 28 .cfa: $rsp 8 + .ra: .cfa -8 + ^
STACK CFI 7218 .cfa: $rsp 32 +
STACK CFI 723b .cfa: $rsp 8 +
STACK CFI INIT 723c 92 .cfa: $rsp 8 + .ra: .cfa -8 + ^
STACK CFI 723e .cfa: $rsp 16 + $r12: .cfa -16 + ^
STACK CFI 723f .cfa: $rsp 24 + $rbp: .cfa -24 + ^
STACK CFI 7240 .cfa: $rsp 32 + $rbx: .cfa -32 + ^
STACK CFI 7244 .cfa: $rsp 96 +
STACK CFI 72c9 .cfa: $rsp 32 +
STACK CFI 72ca .cfa: $rsp 24 +
STACK CFI 72cb .cfa: $rsp 16 +
STACK CFI 72cd .cfa: $rsp 8 +
STACK CFI INIT 8b4e f .cfa: $rsp 8 + .ra: .cfa -8 + ^
STACK CFI INIT 8b5e f .cfa: $rsp 8 + .ra: .cfa -8 + ^
STACK CFI INIT 8b6e f .cfa: $rsp 8 + .ra: .cfa -8 + ^
STACK CFI INIT 8b7e 1a .cfa: $rsp 8 + .ra: .cfa -8 + ^
STACK CFI INIT 8b98 e .cfa: $rsp 8 + .ra: .cfa -8 + ^
STACK CFI INIT 8ba6 17 .cfa: $rsp 8 + .ra: .cfa -8 + ^
STACK CFI INIT 8bbe e .cfa: $rsp 8 + .ra: .cfa -8 + ^
STACK CFI INIT 8bcc 17 .cfa: $rsp 8 + .ra: .cfa -8 + ^
STACK CFI INIT 72ce 15b .cfa: $rsp 8 + .ra: .cfa -8 + ^
STACK CFI 72d2 .cfa: $rsp 64 +
STACK CFI 7428 .cfa: $rsp 8 +
STACK CFI INIT 742a 30 .cfa: $rsp 8 + .ra: .cfa -8 + ^
STACK CFI 742e .cfa: $rsp 32 +
STACK CFI 7459 .cfa: $rsp 8 +
STACK CFI INIT 745a b2 .cfa: $rsp 8 + .ra: .cfa -8 + ^
STACK CFI 745e .cfa: $rsp 32 +
STACK CFI 750b .cfa: $rsp 8 +
STACK CFI INIT 750c db .cfa: $rsp 8 + .ra: .cfa -8 + ^
STACK CFI 7510 .cfa: $rsp 48 +
STACK CFI 75e6 .cfa: $rsp 8 +
STACK CFI INIT 75e8 42 .cfa: $rsp 8 + .ra: .cfa -8 + ^
STACK CFI 75ec .cfa: $rsp 32 +
STACK CFI 7629 .cfa: $rsp 8 +
STACK CFI INIT 762a 30 .cfa: $rsp 8 + .ra: .cfa -8 + ^
STACK CFI 762e .cfa: $rsp 32 +
STACK CFI 7659 .cfa: $rsp 8 +
STACK CFI INIT 765a 27 .cfa: $rsp 8 + .ra: .cfa -8 + ^
STACK CFI 765e .cfa: $rsp 32 +
STACK CFI 7680 .cfa: $rsp 8 +
STACK CFI INIT 7682 60 .cfa: $rsp 8 + .ra: .cfa -8 + ^
STACK CFI 7686 .cfa: $rsp 64 +
STACK CFI 76e1 .cfa: $rsp 8 +
STACK CFI INIT 76e2 34 .cfa: $rsp 8 + .ra: .cfa -8 + ^
STACK CFI 76e6 .cfa: $rsp 32 +
STACK CFI 7715 .cfa: $rsp 8 +
STACK CFI INIT 7716 213 .cfa: $rsp 8 + .ra: .cfa -8 + ^
STACK CFI 7718 .cfa: $rsp 16 + $r12: .cfa -16 + ^
STACK CFI 7719 .cfa: $rsp 24 + $rbp: .cfa -24 + ^
STACK CFI 771a .cfa: $rsp 32 + $rbx: .cfa -32 + ^
STACK CFI 771e .cfa: $rsp 80 +
STACK CFI 7924 .cfa: $rsp 32 +
STACK CFI 7925 .cfa: $rsp 24 +
STACK CFI 7926 .cfa: $rsp 16 +
STACK CFI 7928 .cfa: $rsp 8 +
STACK CFI INIT 792a 6d .cfa: $rsp 8 + .ra: .cfa -8 + ^
STACK CFI 792e .cfa: $rsp 32 +
STACK CFI 7996 .cfa: $rsp 8 +
STACK CFI INIT 7998 6d .cfa: $rsp 8 + .ra: .cfa -8 + ^
STACK CFI 799c .cfa: $rsp 32 +
STACK CFI 7a04 .cfa: $rsp 8 +
STACK CFI INIT 7a06 c2 .cfa: $rsp 8 + .ra: .cfa -8 + ^
STACK CFI 7a0a .cfa: $rsp 32 +
STACK CFI 7ac7 .cfa: $rsp 8 +
STACK CFI INIT 7ac8 207 .cfa: $rsp 8 + .ra: .cfa -8 + ^
STACK CFI 7acf .cfa: $rsp 480 +
STACK CFI 7cce .cfa: $rsp 8 +
STACK CFI INIT 7cd0 6d .cfa: $rsp 8 + .ra: .cfa -8 + ^
STACK CFI 7cd4 .cfa: $rsp 32 +
STACK CFI 7d3c .cfa: $rsp 8 +
STACK CFI INIT 7d3e 1f3 .cfa: $rsp 8 + .ra: .cfa -8 + ^
STACK CFI 7d42 .cfa: $rsp 64 +
STACK CFI 7f30 .cfa: $rsp 8 +
STACK CFI INIT 7f32 b3 .cfa: $rsp 8 + .ra: .cfa -8 + ^
STACK CFI 7f39 .cfa: $rsp 1280 +
STACK CFI 7fe4 .cfa: $rsp 8 +
STACK CFI INIT 7fe6 10a .cfa: $rsp 8 + .ra: .cfa -8 + ^
STACK CFI 7fe7 .cfa: $rsp 16 + $rbp: .cfa -16 + ^
STACK CFI 7fe8 .cfa: $rsp 24 + $rbx: .cfa -24 + ^
STACK CFI 7fec .cfa: $rsp 80 +
STACK CFI 80ed .cfa: $rsp 24 +
STACK CFI 80ee .cfa: $rsp 16 +
STACK CFI 80ef .cfa: $rsp 8 +
STACK CFI INIT 8be4 1c .cfa: $rsp 8 + .ra: .cfa -8 + ^
STACK CFI 8be8 .cfa: $rsp 32 +
STACK CFI 8bff .cfa: $rsp 8 +
STACK CFI INIT 8c00 1c .cfa: $rsp 8 + .ra: .cfa -8 + ^
STACK CFI 8c04 .cfa: $rsp 32 +
STACK CFI 8c1b .cfa: $rsp 8 +
STACK CFI INIT 80f0 388 .cfa: $rsp 8 + .ra: .cfa -8 + ^
STACK CFI 80f1 .cfa: $rsp 16 + $rbx: .cfa -16 + ^
STACK CFI 80f8 .cfa: $rsp 704 +
STACK CFI 8476 .cfa: $rsp 16 +
STACK CFI 8477 .cfa: $rsp 8 +
STACK CFI INIT 8478 1aa .cfa: $rsp 8 + .ra: .cfa -8 + ^
STACK CFI 8479 .cfa: $rsp 16 + $rbx: .cfa -16 + ^
STACK CFI 847d .cfa: $rsp 96 +
STACK CFI 8620 .cfa: $rsp 16 +
STACK CFI 8621 .cfa: $rsp 8 +
STACK CFI INIT 8622 34 .cfa: $rsp 8 + .ra: .cfa -8 + ^
STACK CFI 8623 .cfa: $rsp 16 + $rbx: .cfa -16 + ^
STACK CFI 8627 .cfa: $rsp 32 +
STACK CFI 8654 .cfa: $rsp 16 +
STACK CFI 8655 .cfa: $rsp 8 +
STACK CFI INIT 8656 1e6 .cfa: $rsp 8 + .ra: .cfa -8 + ^
STACK CFI 8657 .cfa: $rsp 16 + $rbp: .cfa -16 + ^
STACK CFI 865a .cfa: $rbp 16 +
STACK CFI 8662 $rbx: .cfa -24 + ^
STACK CFI 883b .cfa: $rsp 8 +
STACK CFI INIT 883c a1 .cfa: $rsp 8 + .ra: .cfa -8 + ^
STACK CFI 8840 .cfa: $rsp 64 +
STACK CFI 88dc .cfa: $rsp 8 +
STACK CFI INIT 88de 97 .cfa: $rsp 8 + .ra: .cfa -8 + ^
STACK CFI 88e2 .cfa: $rsp 80 +
STACK CFI 8974 .cfa: $rsp 8 +
STACK CFI INIT 8976 9a .cfa: $rsp 8 + .ra: .cfa -8 + ^
STACK CFI 897a .cfa: $rsp 80 +
STACK CFI 8a0f .cfa: $rsp 8 +
STACK CFI INIT 8c1c 2c .cfa: $rsp 8 + .ra: .cfa -8 + ^
STACK CFI INIT 8c48 50 .cfa: $rsp 8 + .ra: .cfa -8 + ^
STACK CFI 8c4c .cfa: $rsp 48 +
STACK CFI 8c97 .cfa: $rsp 8 +
STACK CFI INIT 8c98 4d .cfa: $rsp 8 + .ra: .cfa -8 + ^
STACK CFI 8c9c .cfa: $rsp 48 +
STACK CFI 8ce4 .cfa: $rsp 8 +
STACK CFI INIT 8ce6 21 .cfa: $rsp 8 + .ra: .cfa -8 + ^
STACK CFI INIT 8d08 1e .cfa: $rsp 8 + .ra: .cfa -8 + ^
STACK CFI INIT 8d26 22 .cfa: $rsp 8 + .ra: .cfa -8 + ^
STACK CFI 8d2a .cfa: $rsp 32 +
STACK CFI 8d47 .cfa: $rsp 8 +
STACK CFI INIT 8d48 1c .cfa: $rsp 8 + .ra: .cfa -8 + ^
STACK CFI 8d4c .cfa: $rsp 32 +
STACK CFI 8d63 .cfa: $rsp 8 +
STACK CFI INIT 8d64 a9 .cfa: $rsp 8 + .ra: .cfa -8 + ^
STACK CFI 8d65 .cfa: $rsp 16 + $rbx: .cfa -16 + ^
STACK CFI 8d69 .cfa: $rsp 64 +
STACK CFI 8e0b .cfa: $rsp 16 +
STACK CFI 8e0c .cfa: $rsp 8 +
STACK CFI INIT 8e0e 49 .cfa: $rsp 8 + .ra: .cfa -8 + ^
STACK CFI 8e12 .cfa: $rsp 32 +
STACK CFI 8e56 .cfa: $rsp 8 +
STACK CFI INIT 8e58 51 .cfa: $rsp 8 + .ra: .cfa -8 + ^
STACK CFI 8e5c .cfa: $rsp 48 +
STACK CFI 8ea8 .cfa: $rsp 8 +
STACK CFI INIT 8eaa 2a .cfa: $rsp 8 + .ra: .cfa -8 + ^
STACK CFI 8eae .cfa: $rsp 32 +
STACK CFI 8ed3 .cfa: $rsp 8 +
STACK CFI INIT 8ed4 df .cfa: $rsp 8 + .ra: .cfa -8 + ^
STACK CFI 8ed5 .cfa: $rsp 16 + $rbx: .cfa -16 + ^
STACK CFI 8ed9 .cfa: $rsp 80 +
STACK CFI 8f64 .cfa: $rsp 88 +
STACK CFI 8f65 .cfa: $rsp 96 +
STACK CFI 8f71 .cfa: $rsp 80 +
STACK CFI 8fb1 .cfa: $rsp 16 +
STACK CFI 8fb2 .cfa: $rsp 8 +
STACK CFI INIT 8fb4 1c .cfa: $rsp 8 + .ra: .cfa -8 + ^
STACK CFI INIT 8fd0 21 .cfa: $rsp 8 + .ra: .cfa -8 + ^
STACK CFI INIT 8a10 97 .cfa: $rsp 8 + .ra: .cfa -8 + ^
STACK CFI 8a14 .cfa: $rsp 80 +
STACK CFI 8aa6 .cfa: $rsp 8 +
STACK CFI INIT 8aa8 a6 .cfa: $rsp 8 + .ra: .cfa -8 + ^
STACK CFI 8aac .cfa: $rsp 64 +
STACK CFI 8b4d .cfa: $rsp 8 +
STACK CFI INIT 8ff2 25 .cfa: $rsp 8 + .ra: .cfa -8 + ^
STACK CFI INIT 9018 20 .cfa: $rsp 8 + .ra: .cfa -8 + ^
STACK CFI INIT 9038 19 .cfa: $rsp 8 + .ra: .cfa -8 + ^
STACK CFI INIT 9051 b .cfa: $rsp 8 + .ra: .cfa -8 + ^
STACK CFI INIT 905c 52 .cfa: $rsp 8 + .ra: .cfa -8 + ^
STACK CFI 9060 .cfa: $rsp 48 +
STACK CFI 90ad .cfa: $rsp 8 +
STACK CFI INIT 90ae 1c .cfa: $rsp 8 + .ra: .cfa -8 + ^
STACK CFI 90b2 .cfa: $rsp 32 +
STACK CFI 90c9 .cfa: $rsp 8 +
STACK CFI INIT 90ca 27 .cfa: $rsp 8 + .ra: .cfa -8 + ^
STACK CFI 90ce .cfa: $rsp 32 +
STACK CFI 90f0 .cfa: $rsp 8 +
STACK CFI INIT 90f2 27 .cfa: $rsp 8 + .ra: .cfa -8 + ^
STACK CFI 90f6 .cfa: $rsp 32 +
STACK CFI 9118 .cfa: $rsp 8 +
STACK CFI INIT 911a 149 .cfa: $rsp 8 + .ra: .cfa -8 + ^
STACK CFI 911b .cfa: $rsp 16 + $rbx: .cfa -16 + ^
STACK CFI 911f .cfa: $rsp 48 +
STACK CFI 9261 .cfa: $rsp 16 +
STACK CFI 9262 .cfa: $rsp 8 +
STACK CFI INIT 9264 1c .cfa: $rsp 8 + .ra: .cfa -8 + ^
STACK CFI 9268 .cfa: $rsp 32 +
STACK CFI 927f .cfa: $rsp 8 +
STACK CFI INIT 9280 53 .cfa: $rsp 8 + .ra: .cfa -8 + ^
STACK CFI 9284 .cfa: $rsp 32 +
STACK CFI 92d2 .cfa: $rsp 8 +
STACK CFI INIT 92d4 b .cfa: $rsp 8 + .ra: .cfa -8 + ^
STACK CFI INIT 92df 4d .cfa: $rsp 8 + .ra: .cfa -8 + ^
STACK CFI 92e3 .cfa: $rsp 48 +
STACK CFI 932b .cfa: $rsp 8 +
STACK CFI INIT 932c 1c .cfa: $rsp 8 + .ra: .cfa -8 + ^
STACK CFI INIT 9348 b .cfa: $rsp 8 + .ra: .cfa -8 + ^
STACK CFI INIT 9354 5b .cfa: $rsp 8 + .ra: .cfa -8 + ^
STACK CFI 9358 .cfa: $rsp 64 +
STACK CFI 93ae .cfa: $rsp 8 +
STACK CFI INIT 93af 3c .cfa: $rsp 8 + .ra: .cfa -8 + ^
STACK CFI 93b0 .cfa: $rsp 16 + $rbx: .cfa -16 + ^
STACK CFI 93b4 .cfa: $rsp 32 +
STACK CFI 93e9 .cfa: $rsp 16 +
STACK CFI 93ea .cfa: $rsp 8 +
STACK CFI INIT 93ec 51 .cfa: $rsp 8 + .ra: .cfa -8 + ^
STACK CFI 93f0 .cfa: $rsp 48 +
STACK CFI 943c .cfa: $rsp 8 +
STACK CFI INIT 943e 65 .cfa: $rsp 8 + .ra: .cfa -8 + ^
STACK CFI 9442 .cfa: $rsp 64 +
STACK CFI 94a2 .cfa: $rsp 8 +
STACK CFI INIT 94a4 67 .cfa: $rsp 8 + .ra: .cfa -8 + ^
STACK CFI 94a8 .cfa: $rsp 64 +
STACK CFI 94e2 .cfa: $rsp 72 +
STACK CFI 94e4 .cfa: $rsp 80 +
STACK CFI 94f0 .cfa: $rsp 64 +
STACK CFI 950a .cfa: $rsp 8 +
STACK CFI INIT 950c 1c .cfa: $rsp 8 + .ra: .cfa -8 + ^
STACK CFI 9510 .cfa: $rsp 32 +
STACK CFI 9527 .cfa: $rsp 8 +
STACK CFI INIT 9528 7 .cfa: $rsp 8 + .ra: .cfa -8 + ^
STACK CFI INIT 9530 c .cfa: $rsp 8 + .ra: .cfa -8 + ^
STACK CFI INIT 953c 27 .cfa: $rsp 8 + .ra: .cfa -8 + ^
STACK CFI 9540 .cfa: $rsp 32 +
STACK CFI 9562 .cfa: $rsp 8 +
STACK CFI INIT 9564 23 .cfa: $rsp 8 + .ra: .cfa -8 + ^
STACK CFI 9568 .cfa: $rsp 32 +
STACK CFI 9586 .cfa: $rsp 8 +
STACK CFI INIT 9588 21 .cfa: $rsp 8 + .ra: .cfa -8 + ^
STACK CFI INIT 95a9 4d .cfa: $rsp 8 + .ra: .cfa -8 + ^
STACK CFI 95ad .cfa: $rsp 48 +
STACK CFI 95f5 .cfa: $rsp 8 +
STACK CFI INIT 95f6 9f .cfa: $rsp 8 + .ra: .cfa -8 + ^
STACK CFI 95f7 .cfa: $rsp 16 + $rbx: .cfa -16 + ^
STACK CFI 95fb .cfa: $rsp 80 +
STACK CFI 9693 .cfa: $rsp 16 +
STACK CFI 9694 .cfa: $rsp 8 +
STACK CFI INIT 9696 3b .cfa: $rsp 8 + .ra: .cfa -8 + ^
STACK CFI 969a .cfa: $rsp 48 +
STACK CFI 96d0 .cfa: $rsp 8 +
STACK CFI INIT 96d1 b .cfa: $rsp 8 + .ra: .cfa -8 + ^
STACK CFI INIT 96dc 27 .cfa: $rsp 8 + .ra: .cfa -8 + ^
STACK CFI 96e0 .cfa: $rsp 32 +
STACK CFI 9702 .cfa: $rsp 8 +
STACK CFI INIT 9704 1c .cfa: $rsp 8 + .ra: .cfa -8 + ^
STACK CFI INIT 9720 b .cfa: $rsp 8 + .ra: .cfa -8 + ^
STACK CFI INIT 972c 44f .cfa: $rsp 8 + .ra: .cfa -8 + ^
STACK CFI 972d .cfa: $rsp 16 + $rbp: .cfa -16 + ^
STACK CFI 972e .cfa: $rsp 24 + $rbx: .cfa -24 + ^
STACK CFI 9732 .cfa: $rsp 128 +
STACK CFI 9b78 .cfa: $rsp 24 +
STACK CFI 9b79 .cfa: $rsp 16 +
STACK CFI 9b7a .cfa: $rsp 8 +
STACK CFI INIT 9b7c 7 .cfa: $rsp 8 + .ra: .cfa -8 + ^
STACK CFI INIT 9b84 27 .cfa: $rsp 8 + .ra: .cfa -8 + ^
STACK CFI 9b88 .cfa: $rsp 32 +
STACK CFI 9baa .cfa: $rsp 8 +
STACK CFI INIT 9bab 20 .cfa: $rsp 8 + .ra: .cfa -8 + ^
STACK CFI 9baf .cfa: $rsp 32 +
STACK CFI 9bca .cfa: $rsp 8 +
STACK CFI INIT 9bcc b .cfa: $rsp 8 + .ra: .cfa -8 + ^
STACK CFI INIT 9bd8 19 .cfa: $rsp 8 + .ra: .cfa -8 + ^
STACK CFI INIT 9bf2 34 .cfa: $rsp 8 + .ra: .cfa -8 + ^
STACK CFI 9bf6 .cfa: $rsp 32 +
STACK CFI 9c25 .cfa: $rsp 8 +
STACK CFI INIT 9c26 c8 .cfa: $rsp 8 + .ra: .cfa -8 + ^
STACK CFI 9c27 .cfa: $rsp 16 + $rbx: .cfa -16 + ^
STACK CFI 9c2b .cfa: $rsp 64 +
STACK CFI 9cec .cfa: $rsp 16 +
STACK CFI 9ced .cfa: $rsp 8 +
STACK CFI INIT 9cee 33 .cfa: $rsp 8 + .ra: .cfa -8 + ^
STACK CFI 9cf2 .cfa: $rsp 48 +
STACK CFI 9d20 .cfa: $rsp 8 +
STACK CFI INIT 9d21 27 .cfa: $rsp 8 + .ra: .cfa -8 + ^
STACK CFI 9d25 .cfa: $rsp 32 +
STACK CFI 9d47 .cfa: $rsp 8 +
STACK CFI INIT 9d48 63 .cfa: $rsp 8 + .ra: .cfa -8 + ^
STACK CFI 9d49 .cfa: $rsp 16 + $rbx: .cfa -16 + ^
STACK CFI 9d4d .cfa: $rsp 48 +
STACK CFI 9d80 .cfa: $rsp 56 +
STACK CFI 9d81 .cfa: $rsp 64 +
STACK CFI 9d90 .cfa: $rsp 48 +
STACK CFI 9da9 .cfa: $rsp 16 +
STACK CFI 9daa .cfa: $rsp 8 +
STACK CFI INIT 9dab 3c .cfa: $rsp 8 + .ra: .cfa -8 + ^
STACK CFI 9dac .cfa: $rsp 16 + $rbx: .cfa -16 + ^
STACK CFI 9db0 .cfa: $rsp 32 +
STACK CFI 9de5 .cfa: $rsp 16 +
STACK CFI 9de6 .cfa: $rsp 8 +
STACK CFI INIT 9de7 55 .cfa: $rsp 8 + .ra: .cfa -8 + ^
STACK CFI 9de8 .cfa: $rsp 16 + $rbx: .cfa -16 + ^
STACK CFI 9dec .cfa: $rsp 48 +
STACK CFI 9e3a .cfa: $rsp 16 +
STACK CFI 9e3b .cfa: $rsp 8 +
STACK CFI INIT 9e3c 4d .cfa: $rsp 8 + .ra: .cfa -8 + ^
STACK CFI 9e3d .cfa: $rsp 16 + $rbx: .cfa -16 + ^
STACK CFI 9e41 .cfa: $rsp 48 +
STACK CFI 9e87 .cfa: $rsp 16 +
STACK CFI 9e88 .cfa: $rsp 8 +
STACK CFI INIT 9e89 4b .cfa: $rsp 8 + .ra: .cfa -8 + ^
STACK CFI 9e8a .cfa: $rsp 16 + $rbx: .cfa -16 + ^
STACK CFI 9e8e .cfa: $rsp 48 +
STACK CFI 9ed2 .cfa: $rsp 16 +
STACK CFI 9ed3 .cfa: $rsp 8 +
STACK CFI INIT 9ed4 6e .cfa: $rsp 8 + .ra: .cfa -8 + ^
STACK CFI 9ed5 .cfa: $rsp 16 + $rbx: .cfa -16 + ^
STACK CFI 9ed9 .cfa: $rsp 64 +
STACK CFI 9f16 .cfa: $rsp 72 +
STACK CFI 9f17 .cfa: $rsp 80 +
STACK CFI 9f26 .cfa: $rsp 64 +
STACK CFI 9f40 .cfa: $rsp 16 +
STACK CFI 9f41 .cfa: $rsp 8 +
STACK CFI INIT 9f42 a6 .cfa: $rsp 8 + .ra: .cfa -8 + ^
STACK CFI 9f43 .cfa: $rsp 16 + $rbx: .cfa -16 + ^
STACK CFI 9f47 .cfa: $rsp 64 +
STACK CFI 9fe6 .cfa: $rsp 16 +
STACK CFI 9fe7 .cfa: $rsp 8 +
STACK CFI INIT 9fe8 fc .cfa: $rsp 8 + .ra: .cfa -8 + ^
STACK CFI 9fe9 .cfa: $rsp 16 + $rbx: .cfa -16 + ^
STACK CFI 9fed .cfa: $rsp 80 +
STACK CFI a0e2 .cfa: $rsp 16 +
STACK CFI a0e3 .cfa: $rsp 8 +
STACK CFI INIT a0e4 55 .cfa: $rsp 8 + .ra: .cfa -8 + ^
STACK CFI a0e5 .cfa: $rsp 16 + $rbx: .cfa -16 + ^
STACK CFI a0e9 .cfa: $rsp 48 +
STACK CFI a137 .cfa: $rsp 16 +
STACK CFI a138 .cfa: $rsp 8 +
STACK CFI INIT a13a 58 .cfa: $rsp 8 + .ra: .cfa -8 + ^
STACK CFI a13e .cfa: $rsp 32 +
STACK CFI a191 .cfa: $rsp 8 +
STACK CFI INIT a192 4e .cfa: $rsp 8 + .ra: .cfa -8 + ^
STACK CFI a196 .cfa: $rsp 32 +
STACK CFI a1df .cfa: $rsp 8 +
STACK CFI INIT a1e0 1f .cfa: $rsp 8 + .ra: .cfa -8 + ^
STACK CFI a1e4 .cfa: $rsp 32 +
STACK CFI a1fe .cfa: $rsp 8 +
STACK CFI INIT a1ff 2b .cfa: $rsp 8 + .ra: .cfa -8 + ^
STACK CFI a203 .cfa: $rsp 32 +
STACK CFI a229 .cfa: $rsp 8 +
STACK CFI INIT a22a 29 .cfa: $rsp 8 + .ra: .cfa -8 + ^
STACK CFI a22e .cfa: $rsp 32 +
STACK CFI a252 .cfa: $rsp 8 +
STACK CFI INIT a254 1f .cfa: $rsp 8 + .ra: .cfa -8 + ^
STACK CFI INIT a274 e .cfa: $rsp 8 + .ra: .cfa -8 + ^
STACK CFI INIT a282 b .cfa: $rsp 8 + .ra: .cfa -8 + ^
STACK CFI INIT a28d 3e .cfa: $rsp 8 + .ra: .cfa -8 + ^
STACK CFI a291 .cfa: $rsp 48 +
STACK CFI a2ca .cfa: $rsp 8 +
STACK CFI INIT a2cc 11 .cfa: $rsp 8 + .ra: .cfa -8 + ^
STACK CFI INIT a2de c .cfa: $rsp 8 + .ra: .cfa -8 + ^
STACK CFI INIT a2ea 6 .cfa: $rsp 8 + .ra: .cfa -8 + ^
STACK CFI INIT a2f0 1b .cfa: $rsp 8 + .ra: .cfa -8 + ^
STACK CFI INIT a30b 4d .cfa: $rsp 8 + .ra: .cfa -8 + ^
STACK CFI a30f .cfa: $rsp 48 +
STACK CFI a357 .cfa: $rsp 8 +
STACK CFI INIT a358 1b .cfa: $rsp 8 + .ra: .cfa -8 + ^
STACK CFI a35c .cfa: $rsp 32 +
STACK CFI a372 .cfa: $rsp 8 +
STACK CFI INIT a373 57 .cfa: $rsp 8 + .ra: .cfa -8 + ^
STACK CFI a374 .cfa: $rsp 16 + $rbp: .cfa -16 + ^
STACK CFI a375 .cfa: $rsp 24 + $rbx: .cfa -24 + ^
STACK CFI a379 .cfa: $rsp 64 +
STACK CFI a3c7 .cfa: $rsp 24 +
STACK CFI a3c8 .cfa: $rsp 16 +
STACK CFI a3c9 .cfa: $rsp 8 +
STACK CFI INIT a3ca 1b .cfa: $rsp 8 + .ra: .cfa -8 + ^
STACK CFI a3ce .cfa: $rsp 32 +
STACK CFI a3e4 .cfa: $rsp 8 +
STACK CFI INIT a3e5 99 .cfa: $rsp 8 + .ra: .cfa -8 + ^
STACK CFI a3e6 .cfa: $rsp 16 + $rbp: .cfa -16 + ^
STACK CFI a3e7 .cfa: $rsp 24 + $rbx: .cfa -24 + ^
STACK CFI a3eb .cfa: $rsp 96 +
STACK CFI a47b .cfa: $rsp 24 +
STACK CFI a47c .cfa: $rsp 16 +
STACK CFI a47d .cfa: $rsp 8 +
STACK CFI INIT a47e 24 .cfa: $rsp 8 + .ra: .cfa -8 + ^
STACK CFI INIT a4a2 b .cfa: $rsp 8 + .ra: .cfa -8 + ^
STACK CFI INIT a4ad 3e .cfa: $rsp 8 + .ra: .cfa -8 + ^
STACK CFI a4b1 .cfa: $rsp 48 +
STACK CFI a4ea .cfa: $rsp 8 +
STACK CFI INIT a4ec d .cfa: $rsp 8 + .ra: .cfa -8 + ^
STACK CFI INIT a4fa 55 .cfa: $rsp 8 + .ra: .cfa -8 + ^
STACK CFI a4fe .cfa: $rsp 64 +
STACK CFI a54e .cfa: $rsp 8 +
STACK CFI INIT a54f 36 .cfa: $rsp 8 + .ra: .cfa -8 + ^
STACK CFI a550 .cfa: $rsp 16 + $rbx: .cfa -16 + ^
STACK CFI a554 .cfa: $rsp 32 +
STACK CFI a583 .cfa: $rsp 16 +
STACK CFI a584 .cfa: $rsp 8 +
STACK CFI INIT a585 3e .cfa: $rsp 8 + .ra: .cfa -8 + ^
STACK CFI a589 .cfa: $rsp 48 +
STACK CFI a5c2 .cfa: $rsp 8 +
STACK CFI INIT a5c3 b .cfa: $rsp 8 + .ra: .cfa -8 + ^
STACK CFI INIT a5ce 1b .cfa: $rsp 8 + .ra: .cfa -8 + ^
STACK CFI a5d2 .cfa: $rsp 32 +
STACK CFI a5e8 .cfa: $rsp 8 +
STACK CFI INIT a5e9 37 .cfa: $rsp 8 + .ra: .cfa -8 + ^
STACK CFI a5ed .cfa: $rsp 64 +
STACK CFI a61f .cfa: $rsp 8 +
STACK CFI INIT a620 b .cfa: $rsp 8 + .ra: .cfa -8 + ^
STACK CFI INIT a62b 1b .cfa: $rsp 8 + .ra: .cfa -8 + ^
STACK CFI a62f .cfa: $rsp 32 +
STACK CFI a645 .cfa: $rsp 8 +
STACK CFI INIT a646 19 .cfa: $rsp 8 + .ra: .cfa -8 + ^
STACK CFI a64a .cfa: $rsp 32 +
STACK CFI a65e .cfa: $rsp 8 +
STACK CFI INIT a65f 37 .cfa: $rsp 8 + .ra: .cfa -8 + ^
STACK CFI a663 .cfa: $rsp 64 +
STACK CFI a695 .cfa: $rsp 8 +
STACK CFI INIT a696 3e .cfa: $rsp 8 + .ra: .cfa -8 + ^
STACK CFI a69a .cfa: $rsp 48 +
STACK CFI a6d3 .cfa: $rsp 8 +
STACK CFI INIT a6d4 e .cfa: $rsp 8 + .ra: .cfa -8 + ^
STACK CFI INIT a6e2 44 .cfa: $rsp 8 + .ra: .cfa -8 + ^
STACK CFI a6e3 .cfa: $rsp 16 + $rbx: .cfa -16 + ^
STACK CFI a6e7 .cfa: $rsp 48 +
STACK CFI a724 .cfa: $rsp 16 +
STACK CFI a725 .cfa: $rsp 8 +
STACK CFI INIT a726 70 .cfa: $rsp 8 + .ra: .cfa -8 + ^
STACK CFI a72a .cfa: $rsp 64 +
STACK CFI a795 .cfa: $rsp 8 +
STACK CFI INIT a796 1b .cfa: $rsp 8 + .ra: .cfa -8 + ^
STACK CFI a79a .cfa: $rsp 32 +
STACK CFI a7b0 .cfa: $rsp 8 +
STACK CFI INIT a7b1 5c .cfa: $rsp 8 + .ra: .cfa -8 + ^
STACK CFI a7b5 .cfa: $rsp 64 +
STACK CFI a80c .cfa: $rsp 8 +
STACK CFI INIT a80e 44 .cfa: $rsp 8 + .ra: .cfa -8 + ^
STACK CFI a80f .cfa: $rsp 16 + $rbx: .cfa -16 + ^
STACK CFI a813 .cfa: $rsp 48 +
STACK CFI a850 .cfa: $rsp 16 +
STACK CFI a851 .cfa: $rsp 8 +
STACK CFI INIT a852 44 .cfa: $rsp 8 + .ra: .cfa -8 + ^
STACK CFI a856 .cfa: $rsp 32 +
STACK CFI a895 .cfa: $rsp 8 +
STACK CFI INIT a896 28 .cfa: $rsp 8 + .ra: .cfa -8 + ^
STACK CFI a89a .cfa: $rsp 32 +
STACK CFI a8bd .cfa: $rsp 8 +
STACK CFI INIT a8be 4f .cfa: $rsp 8 + .ra: .cfa -8 + ^
STACK CFI a8c2 .cfa: $rsp 48 +
STACK CFI a90c .cfa: $rsp 8 +
STACK CFI INIT a90d 41 .cfa: $rsp 8 + .ra: .cfa -8 + ^
STACK CFI a911 .cfa: $rsp 32 +
STACK CFI a94d .cfa: $rsp 8 +
STACK CFI INIT a94e 56 .cfa: $rsp 8 + .ra: .cfa -8 + ^
STACK CFI a952 .cfa: $rsp 48 +
STACK CFI a9a3 .cfa: $rsp 8 +
STACK CFI INIT a9a4 5f .cfa: $rsp 8 + .ra: .cfa -8 + ^
STACK CFI a9a8 .cfa: $rsp 48 +
STACK CFI aa02 .cfa: $rsp 8 +
STACK CFI INIT aa03 60 .cfa: $rsp 8 + .ra: .cfa -8 + ^
STACK CFI aa07 .cfa: $rsp 64 +
STACK CFI aa62 .cfa: $rsp 8 +
STACK CFI INIT aa63 56 .cfa: $rsp 8 + .ra: .cfa -8 + ^
STACK CFI aa67 .cfa: $rsp 48 +
STACK CFI aab8 .cfa: $rsp 8 +
STACK CFI INIT aab9 92 .cfa: $rsp 8 + .ra: .cfa -8 + ^
STACK CFI aabb .cfa: $rsp 16 + $r12: .cfa -16 + ^
STACK CFI aabc .cfa: $rsp 24 + $rbp: .cfa -24 + ^
STACK CFI aabd .cfa: $rsp 32 + $rbx: .cfa -32 + ^
STACK CFI aac1 .cfa: $rsp 96 +
STACK CFI ab46 .cfa: $rsp 32 +
STACK CFI ab47 .cfa: $rsp 24 +
STACK CFI ab48 .cfa: $rsp 16 +
STACK CFI ab4a .cfa: $rsp 8 +
STACK CFI INIT c96a 26 .cfa: $rsp 8 + .ra: .cfa -8 + ^
STACK CFI c96e .cfa: $rsp 32 +
STACK CFI c98f .cfa: $rsp 8 +
STACK CFI INIT c990 2b .cfa: $rsp 8 + .ra: .cfa -8 + ^
STACK CFI INIT c9bc 1d1 .cfa: $rsp 8 + .ra: .cfa -8 + ^
STACK CFI c9c0 .cfa: $rsp 64 +
STACK CFI cb8c .cfa: $rsp 8 +
STACK CFI INIT cb8e 92 .cfa: $rsp 8 + .ra: .cfa -8 + ^
STACK CFI cb92 .cfa: $rsp 32 +
STACK CFI cc1f .cfa: $rsp 8 +
STACK CFI INIT cc20 e .cfa: $rsp 8 + .ra: .cfa -8 + ^
STACK CFI INIT cc2e f .cfa: $rsp 8 + .ra: .cfa -8 + ^
STACK CFI INIT cc3e 1b .cfa: $rsp 8 + .ra: .cfa -8 + ^
STACK CFI cc42 .cfa: $rsp 32 +
STACK CFI cc58 .cfa: $rsp 8 +
STACK CFI INIT cc5a 1b .cfa: $rsp 8 + .ra: .cfa -8 + ^
STACK CFI cc5e .cfa: $rsp 32 +
STACK CFI cc74 .cfa: $rsp 8 +
STACK CFI INIT ab4b 30 .cfa: $rsp 8 + .ra: .cfa -8 + ^
STACK CFI ab4f .cfa: $rsp 32 +
STACK CFI ab7a .cfa: $rsp 8 +
STACK CFI INIT ab7b 37 .cfa: $rsp 8 + .ra: .cfa -8 + ^
STACK CFI INIT cc76 1c .cfa: $rsp 8 + .ra: .cfa -8 + ^
STACK CFI cc7a .cfa: $rsp 32 +
STACK CFI cc91 .cfa: $rsp 8 +
STACK CFI INIT cc92 1c .cfa: $rsp 8 + .ra: .cfa -8 + ^
STACK CFI cc96 .cfa: $rsp 32 +
STACK CFI ccad .cfa: $rsp 8 +
STACK CFI INIT ccae 1c .cfa: $rsp 8 + .ra: .cfa -8 + ^
STACK CFI ccb2 .cfa: $rsp 32 +
STACK CFI ccc9 .cfa: $rsp 8 +
STACK CFI INIT abb2 1a7 .cfa: $rsp 8 + .ra: .cfa -8 + ^
STACK CFI abb3 .cfa: $rsp 16 + $rbx: .cfa -16 + ^
STACK CFI abb7 .cfa: $rsp 48 +
STACK CFI ad57 .cfa: $rsp 16 +
STACK CFI ad58 .cfa: $rsp 8 +
STACK CFI INIT ad5a 7d .cfa: $rsp 8 + .ra: .cfa -8 + ^
STACK CFI ad5e .cfa: $rsp 32 +
STACK CFI add6 .cfa: $rsp 8 +
STACK CFI INIT add8 28 .cfa: $rsp 8 + .ra: .cfa -8 + ^
STACK CFI addc .cfa: $rsp 32 +
STACK CFI adff .cfa: $rsp 8 +
STACK CFI INIT ae00 65 .cfa: $rsp 8 + .ra: .cfa -8 + ^
STACK CFI ae04 .cfa: $rsp 32 +
STACK CFI ae64 .cfa: $rsp 8 +
STACK CFI INIT ae66 b .cfa: $rsp 8 + .ra: .cfa -8 + ^
STACK CFI INIT ae72 2bc .cfa: $rsp 8 + .ra: .cfa -8 + ^
STACK CFI ae73 .cfa: $rsp 16 + $rbx: .cfa -16 + ^
STACK CFI ae7a .cfa: $rsp 4192 +
STACK CFI b12c .cfa: $rsp 16 +
STACK CFI b12d .cfa: $rsp 8 +
STACK CFI INIT b12e 2a4 .cfa: $rsp 8 + .ra: .cfa -8 + ^
STACK CFI INIT b3d2 70 .cfa: $rsp 8 + .ra: .cfa -8 + ^
STACK CFI b3d6 .cfa: $rsp 48 +
STACK CFI b441 .cfa: $rsp 8 +
STACK CFI INIT b442 1bf .cfa: $rsp 8 + .ra: .cfa -8 + ^
STACK CFI b449 .cfa: $rsp 144 +
STACK CFI b600 .cfa: $rsp 8 +
STACK CFI INIT b601 141 .cfa: $rsp 8 + .ra: .cfa -8 + ^
STACK CFI b602 .cfa: $rsp 16 + $rbx: .cfa -16 + ^
STACK CFI b609 .cfa: $rsp 4176 +
STACK CFI b740 .cfa: $rsp 16 +
STACK CFI b741 .cfa: $rsp 8 +
STACK CFI INIT b742 143 .cfa: $rsp 8 + .ra: .cfa -8 + ^
STACK CFI b743 .cfa: $rsp 16 + $rbx: .cfa -16 + ^
STACK CFI b747 .cfa: $rsp 80 +
STACK CFI b883 .cfa: $rsp 16 +
STACK CFI b884 .cfa: $rsp 8 +
STACK CFI INIT b886 12c .cfa: $rsp 8 + .ra: .cfa -8 + ^
STACK CFI b88d .cfa: $rsp 336 +
STACK CFI b9b1 .cfa: $rsp 8 +
STACK CFI INIT b9b2 5ea .cfa: $rsp 8 + .ra: .cfa -8 + ^
STACK CFI b9b3 .cfa: $rsp 16 + $rbx: .cfa -16 + ^
STACK CFI b9ba .cfa: $rsp 432 +
STACK CFI bf9a .cfa: $rsp 16 +
STACK CFI bf9b .cfa: $rsp 8 +
STACK CFI INIT bf9c c0 .cfa: $rsp 8 + .ra: .cfa -8 + ^
STACK CFI bfa0 .cfa: $rsp 96 +
STACK CFI c05b .cfa: $rsp 8 +
STACK CFI INIT c05c 41b .cfa: $rsp 8 + .ra: .cfa -8 + ^
STACK CFI c063 .cfa: $rsp 464 +
STACK CFI c476 .cfa: $rsp 8 +
STACK CFI INIT c478 e2 .cfa: $rsp 8 + .ra: .cfa -8 + ^
STACK CFI c47c .cfa: $rsp 112 +
STACK CFI c559 .cfa: $rsp 8 +
STACK CFI INIT c55a f0 .cfa: $rsp 8 + .ra: .cfa -8 + ^
STACK CFI c55b .cfa: $rsp 16 + $rbx: .cfa -16 + ^
STACK CFI c55f .cfa: $rsp 64 +
STACK CFI c648 .cfa: $rsp 16 +
STACK CFI c649 .cfa: $rsp 8 +
STACK CFI INIT c64a cf .cfa: $rsp 8 + .ra: .cfa -8 + ^
STACK CFI c64e .cfa: $rsp 48 +
STACK CFI c718 .cfa: $rsp 8 +
STACK CFI INIT c71a 250 .cfa: $rsp 8 + .ra: .cfa -8 + ^
STACK CFI c721 .cfa: $rsp 5008 +
STACK CFI c969 .cfa: $rsp 8 +
STACK CFI INIT ccca 25 .cfa: $rsp 8 + .ra: .cfa -8 + ^
STACK CFI INIT ccf0 1c .cfa: $rsp 8 + .ra: .cfa -8 + ^
STACK CFI ccf4 .cfa: $rsp 32 +
STACK CFI cd0b .cfa: $rsp 8 +
STACK CFI INIT cd0c a6 .cfa: $rsp 8 + .ra: .cfa -8 + ^
STACK CFI cd0d .cfa: $rsp 16 + $rbx: .cfa -16 + ^
STACK CFI cd11 .cfa: $rsp 80 +
STACK CFI cdb0 .cfa: $rsp 16 +
STACK CFI cdb1 .cfa: $rsp 8 +
STACK CFI INIT cdb2 49 .cfa: $rsp 8 + .ra: .cfa -8 + ^
STACK CFI cdb6 .cfa: $rsp 32 +
STACK CFI cdfa .cfa: $rsp 8 +
STACK CFI INIT cdfc 1c .cfa: $rsp 8 + .ra: .cfa -8 + ^
STACK CFI ce00 .cfa: $rsp 32 +
STACK CFI ce17 .cfa: $rsp 8 +
STACK CFI INIT ce18 a6 .cfa: $rsp 8 + .ra: .cfa -8 + ^
STACK CFI ce19 .cfa: $rsp 16 + $rbx: .cfa -16 + ^
STACK CFI ce1d .cfa: $rsp 80 +
STACK CFI cebc .cfa: $rsp 16 +
STACK CFI cebd .cfa: $rsp 8 +
STACK CFI INIT cebe 49 .cfa: $rsp 8 + .ra: .cfa -8 + ^
STACK CFI cec2 .cfa: $rsp 32 +
STACK CFI cf06 .cfa: $rsp 8 +
STACK CFI INIT cf08 1c .cfa: $rsp 8 + .ra: .cfa -8 + ^
STACK CFI cf0c .cfa: $rsp 32 +
STACK CFI cf23 .cfa: $rsp 8 +
STACK CFI INIT cf24 a6 .cfa: $rsp 8 + .ra: .cfa -8 + ^
STACK CFI cf25 .cfa: $rsp 16 + $rbx: .cfa -16 + ^
STACK CFI cf29 .cfa: $rsp 80 +
STACK CFI cfc8 .cfa: $rsp 16 +
STACK CFI cfc9 .cfa: $rsp 8 +
STACK CFI INIT cfca 49 .cfa: $rsp 8 + .ra: .cfa -8 + ^
STACK CFI cfce .cfa: $rsp 32 +
STACK CFI d012 .cfa: $rsp 8 +
STACK CFI INIT d014 93 .cfa: $rsp 8 + .ra: .cfa -8 + ^
STACK CFI d018 .cfa: $rsp 32 +
STACK CFI d0a6 .cfa: $rsp 8 +
STACK CFI INIT d0a8 20 .cfa: $rsp 8 + .ra: .cfa -8 + ^
STACK CFI INIT d0c8 20 .cfa: $rsp 8 + .ra: .cfa -8 + ^
STACK CFI INIT d0e8 6c .cfa: $rsp 8 + .ra: .cfa -8 + ^
STACK CFI d0ec .cfa: $rsp 64 +
STACK CFI d153 .cfa: $rsp 8 +
STACK CFI INIT d154 69 .cfa: $rsp 8 + .ra: .cfa -8 + ^
STACK CFI d158 .cfa: $rsp 64 +
STACK CFI d1bc .cfa: $rsp 8 +
STACK CFI INIT d1be 93 .cfa: $rsp 8 + .ra: .cfa -8 + ^
STACK CFI d1c2 .cfa: $rsp 32 +
STACK CFI d250 .cfa: $rsp 8 +
STACK CFI INIT d252 73 .cfa: $rsp 8 + .ra: .cfa -8 + ^
STACK CFI d256 .cfa: $rsp 32 +
STACK CFI d2c4 .cfa: $rsp 8 +
STACK CFI INIT d2c5 2b .cfa: $rsp 8 + .ra: .cfa -8 + ^
STACK CFI d2c9 .cfa: $rsp 32 +
STACK CFI d2ef .cfa: $rsp 8 +
STACK CFI INIT d2f0 46 .cfa: $rsp 8 + .ra: .cfa -8 + ^
STACK CFI d2f4 .cfa: $rsp 32 +
STACK CFI d335 .cfa: $rsp 8 +
STACK CFI INIT d336 1c .cfa: $rsp 8 + .ra: .cfa -8 + ^
STACK CFI d33a .cfa: $rsp 32 +
STACK CFI d351 .cfa: $rsp 8 +
STACK CFI INIT d352 27 .cfa: $rsp 8 + .ra: .cfa -8 + ^
STACK CFI d356 .cfa: $rsp 32 +
STACK CFI d378 .cfa: $rsp 8 +
STACK CFI INIT d37a 159 .cfa: $rsp 8 + .ra: .cfa -8 + ^
STACK CFI d37b .cfa: $rsp 16 + $rbx: .cfa -16 + ^
STACK CFI d37f .cfa: $rsp 48 +
STACK CFI d4d1 .cfa: $rsp 16 +
STACK CFI d4d2 .cfa: $rsp 8 +
STACK CFI INIT d4d4 1c .cfa: $rsp 8 + .ra: .cfa -8 + ^
STACK CFI d4d8 .cfa: $rsp 32 +
STACK CFI d4ef .cfa: $rsp 8 +
STACK CFI INIT d4f0 57 .cfa: $rsp 8 + .ra: .cfa -8 + ^
STACK CFI d4f4 .cfa: $rsp 32 +
STACK CFI d546 .cfa: $rsp 8 +
STACK CFI INIT d548 b .cfa: $rsp 8 + .ra: .cfa -8 + ^
STACK CFI INIT d553 4d .cfa: $rsp 8 + .ra: .cfa -8 + ^
STACK CFI d557 .cfa: $rsp 48 +
STACK CFI d59f .cfa: $rsp 8 +
STACK CFI INIT d5a0 46 .cfa: $rsp 8 + .ra: .cfa -8 + ^
STACK CFI d5a4 .cfa: $rsp 32 +
STACK CFI d5e5 .cfa: $rsp 8 +
STACK CFI INIT d5e6 1c .cfa: $rsp 8 + .ra: .cfa -8 + ^
STACK CFI d5ea .cfa: $rsp 32 +
STACK CFI d601 .cfa: $rsp 8 +
STACK CFI INIT d602 27 .cfa: $rsp 8 + .ra: .cfa -8 + ^
STACK CFI d606 .cfa: $rsp 32 +
STACK CFI d628 .cfa: $rsp 8 +
STACK CFI INIT d62a 159 .cfa: $rsp 8 + .ra: .cfa -8 + ^
STACK CFI d62b .cfa: $rsp 16 + $rbx: .cfa -16 + ^
STACK CFI d62f .cfa: $rsp 48 +
STACK CFI d781 .cfa: $rsp 16 +
STACK CFI d782 .cfa: $rsp 8 +
STACK CFI INIT d784 1c .cfa: $rsp 8 + .ra: .cfa -8 + ^
STACK CFI d788 .cfa: $rsp 32 +
STACK CFI d79f .cfa: $rsp 8 +
STACK CFI INIT d7a0 57 .cfa: $rsp 8 + .ra: .cfa -8 + ^
STACK CFI d7a4 .cfa: $rsp 32 +
STACK CFI d7f6 .cfa: $rsp 8 +
STACK CFI INIT d7f8 b .cfa: $rsp 8 + .ra: .cfa -8 + ^
STACK CFI INIT d803 4d .cfa: $rsp 8 + .ra: .cfa -8 + ^
STACK CFI d807 .cfa: $rsp 48 +
STACK CFI d84f .cfa: $rsp 8 +
STACK CFI INIT d850 46 .cfa: $rsp 8 + .ra: .cfa -8 + ^
STACK CFI d854 .cfa: $rsp 32 +
STACK CFI d895 .cfa: $rsp 8 +
STACK CFI INIT d896 1c .cfa: $rsp 8 + .ra: .cfa -8 + ^
STACK CFI d89a .cfa: $rsp 32 +
STACK CFI d8b1 .cfa: $rsp 8 +
STACK CFI INIT d8b2 27 .cfa: $rsp 8 + .ra: .cfa -8 + ^
STACK CFI d8b6 .cfa: $rsp 32 +
STACK CFI d8d8 .cfa: $rsp 8 +
STACK CFI INIT d8da 159 .cfa: $rsp 8 + .ra: .cfa -8 + ^
STACK CFI d8db .cfa: $rsp 16 + $rbx: .cfa -16 + ^
STACK CFI d8df .cfa: $rsp 48 +
STACK CFI da31 .cfa: $rsp 16 +
STACK CFI da32 .cfa: $rsp 8 +
STACK CFI INIT da34 1c .cfa: $rsp 8 + .ra: .cfa -8 + ^
STACK CFI da38 .cfa: $rsp 32 +
STACK CFI da4f .cfa: $rsp 8 +
STACK CFI INIT da50 57 .cfa: $rsp 8 + .ra: .cfa -8 + ^
STACK CFI da54 .cfa: $rsp 32 +
STACK CFI daa6 .cfa: $rsp 8 +
STACK CFI INIT daa8 b .cfa: $rsp 8 + .ra: .cfa -8 + ^
STACK CFI INIT dab3 4d .cfa: $rsp 8 + .ra: .cfa -8 + ^
STACK CFI dab7 .cfa: $rsp 48 +
STACK CFI daff .cfa: $rsp 8 +
STACK CFI INIT db00 25 .cfa: $rsp 8 + .ra: .cfa -8 + ^
STACK CFI INIT db26 234 .cfa: $rsp 8 + .ra: .cfa -8 + ^
STACK CFI db27 .cfa: $rsp 16 + $rbx: .cfa -16 + ^
STACK CFI db2b .cfa: $rsp 64 +
STACK CFI dd58 .cfa: $rsp 16 +
STACK CFI dd59 .cfa: $rsp 8 +
STACK CFI INIT dd5a 48 .cfa: $rsp 8 + .ra: .cfa -8 + ^
STACK CFI dd5e .cfa: $rsp 32 +
STACK CFI dda1 .cfa: $rsp 8 +
STACK CFI INIT dda2 5b .cfa: $rsp 8 + .ra: .cfa -8 + ^
STACK CFI dda6 .cfa: $rsp 64 +
STACK CFI ddfc .cfa: $rsp 8 +
STACK CFI INIT ddfe 5b .cfa: $rsp 8 + .ra: .cfa -8 + ^
STACK CFI de02 .cfa: $rsp 64 +
STACK CFI de58 .cfa: $rsp 8 +
STACK CFI INIT de59 39 .cfa: $rsp 8 + .ra: .cfa -8 + ^
STACK CFI de5a .cfa: $rsp 16 + $rbx: .cfa -16 + ^
STACK CFI de5e .cfa: $rsp 32 +
STACK CFI de90 .cfa: $rsp 16 +
STACK CFI de91 .cfa: $rsp 8 +
STACK CFI INIT de92 51 .cfa: $rsp 8 + .ra: .cfa -8 + ^
STACK CFI de96 .cfa: $rsp 48 +
STACK CFI dee2 .cfa: $rsp 8 +
STACK CFI INIT dee4 6c .cfa: $rsp 8 + .ra: .cfa -8 + ^
STACK CFI dee8 .cfa: $rsp 64 +
STACK CFI df4f .cfa: $rsp 8 +
STACK CFI INIT df50 e .cfa: $rsp 8 + .ra: .cfa -8 + ^
STACK CFI INIT df5e 234 .cfa: $rsp 8 + .ra: .cfa -8 + ^
STACK CFI df5f .cfa: $rsp 16 + $rbx: .cfa -16 + ^
STACK CFI df63 .cfa: $rsp 64 +
STACK CFI e190 .cfa: $rsp 16 +
STACK CFI e191 .cfa: $rsp 8 +
STACK CFI INIT e192 48 .cfa: $rsp 8 + .ra: .cfa -8 + ^
STACK CFI e196 .cfa: $rsp 32 +
STACK CFI e1d9 .cfa: $rsp 8 +
STACK CFI INIT e1da b .cfa: $rsp 8 + .ra: .cfa -8 + ^
STACK CFI INIT e1e5 3e .cfa: $rsp 8 + .ra: .cfa -8 + ^
STACK CFI e1e9 .cfa: $rsp 48 +
STACK CFI e222 .cfa: $rsp 8 +
STACK CFI INIT e224 216 .cfa: $rsp 8 + .ra: .cfa -8 + ^
STACK CFI e225 .cfa: $rsp 16 + $rbx: .cfa -16 + ^
STACK CFI e229 .cfa: $rsp 64 +
STACK CFI e438 .cfa: $rsp 16 +
STACK CFI e439 .cfa: $rsp 8 +
STACK CFI INIT e43a 1c .cfa: $rsp 8 + .ra: .cfa -8 + ^
STACK CFI e43e .cfa: $rsp 32 +
STACK CFI e455 .cfa: $rsp 8 +
STACK CFI INIT e456 7 .cfa: $rsp 8 + .ra: .cfa -8 + ^
STACK CFI INIT e45e 27 .cfa: $rsp 8 + .ra: .cfa -8 + ^
STACK CFI e462 .cfa: $rsp 32 +
STACK CFI e484 .cfa: $rsp 8 +
STACK CFI INIT e486 23 .cfa: $rsp 8 + .ra: .cfa -8 + ^
STACK CFI e48a .cfa: $rsp 32 +
STACK CFI e4a8 .cfa: $rsp 8 +
STACK CFI INIT e4aa 25 .cfa: $rsp 8 + .ra: .cfa -8 + ^
STACK CFI INIT e4cf 4d .cfa: $rsp 8 + .ra: .cfa -8 + ^
STACK CFI e4d3 .cfa: $rsp 48 +
STACK CFI e51b .cfa: $rsp 8 +
STACK CFI INIT e51c 9f .cfa: $rsp 8 + .ra: .cfa -8 + ^
STACK CFI e51d .cfa: $rsp 16 + $rbx: .cfa -16 + ^
STACK CFI e521 .cfa: $rsp 80 +
STACK CFI e5b9 .cfa: $rsp 16 +
STACK CFI e5ba .cfa: $rsp 8 +
STACK CFI INIT e5bc 3b .cfa: $rsp 8 + .ra: .cfa -8 + ^
STACK CFI e5c0 .cfa: $rsp 48 +
STACK CFI e5f6 .cfa: $rsp 8 +
STACK CFI INIT e5f7 b .cfa: $rsp 8 + .ra: .cfa -8 + ^
STACK CFI INIT e602 27 .cfa: $rsp 8 + .ra: .cfa -8 + ^
STACK CFI e606 .cfa: $rsp 32 +
STACK CFI e628 .cfa: $rsp 8 +
STACK CFI INIT e62a 1c .cfa: $rsp 8 + .ra: .cfa -8 + ^
STACK CFI e62e .cfa: $rsp 32 +
STACK CFI e645 .cfa: $rsp 8 +
STACK CFI INIT e646 7 .cfa: $rsp 8 + .ra: .cfa -8 + ^
STACK CFI INIT e64e 27 .cfa: $rsp 8 + .ra: .cfa -8 + ^
STACK CFI e652 .cfa: $rsp 32 +
STACK CFI e674 .cfa: $rsp 8 +
STACK CFI INIT e676 23 .cfa: $rsp 8 + .ra: .cfa -8 + ^
STACK CFI e67a .cfa: $rsp 32 +
STACK CFI e698 .cfa: $rsp 8 +
STACK CFI INIT e69a 25 .cfa: $rsp 8 + .ra: .cfa -8 + ^
STACK CFI INIT e6bf 4d .cfa: $rsp 8 + .ra: .cfa -8 + ^
STACK CFI e6c3 .cfa: $rsp 48 +
STACK CFI e70b .cfa: $rsp 8 +
STACK CFI INIT e70c 9f .cfa: $rsp 8 + .ra: .cfa -8 + ^
STACK CFI e70d .cfa: $rsp 16 + $rbx: .cfa -16 + ^
STACK CFI e711 .cfa: $rsp 80 +
STACK CFI e7a9 .cfa: $rsp 16 +
STACK CFI e7aa .cfa: $rsp 8 +
STACK CFI INIT e7ac 3b .cfa: $rsp 8 + .ra: .cfa -8 + ^
STACK CFI e7b0 .cfa: $rsp 48 +
STACK CFI e7e6 .cfa: $rsp 8 +
STACK CFI INIT e7e7 b .cfa: $rsp 8 + .ra: .cfa -8 + ^
STACK CFI INIT e7f2 27 .cfa: $rsp 8 + .ra: .cfa -8 + ^
STACK CFI e7f6 .cfa: $rsp 32 +
STACK CFI e818 .cfa: $rsp 8 +
STACK CFI INIT e81a 1c .cfa: $rsp 8 + .ra: .cfa -8 + ^
STACK CFI e81e .cfa: $rsp 32 +
STACK CFI e835 .cfa: $rsp 8 +
STACK CFI INIT e836 7 .cfa: $rsp 8 + .ra: .cfa -8 + ^
STACK CFI INIT e83e 27 .cfa: $rsp 8 + .ra: .cfa -8 + ^
STACK CFI e842 .cfa: $rsp 32 +
STACK CFI e864 .cfa: $rsp 8 +
STACK CFI INIT e866 23 .cfa: $rsp 8 + .ra: .cfa -8 + ^
STACK CFI e86a .cfa: $rsp 32 +
STACK CFI e888 .cfa: $rsp 8 +
STACK CFI INIT e88a 25 .cfa: $rsp 8 + .ra: .cfa -8 + ^
STACK CFI INIT e8af 4d .cfa: $rsp 8 + .ra: .cfa -8 + ^
STACK CFI e8b3 .cfa: $rsp 48 +
STACK CFI e8fb .cfa: $rsp 8 +
STACK CFI INIT e8fc 9f .cfa: $rsp 8 + .ra: .cfa -8 + ^
STACK CFI e8fd .cfa: $rsp 16 + $rbx: .cfa -16 + ^
STACK CFI e901 .cfa: $rsp 80 +
STACK CFI e999 .cfa: $rsp 16 +
STACK CFI e99a .cfa: $rsp 8 +
STACK CFI INIT e99c 3b .cfa: $rsp 8 + .ra: .cfa -8 + ^
STACK CFI e9a0 .cfa: $rsp 48 +
STACK CFI e9d6 .cfa: $rsp 8 +
STACK CFI INIT e9d7 b .cfa: $rsp 8 + .ra: .cfa -8 + ^
STACK CFI INIT e9e2 27 .cfa: $rsp 8 + .ra: .cfa -8 + ^
STACK CFI e9e6 .cfa: $rsp 32 +
STACK CFI ea08 .cfa: $rsp 8 +
STACK CFI INIT ea09 9b .cfa: $rsp 8 + .ra: .cfa -8 + ^
STACK CFI ea0a .cfa: $rsp 16 + $rbx: .cfa -16 + ^
STACK CFI ea0e .cfa: $rsp 64 +
STACK CFI eaa2 .cfa: $rsp 16 +
STACK CFI eaa3 .cfa: $rsp 8 +
STACK CFI INIT eaa4 fc .cfa: $rsp 8 + .ra: .cfa -8 + ^
STACK CFI eaa5 .cfa: $rsp 16 + $rbx: .cfa -16 + ^
STACK CFI eaa9 .cfa: $rsp 80 +
STACK CFI eb9e .cfa: $rsp 16 +
STACK CFI eb9f .cfa: $rsp 8 +
STACK CFI INIT eba0 34 .cfa: $rsp 8 + .ra: .cfa -8 + ^
STACK CFI eba4 .cfa: $rsp 32 +
STACK CFI ebd3 .cfa: $rsp 8 +
STACK CFI INIT ebd4 55 .cfa: $rsp 8 + .ra: .cfa -8 + ^
STACK CFI ebd5 .cfa: $rsp 16 + $rbx: .cfa -16 + ^
STACK CFI ebd9 .cfa: $rsp 48 +
STACK CFI ec27 .cfa: $rsp 16 +
STACK CFI ec28 .cfa: $rsp 8 +
STACK CFI INIT ec2a 1c .cfa: $rsp 8 + .ra: .cfa -8 + ^
STACK CFI INIT ec46 b .cfa: $rsp 8 + .ra: .cfa -8 + ^
STACK CFI INIT ec52 1c .cfa: $rsp 8 + .ra: .cfa -8 + ^
STACK CFI INIT ec6e 9b .cfa: $rsp 8 + .ra: .cfa -8 + ^
STACK CFI ec6f .cfa: $rsp 16 + $rbx: .cfa -16 + ^
STACK CFI ec73 .cfa: $rsp 64 +
STACK CFI ed07 .cfa: $rsp 16 +
STACK CFI ed08 .cfa: $rsp 8 +
STACK CFI INIT ed0a fc .cfa: $rsp 8 + .ra: .cfa -8 + ^
STACK CFI ed0b .cfa: $rsp 16 + $rbx: .cfa -16 + ^
STACK CFI ed0f .cfa: $rsp 80 +
STACK CFI ee04 .cfa: $rsp 16 +
STACK CFI ee05 .cfa: $rsp 8 +
STACK CFI INIT ee06 34 .cfa: $rsp 8 + .ra: .cfa -8 + ^
STACK CFI ee0a .cfa: $rsp 32 +
STACK CFI ee39 .cfa: $rsp 8 +
STACK CFI INIT ee3a 55 .cfa: $rsp 8 + .ra: .cfa -8 + ^
STACK CFI ee3b .cfa: $rsp 16 + $rbx: .cfa -16 + ^
STACK CFI ee3f .cfa: $rsp 48 +
STACK CFI ee8d .cfa: $rsp 16 +
STACK CFI ee8e .cfa: $rsp 8 +
STACK CFI INIT ee8f 3e .cfa: $rsp 8 + .ra: .cfa -8 + ^
STACK CFI ee93 .cfa: $rsp 48 +
STACK CFI eecc .cfa: $rsp 8 +
STACK CFI INIT eece 7 .cfa: $rsp 8 + .ra: .cfa -8 + ^
STACK CFI INIT eed6 58 .cfa: $rsp 8 + .ra: .cfa -8 + ^
STACK CFI eeda .cfa: $rsp 32 +
STACK CFI ef2d .cfa: $rsp 8 +
STACK CFI INIT ef2e 4e .cfa: $rsp 8 + .ra: .cfa -8 + ^
STACK CFI ef32 .cfa: $rsp 32 +
STACK CFI ef7b .cfa: $rsp 8 +
STACK CFI INIT ef7c 20 .cfa: $rsp 8 + .ra: .cfa -8 + ^
STACK CFI ef80 .cfa: $rsp 32 +
STACK CFI ef9b .cfa: $rsp 8 +
STACK CFI INIT ef9c b .cfa: $rsp 8 + .ra: .cfa -8 + ^
STACK CFI INIT efa8 19 .cfa: $rsp 8 + .ra: .cfa -8 + ^
STACK CFI INIT efc2 34 .cfa: $rsp 8 + .ra: .cfa -8 + ^
STACK CFI efc6 .cfa: $rsp 32 +
STACK CFI eff5 .cfa: $rsp 8 +
STACK CFI INIT eff6 c8 .cfa: $rsp 8 + .ra: .cfa -8 + ^
STACK CFI eff7 .cfa: $rsp 16 + $rbx: .cfa -16 + ^
STACK CFI effb .cfa: $rsp 64 +
STACK CFI f0bc .cfa: $rsp 16 +
STACK CFI f0bd .cfa: $rsp 8 +
STACK CFI INIT f0be 33 .cfa: $rsp 8 + .ra: .cfa -8 + ^
STACK CFI f0c2 .cfa: $rsp 48 +
STACK CFI f0f0 .cfa: $rsp 8 +
STACK CFI INIT f0f1 27 .cfa: $rsp 8 + .ra: .cfa -8 + ^
STACK CFI f0f5 .cfa: $rsp 32 +
STACK CFI f117 .cfa: $rsp 8 +
STACK CFI INIT f118 7 .cfa: $rsp 8 + .ra: .cfa -8 + ^
STACK CFI INIT f120 58 .cfa: $rsp 8 + .ra: .cfa -8 + ^
STACK CFI f124 .cfa: $rsp 32 +
STACK CFI f177 .cfa: $rsp 8 +
STACK CFI INIT f178 4e .cfa: $rsp 8 + .ra: .cfa -8 + ^
STACK CFI f17c .cfa: $rsp 32 +
STACK CFI f1c5 .cfa: $rsp 8 +
STACK CFI INIT f1c6 20 .cfa: $rsp 8 + .ra: .cfa -8 + ^
STACK CFI f1ca .cfa: $rsp 32 +
STACK CFI f1e5 .cfa: $rsp 8 +
STACK CFI INIT f1e6 b .cfa: $rsp 8 + .ra: .cfa -8 + ^
STACK CFI INIT f1f2 19 .cfa: $rsp 8 + .ra: .cfa -8 + ^
STACK CFI INIT f20b c8 .cfa: $rsp 8 + .ra: .cfa -8 + ^
STACK CFI f20c .cfa: $rsp 16 + $rbx: .cfa -16 + ^
STACK CFI f210 .cfa: $rsp 64 +
STACK CFI f2d1 .cfa: $rsp 16 +
STACK CFI f2d2 .cfa: $rsp 8 +
STACK CFI INIT f2d3 33 .cfa: $rsp 8 + .ra: .cfa -8 + ^
STACK CFI f2d7 .cfa: $rsp 48 +
STACK CFI f305 .cfa: $rsp 8 +
STACK CFI INIT f306 27 .cfa: $rsp 8 + .ra: .cfa -8 + ^
STACK CFI f30a .cfa: $rsp 32 +
STACK CFI f32c .cfa: $rsp 8 +
STACK CFI INIT f32e 7 .cfa: $rsp 8 + .ra: .cfa -8 + ^
STACK CFI INIT f336 58 .cfa: $rsp 8 + .ra: .cfa -8 + ^
STACK CFI f33a .cfa: $rsp 32 +
STACK CFI f38d .cfa: $rsp 8 +
STACK CFI INIT f38e 4e .cfa: $rsp 8 + .ra: .cfa -8 + ^
STACK CFI f392 .cfa: $rsp 32 +
STACK CFI f3db .cfa: $rsp 8 +
STACK CFI INIT f3dc 20 .cfa: $rsp 8 + .ra: .cfa -8 + ^
STACK CFI f3e0 .cfa: $rsp 32 +
STACK CFI f3fb .cfa: $rsp 8 +
STACK CFI INIT f3fc b .cfa: $rsp 8 + .ra: .cfa -8 + ^
STACK CFI INIT f408 19 .cfa: $rsp 8 + .ra: .cfa -8 + ^
STACK CFI INIT f421 c8 .cfa: $rsp 8 + .ra: .cfa -8 + ^
STACK CFI f422 .cfa: $rsp 16 + $rbx: .cfa -16 + ^
STACK CFI f426 .cfa: $rsp 64 +
STACK CFI f4e7 .cfa: $rsp 16 +
STACK CFI f4e8 .cfa: $rsp 8 +
STACK CFI INIT f4e9 33 .cfa: $rsp 8 + .ra: .cfa -8 + ^
STACK CFI f4ed .cfa: $rsp 48 +
STACK CFI f51b .cfa: $rsp 8 +
STACK CFI INIT f51c 27 .cfa: $rsp 8 + .ra: .cfa -8 + ^
STACK CFI f520 .cfa: $rsp 32 +
STACK CFI f542 .cfa: $rsp 8 +
STACK CFI INIT f543 27 .cfa: $rsp 8 + .ra: .cfa -8 + ^
STACK CFI f547 .cfa: $rsp 32 +
STACK CFI f569 .cfa: $rsp 8 +
STACK CFI INIT f56a 2b .cfa: $rsp 8 + .ra: .cfa -8 + ^
STACK CFI f56e .cfa: $rsp 32 +
STACK CFI f594 .cfa: $rsp 8 +
STACK CFI INIT f595 27 .cfa: $rsp 8 + .ra: .cfa -8 + ^
STACK CFI f599 .cfa: $rsp 32 +
STACK CFI f5bb .cfa: $rsp 8 +
STACK CFI INIT f5bc 2b .cfa: $rsp 8 + .ra: .cfa -8 + ^
STACK CFI f5c0 .cfa: $rsp 32 +
STACK CFI f5e6 .cfa: $rsp 8 +
STACK CFI INIT f5e8 45 .cfa: $rsp 8 + .ra: .cfa -8 + ^
STACK CFI f5e9 .cfa: $rsp 16 + $rbx: .cfa -16 + ^
STACK CFI f5ed .cfa: $rsp 48 +
STACK CFI f62b .cfa: $rsp 16 +
STACK CFI f62c .cfa: $rsp 8 +
STACK CFI INIT f62e 27 .cfa: $rsp 8 + .ra: .cfa -8 + ^
STACK CFI f632 .cfa: $rsp 32 +
STACK CFI f654 .cfa: $rsp 8 +
STACK CFI INIT f655 1f .cfa: $rsp 8 + .ra: .cfa -8 + ^
STACK CFI f659 .cfa: $rsp 32 +
STACK CFI f673 .cfa: $rsp 8 +
STACK CFI INIT f674 2b .cfa: $rsp 8 + .ra: .cfa -8 + ^
STACK CFI f678 .cfa: $rsp 32 +
STACK CFI f69e .cfa: $rsp 8 +
STACK CFI INIT f69f 29 .cfa: $rsp 8 + .ra: .cfa -8 + ^
STACK CFI f6a3 .cfa: $rsp 32 +
STACK CFI f6c7 .cfa: $rsp 8 +
STACK CFI INIT f6c8 1f .cfa: $rsp 8 + .ra: .cfa -8 + ^
STACK CFI INIT f6e8 e .cfa: $rsp 8 + .ra: .cfa -8 + ^
STACK CFI INIT f6f6 b .cfa: $rsp 8 + .ra: .cfa -8 + ^
STACK CFI INIT f701 3e .cfa: $rsp 8 + .ra: .cfa -8 + ^
STACK CFI f705 .cfa: $rsp 48 +
STACK CFI f73e .cfa: $rsp 8 +
STACK CFI INIT f740 11 .cfa: $rsp 8 + .ra: .cfa -8 + ^
STACK CFI INIT f752 c .cfa: $rsp 8 + .ra: .cfa -8 + ^
STACK CFI INIT f75e 27 .cfa: $rsp 8 + .ra: .cfa -8 + ^
STACK CFI f762 .cfa: $rsp 32 +
STACK CFI f784 .cfa: $rsp 8 +
STACK CFI INIT f785 1f .cfa: $rsp 8 + .ra: .cfa -8 + ^
STACK CFI f789 .cfa: $rsp 32 +
STACK CFI f7a3 .cfa: $rsp 8 +
STACK CFI INIT f7a4 29 .cfa: $rsp 8 + .ra: .cfa -8 + ^
STACK CFI f7a8 .cfa: $rsp 32 +
STACK CFI f7cc .cfa: $rsp 8 +
STACK CFI INIT f7ce 1f .cfa: $rsp 8 + .ra: .cfa -8 + ^
STACK CFI INIT f7ee e .cfa: $rsp 8 + .ra: .cfa -8 + ^
STACK CFI INIT f7fc b .cfa: $rsp 8 + .ra: .cfa -8 + ^
STACK CFI INIT f807 3e .cfa: $rsp 8 + .ra: .cfa -8 + ^
STACK CFI f80b .cfa: $rsp 48 +
STACK CFI f844 .cfa: $rsp 8 +
STACK CFI INIT f846 11 .cfa: $rsp 8 + .ra: .cfa -8 + ^
STACK CFI INIT f858 c .cfa: $rsp 8 + .ra: .cfa -8 + ^
STACK CFI INIT f864 27 .cfa: $rsp 8 + .ra: .cfa -8 + ^
STACK CFI f868 .cfa: $rsp 32 +
STACK CFI f88a .cfa: $rsp 8 +
STACK CFI INIT f88b 1f .cfa: $rsp 8 + .ra: .cfa -8 + ^
STACK CFI f88f .cfa: $rsp 32 +
STACK CFI f8a9 .cfa: $rsp 8 +
STACK CFI INIT f8aa 29 .cfa: $rsp 8 + .ra: .cfa -8 + ^
STACK CFI f8ae .cfa: $rsp 32 +
STACK CFI f8d2 .cfa: $rsp 8 +
STACK CFI INIT f8d4 1f .cfa: $rsp 8 + .ra: .cfa -8 + ^
STACK CFI INIT f8f4 e .cfa: $rsp 8 + .ra: .cfa -8 + ^
STACK CFI INIT f902 b .cfa: $rsp 8 + .ra: .cfa -8 + ^
STACK CFI INIT f90d 3e .cfa: $rsp 8 + .ra: .cfa -8 + ^
STACK CFI f911 .cfa: $rsp 48 +
STACK CFI f94a .cfa: $rsp 8 +
STACK CFI INIT f94c 11 .cfa: $rsp 8 + .ra: .cfa -8 + ^
STACK CFI INIT f95e c .cfa: $rsp 8 + .ra: .cfa -8 + ^
STACK CFI INIT f96a 27 .cfa: $rsp 8 + .ra: .cfa -8 + ^
STACK CFI f96e .cfa: $rsp 32 +
STACK CFI f990 .cfa: $rsp 8 +
STACK CFI INIT f992 59 .cfa: $rsp 8 + .ra: .cfa -8 + ^
STACK CFI f996 .cfa: $rsp 64 +
STACK CFI f9ea .cfa: $rsp 8 +
STACK CFI INIT f9eb 27 .cfa: $rsp 8 + .ra: .cfa -8 + ^
STACK CFI f9ef .cfa: $rsp 32 +
STACK CFI fa11 .cfa: $rsp 8 +
STACK CFI INIT fa12 59 .cfa: $rsp 8 + .ra: .cfa -8 + ^
STACK CFI fa16 .cfa: $rsp 64 +
STACK CFI fa6a .cfa: $rsp 8 +
STACK CFI INIT fa6c c .cfa: $rsp 8 + .ra: .cfa -8 + ^
STACK CFI INIT fa78 10 .cfa: $rsp 8 + .ra: .cfa -8 + ^
STACK CFI INIT fa88 59 .cfa: $rsp 8 + .ra: .cfa -8 + ^
STACK CFI fa8c .cfa: $rsp 64 +
STACK CFI fae0 .cfa: $rsp 8 +
STACK CFI INIT fae1 36 .cfa: $rsp 8 + .ra: .cfa -8 + ^
STACK CFI fae2 .cfa: $rsp 16 + $rbx: .cfa -16 + ^
STACK CFI fae6 .cfa: $rsp 32 +
STACK CFI fb15 .cfa: $rsp 16 +
STACK CFI fb16 .cfa: $rsp 8 +
STACK CFI INIT fb17 3e .cfa: $rsp 8 + .ra: .cfa -8 + ^
STACK CFI fb1b .cfa: $rsp 48 +
STACK CFI fb54 .cfa: $rsp 8 +
STACK CFI INIT fb56 c .cfa: $rsp 8 + .ra: .cfa -8 + ^
STACK CFI INIT fb62 10 .cfa: $rsp 8 + .ra: .cfa -8 + ^
STACK CFI INIT fb72 36 .cfa: $rsp 8 + .ra: .cfa -8 + ^
STACK CFI fb73 .cfa: $rsp 16 + $rbx: .cfa -16 + ^
STACK CFI fb77 .cfa: $rsp 32 +
STACK CFI fba6 .cfa: $rsp 16 +
STACK CFI fba7 .cfa: $rsp 8 +
STACK CFI INIT fba8 3e .cfa: $rsp 8 + .ra: .cfa -8 + ^
STACK CFI fbac .cfa: $rsp 48 +
STACK CFI fbe5 .cfa: $rsp 8 +
STACK CFI INIT fbe6 c .cfa: $rsp 8 + .ra: .cfa -8 + ^
STACK CFI INIT fbf2 10 .cfa: $rsp 8 + .ra: .cfa -8 + ^
STACK CFI INIT fc02 36 .cfa: $rsp 8 + .ra: .cfa -8 + ^
STACK CFI fc03 .cfa: $rsp 16 + $rbx: .cfa -16 + ^
STACK CFI fc07 .cfa: $rsp 32 +
STACK CFI fc36 .cfa: $rsp 16 +
STACK CFI fc37 .cfa: $rsp 8 +
STACK CFI INIT fc38 3e .cfa: $rsp 8 + .ra: .cfa -8 + ^
STACK CFI fc3c .cfa: $rsp 48 +
STACK CFI fc75 .cfa: $rsp 8 +
STACK CFI INIT fc76 30 .cfa: $rsp 8 + .ra: .cfa -8 + ^
STACK CFI fc7a .cfa: $rsp 32 +
STACK CFI fca5 .cfa: $rsp 8 +
STACK CFI INIT fca6 30 .cfa: $rsp 8 + .ra: .cfa -8 + ^
STACK CFI fcaa .cfa: $rsp 32 +
STACK CFI fcd5 .cfa: $rsp 8 +
STACK CFI INIT fcd6 e .cfa: $rsp 8 + .ra: .cfa -8 + ^
STACK CFI INIT fce4 43 .cfa: $rsp 8 + .ra: .cfa -8 + ^
STACK CFI fce5 .cfa: $rsp 16 + $rbx: .cfa -16 + ^
STACK CFI fce9 .cfa: $rsp 48 +
STACK CFI fd25 .cfa: $rsp 16 +
STACK CFI fd26 .cfa: $rsp 8 +
STACK CFI INIT fd28 e .cfa: $rsp 8 + .ra: .cfa -8 + ^
STACK CFI INIT fd36 45 .cfa: $rsp 8 + .ra: .cfa -8 + ^
STACK CFI fd37 .cfa: $rsp 16 + $rbx: .cfa -16 + ^
STACK CFI fd3b .cfa: $rsp 48 +
STACK CFI fd79 .cfa: $rsp 16 +
STACK CFI fd7a .cfa: $rsp 8 +
STACK CFI INIT fd7c e .cfa: $rsp 8 + .ra: .cfa -8 + ^
STACK CFI INIT fd8a 45 .cfa: $rsp 8 + .ra: .cfa -8 + ^
STACK CFI fd8b .cfa: $rsp 16 + $rbx: .cfa -16 + ^
STACK CFI fd8f .cfa: $rsp 48 +
STACK CFI fdcd .cfa: $rsp 16 +
STACK CFI fdce .cfa: $rsp 8 +
STACK CFI INIT fdd0 4f .cfa: $rsp 8 + .ra: .cfa -8 + ^
STACK CFI fdd4 .cfa: $rsp 48 +
STACK CFI fe1e .cfa: $rsp 8 +
STACK CFI INIT fe1f 5f .cfa: $rsp 8 + .ra: .cfa -8 + ^
STACK CFI fe23 .cfa: $rsp 48 +
STACK CFI fe7d .cfa: $rsp 8 +
STACK CFI INIT fe7e 5f .cfa: $rsp 8 + .ra: .cfa -8 + ^
STACK CFI fe82 .cfa: $rsp 48 +
STACK CFI fedc .cfa: $rsp 8 +
STACK CFI INIT fedd 6e .cfa: $rsp 8 + .ra: .cfa -8 + ^
STACK CFI fee1 .cfa: $rsp 64 +
STACK CFI ff4a .cfa: $rsp 8 +
STACK CFI INIT ff4b 60 .cfa: $rsp 8 + .ra: .cfa -8 + ^
STACK CFI ff4f .cfa: $rsp 64 +
STACK CFI ffaa .cfa: $rsp 8 +
STACK CFI INIT ffab 6e .cfa: $rsp 8 + .ra: .cfa -8 + ^
STACK CFI ffaf .cfa: $rsp 64 +
STACK CFI 10018 .cfa: $rsp 8 +
STACK CFI INIT 10019 2d .cfa: $rsp 8 + .ra: .cfa -8 + ^
STACK CFI 1001d .cfa: $rsp 32 +
STACK CFI 10045 .cfa: $rsp 8 +
STACK CFI INIT 10046 92 .cfa: $rsp 8 + .ra: .cfa -8 + ^
STACK CFI 10048 .cfa: $rsp 16 + $r12: .cfa -16 + ^
STACK CFI 10049 .cfa: $rsp 24 + $rbp: .cfa -24 + ^
STACK CFI 1004a .cfa: $rsp 32 + $rbx: .cfa -32 + ^
STACK CFI 1004e .cfa: $rsp 96 +
STACK CFI 100d3 .cfa: $rsp 32 +
STACK CFI 100d4 .cfa: $rsp 24 +
STACK CFI 100d5 .cfa: $rsp 16 +
STACK CFI 100d7 .cfa: $rsp 8 +
STACK CFI INIT 10d5e 22 .cfa: $rsp 8 + .ra: .cfa -8 + ^
STACK CFI INIT 10d80 e4 .cfa: $rsp 8 + .ra: .cfa -8 + ^
STACK CFI 10d84 .cfa: $rsp 48 +
STACK CFI 10e63 .cfa: $rsp 8 +
STACK CFI INIT 10e64 83 .cfa: $rsp 8 + .ra: .cfa -8 + ^
STACK CFI 10e68 .cfa: $rsp 48 +
STACK CFI 10ee6 .cfa: $rsp 8 +
STACK CFI INIT 100d8 13c .cfa: $rsp 8 + .ra: .cfa -8 + ^
STACK CFI 100df .cfa: $rsp 256 +
STACK CFI 10213 .cfa: $rsp 8 +
STACK CFI INIT 10214 2e .cfa: $rsp 8 + .ra: .cfa -8 + ^
STACK CFI 10218 .cfa: $rsp 32 +
STACK CFI 10241 .cfa: $rsp 8 +
STACK CFI INIT 10242 4c .cfa: $rsp 8 + .ra: .cfa -8 + ^
STACK CFI 10246 .cfa: $rsp 32 +
STACK CFI 1028d .cfa: $rsp 8 +
STACK CFI INIT 1028e 120 .cfa: $rsp 8 + .ra: .cfa -8 + ^
STACK CFI 10292 .cfa: $rsp 80 +
STACK CFI 103ad .cfa: $rsp 8 +
STACK CFI INIT 103ae 10c .cfa: $rsp 8 + .ra: .cfa -8 + ^
STACK CFI 103b2 .cfa: $rsp 112 +
STACK CFI 104b9 .cfa: $rsp 8 +
STACK CFI INIT 104ba db .cfa: $rsp 8 + .ra: .cfa -8 + ^
STACK CFI 104be .cfa: $rsp 80 +
STACK CFI 10594 .cfa: $rsp 8 +
STACK CFI INIT 10596 d3 .cfa: $rsp 8 + .ra: .cfa -8 + ^
STACK CFI 1059a .cfa: $rsp 80 +
STACK CFI 10668 .cfa: $rsp 8 +
STACK CFI INIT 1066a 323 .cfa: $rsp 8 + .ra: .cfa -8 + ^
STACK CFI 1066b .cfa: $rsp 16 + $rbx: .cfa -16 + ^
STACK CFI 10672 .cfa: $rsp 368 +
STACK CFI 1098b .cfa: $rsp 16 +
STACK CFI 1098c .cfa: $rsp 8 +
STACK CFI INIT 1098e b .cfa: $rsp 8 + .ra: .cfa -8 + ^
STACK CFI INIT 1099a 16a .cfa: $rsp 8 + .ra: .cfa -8 + ^
STACK CFI 1099b .cfa: $rsp 16 + $rbp: .cfa -16 + ^
STACK CFI 1099c .cfa: $rsp 24 + $rbx: .cfa -24 + ^
STACK CFI 109a0 .cfa: $rsp 64 +
STACK CFI 10b01 .cfa: $rsp 24 +
STACK CFI 10b02 .cfa: $rsp 16 +
STACK CFI 10b03 .cfa: $rsp 8 +
STACK CFI INIT 10b04 a1 .cfa: $rsp 8 + .ra: .cfa -8 + ^
STACK CFI 10b08 .cfa: $rsp 48 +
STACK CFI 10ba4 .cfa: $rsp 8 +
STACK CFI INIT 10ba6 1b7 .cfa: $rsp 8 + .ra: .cfa -8 + ^
STACK CFI 10ba7 .cfa: $rsp 16 + $rbx: .cfa -16 + ^
STACK CFI 10bae .cfa: $rsp 336 +
STACK CFI 10d5b .cfa: $rsp 16 +
STACK CFI 10d5c .cfa: $rsp 8 +
STACK CFI INIT 10ee8 20 .cfa: $rsp 8 + .ra: .cfa -8 + ^
STACK CFI INIT 10f08 93 .cfa: $rsp 8 + .ra: .cfa -8 + ^
STACK CFI 10f0c .cfa: $rsp 32 +
STACK CFI 10f9a .cfa: $rsp 8 +
STACK CFI INIT 10f9c 73 .cfa: $rsp 8 + .ra: .cfa -8 + ^
STACK CFI 10fa0 .cfa: $rsp 32 +
STACK CFI 1100e .cfa: $rsp 8 +
STACK CFI INIT 11010 234 .cfa: $rsp 8 + .ra: .cfa -8 + ^
STACK CFI 11011 .cfa: $rsp 16 + $rbx: .cfa -16 + ^
STACK CFI 11015 .cfa: $rsp 64 +
STACK CFI 11242 .cfa: $rsp 16 +
STACK CFI 11243 .cfa: $rsp 8 +
STACK CFI INIT 11244 48 .cfa: $rsp 8 + .ra: .cfa -8 + ^
STACK CFI 11248 .cfa: $rsp 32 +
STACK CFI 1128b .cfa: $rsp 8 +
STACK CFI INIT 1128c b .cfa: $rsp 8 + .ra: .cfa -8 + ^
STACK CFI INIT 11297 3e .cfa: $rsp 8 + .ra: .cfa -8 + ^
STACK CFI 1129b .cfa: $rsp 48 +
STACK CFI 112d4 .cfa: $rsp 8 +
STACK CFI INIT 112d6 216 .cfa: $rsp 8 + .ra: .cfa -8 + ^
STACK CFI 112d7 .cfa: $rsp 16 + $rbx: .cfa -16 + ^
STACK CFI 112db .cfa: $rsp 64 +
STACK CFI 114ea .cfa: $rsp 16 +
STACK CFI 114eb .cfa: $rsp 8 +
STACK CFI INIT 114ec 9b .cfa: $rsp 8 + .ra: .cfa -8 + ^
STACK CFI 114ed .cfa: $rsp 16 + $rbx: .cfa -16 + ^
STACK CFI 114f1 .cfa: $rsp 64 +
STACK CFI 11585 .cfa: $rsp 16 +
STACK CFI 11586 .cfa: $rsp 8 +
STACK CFI INIT 11588 fc .cfa: $rsp 8 + .ra: .cfa -8 + ^
STACK CFI 11589 .cfa: $rsp 16 + $rbx: .cfa -16 + ^
STACK CFI 1158d .cfa: $rsp 80 +
STACK CFI 11682 .cfa: $rsp 16 +
STACK CFI 11683 .cfa: $rsp 8 +
STACK CFI INIT 11684 55 .cfa: $rsp 8 + .ra: .cfa -8 + ^
STACK CFI 11685 .cfa: $rsp 16 + $rbx: .cfa -16 + ^
STACK CFI 11689 .cfa: $rsp 48 +
STACK CFI 116d7 .cfa: $rsp 16 +
STACK CFI 116d8 .cfa: $rsp 8 +
STACK CFI INIT 116d9 3e .cfa: $rsp 8 + .ra: .cfa -8 + ^
STACK CFI 116dd .cfa: $rsp 48 +
STACK CFI 11716 .cfa: $rsp 8 +
STACK CFI INIT 11717 27 .cfa: $rsp 8 + .ra: .cfa -8 + ^
STACK CFI 1171b .cfa: $rsp 32 +
STACK CFI 1173d .cfa: $rsp 8 +
STACK CFI INIT 1173e 43 .cfa: $rsp 8 + .ra: .cfa -8 + ^
STACK CFI 1173f .cfa: $rsp 16 + $rbx: .cfa -16 + ^
STACK CFI 11743 .cfa: $rsp 48 +
STACK CFI 1177f .cfa: $rsp 16 +
STACK CFI 11780 .cfa: $rsp 8 +
STACK CFI INIT 11781 27 .cfa: $rsp 8 + .ra: .cfa -8 + ^
STACK CFI 11785 .cfa: $rsp 32 +
STACK CFI 117a7 .cfa: $rsp 8 +
STACK CFI INIT 117a8 2f .cfa: $rsp 8 + .ra: .cfa -8 + ^
STACK CFI 117ac .cfa: $rsp 32 +
STACK CFI 117d6 .cfa: $rsp 8 +
STACK CFI INIT 117d8 4f .cfa: $rsp 8 + .ra: .cfa -8 + ^
STACK CFI 117dc .cfa: $rsp 48 +
STACK CFI 11826 .cfa: $rsp 8 +
STACK CFI INIT 11827 56 .cfa: $rsp 8 + .ra: .cfa -8 + ^
STACK CFI 1182b .cfa: $rsp 48 +
STACK CFI 1187c .cfa: $rsp 8 +
STACK CFI INIT 1187d 5f .cfa: $rsp 8 + .ra: .cfa -8 + ^
STACK CFI 11881 .cfa: $rsp 48 +
STACK CFI 118db .cfa: $rsp 8 +
STACK CFI INIT 118dc 60 .cfa: $rsp 8 + .ra: .cfa -8 + ^
STACK CFI 118e0 .cfa: $rsp 64 +
STACK CFI 1193b .cfa: $rsp 8 +
STACK CFI INIT 1193c 92 .cfa: $rsp 8 + .ra: .cfa -8 + ^
STACK CFI 1193e .cfa: $rsp 16 + $r12: .cfa -16 + ^
STACK CFI 1193f .cfa: $rsp 24 + $rbp: .cfa -24 + ^
STACK CFI 11940 .cfa: $rsp 32 + $rbx: .cfa -32 + ^
STACK CFI 11944 .cfa: $rsp 96 +
STACK CFI 119c9 .cfa: $rsp 32 +
STACK CFI 119ca .cfa: $rsp 24 +
STACK CFI 119cb .cfa: $rsp 16 +
STACK CFI 119cd .cfa: $rsp 8 +
STACK CFI INIT 15a02 f .cfa: $rsp 8 + .ra: .cfa -8 + ^
STACK CFI INIT 15a12 11 .cfa: $rsp 8 + .ra: .cfa -8 + ^
STACK CFI INIT 15a24 e .cfa: $rsp 8 + .ra: .cfa -8 + ^
STACK CFI INIT 15a32 42 .cfa: $rsp 8 + .ra: .cfa -8 + ^
STACK CFI 15a36 .cfa: $rsp 32 +
STACK CFI 15a73 .cfa: $rsp 8 +
STACK CFI INIT 15a74 e .cfa: $rsp 8 + .ra: .cfa -8 + ^
STACK CFI INIT 15a82 51 .cfa: $rsp 8 + .ra: .cfa -8 + ^
STACK CFI 15a86 .cfa: $rsp 48 +
STACK CFI 15ad2 .cfa: $rsp 8 +
STACK CFI INIT 15ad4 37 .cfa: $rsp 8 + .ra: .cfa -8 + ^
STACK CFI 15ad8 .cfa: $rsp 48 +
STACK CFI 15b0a .cfa: $rsp 8 +
STACK CFI INIT 15b0c 35 .cfa: $rsp 8 + .ra: .cfa -8 + ^
STACK CFI 15b10 .cfa: $rsp 32 +
STACK CFI 15b40 .cfa: $rsp 8 +
STACK CFI INIT 15b42 1d2 .cfa: $rsp 8 + .ra: .cfa -8 + ^
STACK CFI 15b46 .cfa: $rsp 80 +
STACK CFI 15d13 .cfa: $rsp 8 +
STACK CFI INIT 15d14 61 .cfa: $rsp 8 + .ra: .cfa -8 + ^
STACK CFI 15d18 .cfa: $rsp 32 +
STACK CFI 15d74 .cfa: $rsp 8 +
STACK CFI INIT 15d76 1c .cfa: $rsp 8 + .ra: .cfa -8 + ^
STACK CFI 15d7a .cfa: $rsp 32 +
STACK CFI 15d91 .cfa: $rsp 8 +
STACK CFI INIT 119ce 1db .cfa: $rsp 8 + .ra: .cfa -8 + ^
STACK CFI 119cf .cfa: $rsp 16 + $rbx: .cfa -16 + ^
STACK CFI 119d3 .cfa: $rsp 80 +
STACK CFI 11ba7 .cfa: $rsp 16 +
STACK CFI 11ba8 .cfa: $rsp 8 +
STACK CFI INIT 11baa 156 .cfa: $rsp 8 + .ra: .cfa -8 + ^
STACK CFI 11bae .cfa: $rsp 32 +
STACK CFI 11cff .cfa: $rsp 8 +
STACK CFI INIT 11d00 6f .cfa: $rsp 8 + .ra: .cfa -8 + ^
STACK CFI 11d04 .cfa: $rsp 32 +
STACK CFI 11d6e .cfa: $rsp 8 +
STACK CFI INIT 11d70 1b1 .cfa: $rsp 8 + .ra: .cfa -8 + ^
STACK CFI 11d72 .cfa: $rsp 16 + $r12: .cfa -16 + ^
STACK CFI 11d73 .cfa: $rsp 24 + $rbp: .cfa -24 + ^
STACK CFI 11d74 .cfa: $rsp 32 + $rbx: .cfa -32 + ^
STACK CFI 11d78 .cfa: $rsp 128 +
STACK CFI 11f1c .cfa: $rsp 32 +
STACK CFI 11f1d .cfa: $rsp 24 +
STACK CFI 11f1e .cfa: $rsp 16 +
STACK CFI 11f20 .cfa: $rsp 8 +
STACK CFI INIT 11f22 6ac .cfa: $rsp 8 + .ra: .cfa -8 + ^
STACK CFI 11f23 .cfa: $rsp 16 + $rbp: .cfa -16 + ^
STACK CFI 11f24 .cfa: $rsp 24 + $rbx: .cfa -24 + ^
STACK CFI 11f2b .cfa: $rsp 192 +
STACK CFI 125cb .cfa: $rsp 24 +
STACK CFI 125cc .cfa: $rsp 16 +
STACK CFI 125cd .cfa: $rsp 8 +
STACK CFI INIT 125ce 327 .cfa: $rsp 8 + .ra: .cfa -8 + ^
STACK CFI 125cf .cfa: $rsp 16 + $rbx: .cfa -16 + ^
STACK CFI 125d3 .cfa: $rsp 144 +
STACK CFI 128f3 .cfa: $rsp 16 +
STACK CFI 128f4 .cfa: $rsp 8 +
STACK CFI INIT 128f6 85f .cfa: $rsp 8 + .ra: .cfa -8 + ^
STACK CFI 128f8 .cfa: $rsp 16 + $r12: .cfa -16 + ^
STACK CFI 128f9 .cfa: $rsp 24 + $rbp: .cfa -24 + ^
STACK CFI 128fa .cfa: $rsp 32 + $rbx: .cfa -32 + ^
STACK CFI 12901 .cfa: $rsp 2384 +
STACK CFI 13150 .cfa: $rsp 32 +
STACK CFI 13151 .cfa: $rsp 24 +
STACK CFI 13152 .cfa: $rsp 16 +
STACK CFI 13154 .cfa: $rsp 8 +
STACK CFI INIT 13156 1e7 .cfa: $rsp 8 + .ra: .cfa -8 + ^
STACK CFI 13158 .cfa: $rsp 16 + $r12: .cfa -16 + ^
STACK CFI 13159 .cfa: $rsp 24 + $rbp: .cfa -24 + ^
STACK CFI 1315a .cfa: $rsp 32 + $rbx: .cfa -32 + ^
STACK CFI 1315e .cfa: $rsp 112 +
STACK CFI 13338 .cfa: $rsp 32 +
STACK CFI 13339 .cfa: $rsp 24 +
STACK CFI 1333a .cfa: $rsp 16 +
STACK CFI 1333c .cfa: $rsp 8 +
STACK CFI INIT 1333d 4e .cfa: $rsp 8 + .ra: .cfa -8 + ^
STACK CFI INIT 1338c 110 .cfa: $rsp 8 + .ra: .cfa -8 + ^
STACK CFI 1338d .cfa: $rsp 16 + $rbp: .cfa -16 + ^
STACK CFI 1338e .cfa: $rsp 24 + $rbx: .cfa -24 + ^
STACK CFI 13392 .cfa: $rsp 80 +
STACK CFI 13499 .cfa: $rsp 24 +
STACK CFI 1349a .cfa: $rsp 16 +
STACK CFI 1349b .cfa: $rsp 8 +
STACK CFI INIT 1349c 3bf .cfa: $rsp 8 + .ra: .cfa -8 + ^
STACK CFI 1349d .cfa: $rsp 16 + $rbx: .cfa -16 + ^
STACK CFI 134a4 .cfa: $rsp 272 +
STACK CFI 13859 .cfa: $rsp 16 +
STACK CFI 1385a .cfa: $rsp 8 +
STACK CFI INIT 1385c 2d1 .cfa: $rsp 8 + .ra: .cfa -8 + ^
STACK CFI 1385d .cfa: $rsp 16 + $rbp: .cfa -16 + ^
STACK CFI 1385e .cfa: $rsp 24 + $rbx: .cfa -24 + ^
STACK CFI 13865 .cfa: $rsp 736 +
STACK CFI 13b2a .cfa: $rsp 24 +
STACK CFI 13b2b .cfa: $rsp 16 +
STACK CFI 13b2c .cfa: $rsp 8 +
STACK CFI INIT 13b2e 19b .cfa: $rsp 8 + .ra: .cfa -8 + ^
STACK CFI 13b2f .cfa: $rsp 16 + $rbx: .cfa -16 + ^
STACK CFI 13b33 .cfa: $rsp 96 +
STACK CFI 13cc7 .cfa: $rsp 16 +
STACK CFI 13cc8 .cfa: $rsp 8 +
STACK CFI INIT 13cca 173 .cfa: $rsp 8 + .ra: .cfa -8 + ^
STACK CFI 13ccb .cfa: $rsp 16 + $rbx: .cfa -16 + ^
STACK CFI 13cd2 .cfa: $rsp 240 +
STACK CFI 13e3b .cfa: $rsp 16 +
STACK CFI 13e3c .cfa: $rsp 8 +
STACK CFI INIT 13e3e 11f .cfa: $rsp 8 + .ra: .cfa -8 + ^
STACK CFI 13e3f .cfa: $rsp 16 + $rbx: .cfa -16 + ^
STACK CFI 13e43 .cfa: $rsp 128 +
STACK CFI 13f5b .cfa: $rsp 16 +
STACK CFI 13f5c .cfa: $rsp 8 +
STACK CFI INIT 15d92 1c .cfa: $rsp 8 + .ra: .cfa -8 + ^
STACK CFI 15d96 .cfa: $rsp 32 +
STACK CFI 15dad .cfa: $rsp 8 +
STACK CFI INIT 13f5e 7f5 .cfa: $rsp 8 + .ra: .cfa -8 + ^
STACK CFI 13f60 .cfa: $rsp 16 + $r13: .cfa -16 + ^
STACK CFI 13f62 .cfa: $rsp 24 + $r12: .cfa -24 + ^
STACK CFI 13f63 .cfa: $rsp 32 + $rbp: .cfa -32 + ^
STACK CFI 13f64 .cfa: $rsp 40 + $rbx: .cfa -40 + ^
STACK CFI 13f6b .cfa: $rsp 640 +
STACK CFI 1474c .cfa: $rsp 40 +
STACK CFI 1474d .cfa: $rsp 32 +
STACK CFI 1474e .cfa: $rsp 24 +
STACK CFI 14750 .cfa: $rsp 16 +
STACK CFI 14752 .cfa: $rsp 8 +
STACK CFI INIT 14754 1a .cfa: $rsp 8 + .ra: .cfa -8 + ^
STACK CFI INIT 1476e 34 .cfa: $rsp 8 + .ra: .cfa -8 + ^
STACK CFI 1476f .cfa: $rsp 16 + $rbx: .cfa -16 + ^
STACK CFI 14773 .cfa: $rsp 32 +
STACK CFI 147a0 .cfa: $rsp 16 +
STACK CFI 147a1 .cfa: $rsp 8 +
STACK CFI INIT 147a2 1f .cfa: $rsp 8 + .ra: .cfa -8 + ^
STACK CFI 147a6 .cfa: $rsp 32 +
STACK CFI 147c0 .cfa: $rsp 8 +
STACK CFI INIT 147c2 2f .cfa: $rsp 8 + .ra: .cfa -8 + ^
STACK CFI INIT 147f2 401 .cfa: $rsp 8 + .ra: .cfa -8 + ^
STACK CFI 147f3 .cfa: $rsp 16 + $rbx: .cfa -16 + ^
STACK CFI 147fa .cfa: $rsp 304 +
STACK CFI 14bf1 .cfa: $rsp 16 +
STACK CFI 14bf2 .cfa: $rsp 8 +
STACK CFI INIT 14bf4 2a8 .cfa: $rsp 8 + .ra: .cfa -8 + ^
STACK CFI 14bf8 .cfa: $rsp 128 +
STACK CFI 14e9b .cfa: $rsp 8 +
STACK CFI INIT 14e9c 225 .cfa: $rsp 8 + .ra: .cfa -8 + ^
STACK CFI 14ea3 .cfa: $rsp 1072 +
STACK CFI 150c0 .cfa: $rsp 8 +
STACK CFI INIT 150c2 9f .cfa: $rsp 8 + .ra: .cfa -8 + ^
STACK CFI 150c9 .cfa: $rsp 320 +
STACK CFI 15160 .cfa: $rsp 8 +
STACK CFI INIT 15161 221 .cfa: $rsp 8 + .ra: .cfa -8 + ^
STACK CFI 15162 .cfa: $rsp 16 + $rbp: .cfa -16 + ^
STACK CFI 15165 .cfa: $rbp 16 +
STACK CFI 1516d $rbx: .cfa -24 + ^
STACK CFI 15381 .cfa: $rsp 8 +
STACK CFI INIT 15382 102 .cfa: $rsp 8 + .ra: .cfa -8 + ^
STACK CFI 15383 .cfa: $rsp 16 + $rbp: .cfa -16 + ^
STACK CFI 15386 .cfa: $rbp 16 +
STACK CFI 1538d $r14: .cfa -24 + ^ $rbx: .cfa -32 + ^
STACK CFI 15483 .cfa: $rsp 8 +
STACK CFI INIT 15484 ff .cfa: $rsp 8 + .ra: .cfa -8 + ^
STACK CFI 15485 .cfa: $rsp 16 + $rbp: .cfa -16 + ^
STACK CFI 15488 .cfa: $rbp 16 +
STACK CFI 1548f $r14: .cfa -24 + ^ $rbx: .cfa -32 + ^
STACK CFI 15582 .cfa: $rsp 8 +
STACK CFI INIT 15583 1ab .cfa: $rsp 8 + .ra: .cfa -8 + ^
STACK CFI 15584 .cfa: $rsp 16 + $rbp: .cfa -16 + ^
STACK CFI 15587 .cfa: $rbp 16 +
STACK CFI 1558f $rbx: .cfa -24 + ^
STACK CFI 1572d .cfa: $rsp 8 +
STACK CFI INIT 1572e 85 .cfa: $rsp 8 + .ra: .cfa -8 + ^
STACK CFI 15732 .cfa: $rsp 80 +
STACK CFI 15780 .cfa: $rsp 88 +
STACK CFI 15781 .cfa: $rsp 96 +
STACK CFI 15785 .cfa: $rsp 104 +
STACK CFI 15786 .cfa: $rsp 112 +
STACK CFI 1578a .cfa: $rsp 120 +
STACK CFI 1578e .cfa: $rsp 128 +
STACK CFI 157ae .cfa: $rsp 80 +
STACK CFI 157b2 .cfa: $rsp 8 +
STACK CFI INIT 157b3 80 .cfa: $rsp 8 + .ra: .cfa -8 + ^
STACK CFI 157b7 .cfa: $rsp 64 +
STACK CFI 15801 .cfa: $rsp 72 +
STACK CFI 15802 .cfa: $rsp 80 +
STACK CFI 15806 .cfa: $rsp 88 +
STACK CFI 15807 .cfa: $rsp 96 +
STACK CFI 1580b .cfa: $rsp 104 +
STACK CFI 1580f .cfa: $rsp 112 +
STACK CFI 1582e .cfa: $rsp 64 +
STACK CFI 15832 .cfa: $rsp 8 +
STACK CFI INIT 15833 7b .cfa: $rsp 8 + .ra: .cfa -8 + ^
STACK CFI 15837 .cfa: $rsp 80 +
STACK CFI 1588a .cfa: $rsp 88 +
STACK CFI 1588b .cfa: $rsp 96 +
STACK CFI 1588f .cfa: $rsp 104 +
STACK CFI 15890 .cfa: $rsp 112 +
STACK CFI 15894 .cfa: $rsp 120 +
STACK CFI 15898 .cfa: $rsp 128 +
STACK CFI 158a9 .cfa: $rsp 80 +
STACK CFI 158ad .cfa: $rsp 8 +
STACK CFI INIT 158ae 76 .cfa: $rsp 8 + .ra: .cfa -8 + ^
STACK CFI 158b2 .cfa: $rsp 64 +
STACK CFI 15901 .cfa: $rsp 72 +
STACK CFI 15902 .cfa: $rsp 80 +
STACK CFI 15906 .cfa: $rsp 88 +
STACK CFI 15907 .cfa: $rsp 96 +
STACK CFI 1590b .cfa: $rsp 104 +
STACK CFI 1590f .cfa: $rsp 112 +
STACK CFI 1591f .cfa: $rsp 64 +
STACK CFI 15923 .cfa: $rsp 8 +
STACK CFI INIT 15924 de .cfa: $rsp 8 + .ra: .cfa -8 + ^
STACK CFI 15925 .cfa: $rsp 16 + $rbx: .cfa -16 + ^
STACK CFI 1592c .cfa: $rsp 240 +
STACK CFI 15969 .cfa: $rsp 248 +
STACK CFI 1596b .cfa: $rsp 256 +
STACK CFI 1596d .cfa: $rsp 264 +
STACK CFI 1596f .cfa: $rsp 272 +
STACK CFI 1598b .cfa: $rsp 240 +
STACK CFI 15a00 .cfa: $rsp 16 +
STACK CFI 15a01 .cfa: $rsp 8 +
STACK CFI INIT 15dae 20 .cfa: $rsp 8 + .ra: .cfa -8 + ^
STACK CFI INIT 15dce 1c .cfa: $rsp 8 + .ra: .cfa -8 + ^
STACK CFI 15dd2 .cfa: $rsp 32 +
STACK CFI 15de9 .cfa: $rsp 8 +
STACK CFI INIT 15dea a6 .cfa: $rsp 8 + .ra: .cfa -8 + ^
STACK CFI 15deb .cfa: $rsp 16 + $rbx: .cfa -16 + ^
STACK CFI 15def .cfa: $rsp 80 +
STACK CFI 15e8e .cfa: $rsp 16 +
STACK CFI 15e8f .cfa: $rsp 8 +
STACK CFI INIT 15e90 49 .cfa: $rsp 8 + .ra: .cfa -8 + ^
STACK CFI 15e94 .cfa: $rsp 32 +
STACK CFI 15ed8 .cfa: $rsp 8 +
STACK CFI INIT 15eda 57 .cfa: $rsp 8 + .ra: .cfa -8 + ^
STACK CFI 15ede .cfa: $rsp 32 +
STACK CFI 15f30 .cfa: $rsp 8 +
STACK CFI INIT 15f32 29 .cfa: $rsp 8 + .ra: .cfa -8 + ^
STACK CFI 15f36 .cfa: $rsp 32 +
STACK CFI 15f5a .cfa: $rsp 8 +
STACK CFI INIT 15f5c 58 .cfa: $rsp 8 + .ra: .cfa -8 + ^
STACK CFI 15f60 .cfa: $rsp 32 +
STACK CFI 15fb3 .cfa: $rsp 8 +
STACK CFI INIT 15fb4 29 .cfa: $rsp 8 + .ra: .cfa -8 + ^
STACK CFI 15fb8 .cfa: $rsp 32 +
STACK CFI 15fdc .cfa: $rsp 8 +
STACK CFI INIT 15fde 32 .cfa: $rsp 8 + .ra: .cfa -8 + ^
STACK CFI 15fe2 .cfa: $rsp 32 +
STACK CFI 1600f .cfa: $rsp 8 +
STACK CFI INIT 16010 61 .cfa: $rsp 8 + .ra: .cfa -8 + ^
STACK CFI 16014 .cfa: $rsp 32 +
STACK CFI 16070 .cfa: $rsp 8 +
STACK CFI INIT 16072 f .cfa: $rsp 8 + .ra: .cfa -8 + ^
STACK CFI INIT 16082 7c .cfa: $rsp 8 + .ra: .cfa -8 + ^
STACK CFI 16083 .cfa: $rsp 16 + $rbp: .cfa -16 + ^
STACK CFI 16084 .cfa: $rsp 24 + $rbx: .cfa -24 + ^
STACK CFI 16088 .cfa: $rsp 64 +
STACK CFI 160fb .cfa: $rsp 24 +
STACK CFI 160fc .cfa: $rsp 16 +
STACK CFI 160fd .cfa: $rsp 8 +
STACK CFI INIT 160fe 73 .cfa: $rsp 8 + .ra: .cfa -8 + ^
STACK CFI 16102 .cfa: $rsp 32 +
STACK CFI 16170 .cfa: $rsp 8 +
STACK CFI INIT 16172 3f .cfa: $rsp 8 + .ra: .cfa -8 + ^
STACK CFI 16176 .cfa: $rsp 32 +
STACK CFI 161b0 .cfa: $rsp 8 +
STACK CFI INIT 161b2 29 .cfa: $rsp 8 + .ra: .cfa -8 + ^
STACK CFI 161b6 .cfa: $rsp 32 +
STACK CFI 161da .cfa: $rsp 8 +
STACK CFI INIT 161dc 79 .cfa: $rsp 8 + .ra: .cfa -8 + ^
STACK CFI 161e0 .cfa: $rsp 48 +
STACK CFI 16254 .cfa: $rsp 8 +
STACK CFI INIT 16256 f .cfa: $rsp 8 + .ra: .cfa -8 + ^
STACK CFI INIT 16266 4f .cfa: $rsp 8 + .ra: .cfa -8 + ^
STACK CFI 1626a .cfa: $rsp 32 +
STACK CFI 162b4 .cfa: $rsp 8 +
STACK CFI INIT 162b6 2c .cfa: $rsp 8 + .ra: .cfa -8 + ^
STACK CFI 162ba .cfa: $rsp 32 +
STACK CFI 162e1 .cfa: $rsp 8 +
STACK CFI INIT 162e2 35 .cfa: $rsp 8 + .ra: .cfa -8 + ^
STACK CFI 162e6 .cfa: $rsp 32 +
STACK CFI 16316 .cfa: $rsp 8 +
STACK CFI INIT 16318 f .cfa: $rsp 8 + .ra: .cfa -8 + ^
STACK CFI INIT 16328 84 .cfa: $rsp 8 + .ra: .cfa -8 + ^
STACK CFI 16329 .cfa: $rsp 16 + $rbp: .cfa -16 + ^
STACK CFI 1632a .cfa: $rsp 24 + $rbx: .cfa -24 + ^
STACK CFI 1632e .cfa: $rsp 64 +
STACK CFI 163a9 .cfa: $rsp 24 +
STACK CFI 163aa .cfa: $rsp 16 +
STACK CFI 163ab .cfa: $rsp 8 +
STACK CFI INIT 163ac 50 .cfa: $rsp 8 + .ra: .cfa -8 + ^
STACK CFI 163b0 .cfa: $rsp 48 +
STACK CFI 163fb .cfa: $rsp 8 +
STACK CFI INIT 163fc 4d .cfa: $rsp 8 + .ra: .cfa -8 + ^
STACK CFI 16400 .cfa: $rsp 48 +
STACK CFI 16448 .cfa: $rsp 8 +
STACK CFI INIT 1644a 21 .cfa: $rsp 8 + .ra: .cfa -8 + ^
STACK CFI INIT 1646c 1e .cfa: $rsp 8 + .ra: .cfa -8 + ^
STACK CFI INIT 1648a 22 .cfa: $rsp 8 + .ra: .cfa -8 + ^
STACK CFI 1648e .cfa: $rsp 32 +
STACK CFI 164ab .cfa: $rsp 8 +
STACK CFI INIT 164ac 1b .cfa: $rsp 8 + .ra: .cfa -8 + ^
STACK CFI 164b0 .cfa: $rsp 32 +
STACK CFI 164c6 .cfa: $rsp 8 +
STACK CFI INIT 164c8 32 .cfa: $rsp 8 + .ra: .cfa -8 + ^
STACK CFI 164cc .cfa: $rsp 32 +
STACK CFI 164f9 .cfa: $rsp 8 +
STACK CFI INIT 164fa 6c .cfa: $rsp 8 + .ra: .cfa -8 + ^
STACK CFI 164fe .cfa: $rsp 64 +
STACK CFI 16565 .cfa: $rsp 8 +
STACK CFI INIT 16566 25 .cfa: $rsp 8 + .ra: .cfa -8 + ^
STACK CFI INIT 1658c 20 .cfa: $rsp 8 + .ra: .cfa -8 + ^
STACK CFI INIT 165ac 4f .cfa: $rsp 8 + .ra: .cfa -8 + ^
STACK CFI 165b0 .cfa: $rsp 32 +
STACK CFI 165fa .cfa: $rsp 8 +
STACK CFI INIT 165fc 2c .cfa: $rsp 8 + .ra: .cfa -8 + ^
STACK CFI 16600 .cfa: $rsp 32 +
STACK CFI 16627 .cfa: $rsp 8 +
STACK CFI INIT 16628 35 .cfa: $rsp 8 + .ra: .cfa -8 + ^
STACK CFI 1662c .cfa: $rsp 32 +
STACK CFI 1665c .cfa: $rsp 8 +
STACK CFI INIT 1665e f .cfa: $rsp 8 + .ra: .cfa -8 + ^
STACK CFI INIT 1666e 4c .cfa: $rsp 8 + .ra: .cfa -8 + ^
STACK CFI 16672 .cfa: $rsp 32 +
STACK CFI 166b9 .cfa: $rsp 8 +
STACK CFI INIT 166ba 29 .cfa: $rsp 8 + .ra: .cfa -8 + ^
STACK CFI 166be .cfa: $rsp 32 +
STACK CFI 166e2 .cfa: $rsp 8 +
STACK CFI INIT 166e4 32 .cfa: $rsp 8 + .ra: .cfa -8 + ^
STACK CFI 166e8 .cfa: $rsp 32 +
STACK CFI 16715 .cfa: $rsp 8 +
STACK CFI INIT 16716 f .cfa: $rsp 8 + .ra: .cfa -8 + ^
STACK CFI INIT 16726 20 .cfa: $rsp 8 + .ra: .cfa -8 + ^
STACK CFI INIT 16746 59 .cfa: $rsp 8 + .ra: .cfa -8 + ^
STACK CFI 1674a .cfa: $rsp 32 +
STACK CFI 1679e .cfa: $rsp 8 +
STACK CFI INIT 167a0 29 .cfa: $rsp 8 + .ra: .cfa -8 + ^
STACK CFI 167a4 .cfa: $rsp 32 +
STACK CFI 167c8 .cfa: $rsp 8 +
STACK CFI INIT 167ca 61 .cfa: $rsp 8 + .ra: .cfa -8 + ^
STACK CFI 167ce .cfa: $rsp 32 +
STACK CFI 1682a .cfa: $rsp 8 +
STACK CFI INIT 1682c 7c .cfa: $rsp 8 + .ra: .cfa -8 + ^
STACK CFI 1682d .cfa: $rsp 16 + $rbp: .cfa -16 + ^
STACK CFI 1682e .cfa: $rsp 24 + $rbx: .cfa -24 + ^
STACK CFI 16832 .cfa: $rsp 64 +
STACK CFI 168a5 .cfa: $rsp 24 +
STACK CFI 168a6 .cfa: $rsp 16 +
STACK CFI 168a7 .cfa: $rsp 8 +
STACK CFI INIT 168a8 7e .cfa: $rsp 8 + .ra: .cfa -8 + ^
STACK CFI 168ac .cfa: $rsp 32 +
STACK CFI 16925 .cfa: $rsp 8 +
STACK CFI INIT 16926 29 .cfa: $rsp 8 + .ra: .cfa -8 + ^
STACK CFI 1692a .cfa: $rsp 32 +
STACK CFI 1694e .cfa: $rsp 8 +
STACK CFI INIT 16950 79 .cfa: $rsp 8 + .ra: .cfa -8 + ^
STACK CFI 16954 .cfa: $rsp 48 +
STACK CFI 169c8 .cfa: $rsp 8 +
STACK CFI INIT 169ca f .cfa: $rsp 8 + .ra: .cfa -8 + ^
STACK CFI INIT 169da 1c .cfa: $rsp 8 + .ra: .cfa -8 + ^
STACK CFI 169de .cfa: $rsp 32 +
STACK CFI 169f5 .cfa: $rsp 8 +
STACK CFI INIT 169f6 a6 .cfa: $rsp 8 + .ra: .cfa -8 + ^
STACK CFI 169f7 .cfa: $rsp 16 + $rbx: .cfa -16 + ^
STACK CFI 169fb .cfa: $rsp 80 +
STACK CFI 16a9a .cfa: $rsp 16 +
STACK CFI 16a9b .cfa: $rsp 8 +
STACK CFI INIT 16a9c 49 .cfa: $rsp 8 + .ra: .cfa -8 + ^
STACK CFI 16aa0 .cfa: $rsp 32 +
STACK CFI 16ae4 .cfa: $rsp 8 +
STACK CFI INIT 16ae6 8f .cfa: $rsp 8 + .ra: .cfa -8 + ^
STACK CFI 16aea .cfa: $rsp 32 +
STACK CFI 16b74 .cfa: $rsp 8 +
STACK CFI INIT 16b76 1c .cfa: $rsp 8 + .ra: .cfa -8 + ^
STACK CFI INIT 16b92 84 .cfa: $rsp 8 + .ra: .cfa -8 + ^
STACK CFI 16b93 .cfa: $rsp 16 + $rbp: .cfa -16 + ^
STACK CFI 16b94 .cfa: $rsp 24 + $rbx: .cfa -24 + ^
STACK CFI 16b98 .cfa: $rsp 64 +
STACK CFI 16c13 .cfa: $rsp 24 +
STACK CFI 16c14 .cfa: $rsp 16 +
STACK CFI 16c15 .cfa: $rsp 8 +
STACK CFI INIT 16c16 46 .cfa: $rsp 8 + .ra: .cfa -8 + ^
STACK CFI 16c1a .cfa: $rsp 32 +
STACK CFI 16c5b .cfa: $rsp 8 +
STACK CFI INIT 16c5c 1c .cfa: $rsp 8 + .ra: .cfa -8 + ^
STACK CFI 16c60 .cfa: $rsp 32 +
STACK CFI 16c77 .cfa: $rsp 8 +
STACK CFI INIT 16c78 27 .cfa: $rsp 8 + .ra: .cfa -8 + ^
STACK CFI 16c7c .cfa: $rsp 32 +
STACK CFI 16c9e .cfa: $rsp 8 +
STACK CFI INIT 16ca0 158 .cfa: $rsp 8 + .ra: .cfa -8 + ^
STACK CFI 16ca1 .cfa: $rsp 16 + $rbx: .cfa -16 + ^
STACK CFI 16ca5 .cfa: $rsp 48 +
STACK CFI 16df6 .cfa: $rsp 16 +
STACK CFI 16df7 .cfa: $rsp 8 +
STACK CFI INIT 16df8 1c .cfa: $rsp 8 + .ra: .cfa -8 + ^
STACK CFI 16dfc .cfa: $rsp 32 +
STACK CFI 16e13 .cfa: $rsp 8 +
STACK CFI INIT 16e14 57 .cfa: $rsp 8 + .ra: .cfa -8 + ^
STACK CFI 16e18 .cfa: $rsp 32 +
STACK CFI 16e6a .cfa: $rsp 8 +
STACK CFI INIT 16e6c b .cfa: $rsp 8 + .ra: .cfa -8 + ^
STACK CFI INIT 16e77 4d .cfa: $rsp 8 + .ra: .cfa -8 + ^
STACK CFI 16e7b .cfa: $rsp 48 +
STACK CFI 16ec3 .cfa: $rsp 8 +
STACK CFI INIT 16ec4 37 .cfa: $rsp 8 + .ra: .cfa -8 + ^
STACK CFI 16ec8 .cfa: $rsp 32 +
STACK CFI 16efa .cfa: $rsp 8 +
STACK CFI INIT 16efc 37 .cfa: $rsp 8 + .ra: .cfa -8 + ^
STACK CFI 16f00 .cfa: $rsp 32 +
STACK CFI 16f32 .cfa: $rsp 8 +
STACK CFI INIT 16f33 6 .cfa: $rsp 8 + .ra: .cfa -8 + ^
STACK CFI INIT 16f39 6 .cfa: $rsp 8 + .ra: .cfa -8 + ^
STACK CFI INIT 16f3f b .cfa: $rsp 8 + .ra: .cfa -8 + ^
STACK CFI INIT 16f4a 3e .cfa: $rsp 8 + .ra: .cfa -8 + ^
STACK CFI 16f4e .cfa: $rsp 48 +
STACK CFI 16f87 .cfa: $rsp 8 +
STACK CFI INIT 16f88 213 .cfa: $rsp 8 + .ra: .cfa -8 + ^
STACK CFI 16f89 .cfa: $rsp 16 + $rbx: .cfa -16 + ^
STACK CFI 16f8d .cfa: $rsp 64 +
STACK CFI 17199 .cfa: $rsp 16 +
STACK CFI 1719a .cfa: $rsp 8 +
STACK CFI INIT 1719c 37 .cfa: $rsp 8 + .ra: .cfa -8 + ^
STACK CFI 171a0 .cfa: $rsp 32 +
STACK CFI 171d2 .cfa: $rsp 8 +
STACK CFI INIT 171d3 6 .cfa: $rsp 8 + .ra: .cfa -8 + ^
STACK CFI INIT 171da 37 .cfa: $rsp 8 + .ra: .cfa -8 + ^
STACK CFI 171de .cfa: $rsp 32 +
STACK CFI 17210 .cfa: $rsp 8 +
STACK CFI INIT 17211 6 .cfa: $rsp 8 + .ra: .cfa -8 + ^
STACK CFI INIT 17218 19 .cfa: $rsp 8 + .ra: .cfa -8 + ^
STACK CFI INIT 17231 b .cfa: $rsp 8 + .ra: .cfa -8 + ^
STACK CFI INIT 1723c f .cfa: $rsp 8 + .ra: .cfa -8 + ^
STACK CFI INIT 1724c 5b .cfa: $rsp 8 + .ra: .cfa -8 + ^
STACK CFI 17250 .cfa: $rsp 64 +
STACK CFI 172a6 .cfa: $rsp 8 +
STACK CFI INIT 172a8 5b .cfa: $rsp 8 + .ra: .cfa -8 + ^
STACK CFI 172ac .cfa: $rsp 64 +
STACK CFI 17302 .cfa: $rsp 8 +
STACK CFI INIT 17303 39 .cfa: $rsp 8 + .ra: .cfa -8 + ^
STACK CFI 17304 .cfa: $rsp 16 + $rbx: .cfa -16 + ^
STACK CFI 17308 .cfa: $rsp 32 +
STACK CFI 1733a .cfa: $rsp 16 +
STACK CFI 1733b .cfa: $rsp 8 +
STACK CFI INIT 1733c 37 .cfa: $rsp 8 + .ra: .cfa -8 + ^
STACK CFI 17340 .cfa: $rsp 32 +
STACK CFI 17372 .cfa: $rsp 8 +
STACK CFI INIT 17373 6 .cfa: $rsp 8 + .ra: .cfa -8 + ^
STACK CFI INIT 1737a 37 .cfa: $rsp 8 + .ra: .cfa -8 + ^
STACK CFI 1737e .cfa: $rsp 32 +
STACK CFI 173b0 .cfa: $rsp 8 +
STACK CFI INIT 173b1 6 .cfa: $rsp 8 + .ra: .cfa -8 + ^
STACK CFI INIT 173b8 37 .cfa: $rsp 8 + .ra: .cfa -8 + ^
STACK CFI 173bc .cfa: $rsp 32 +
STACK CFI 173ee .cfa: $rsp 8 +
STACK CFI INIT 173ef 6 .cfa: $rsp 8 + .ra: .cfa -8 + ^
STACK CFI INIT 173f6 37 .cfa: $rsp 8 + .ra: .cfa -8 + ^
STACK CFI 173fa .cfa: $rsp 32 +
STACK CFI 1742c .cfa: $rsp 8 +
STACK CFI INIT 1742d 6 .cfa: $rsp 8 + .ra: .cfa -8 + ^
STACK CFI INIT 17434 46 .cfa: $rsp 8 + .ra: .cfa -8 + ^
STACK CFI 17438 .cfa: $rsp 32 +
STACK CFI 17479 .cfa: $rsp 8 +
STACK CFI INIT 1747a 27 .cfa: $rsp 8 + .ra: .cfa -8 + ^
STACK CFI 1747e .cfa: $rsp 32 +
STACK CFI 174a0 .cfa: $rsp 8 +
STACK CFI INIT 174a2 149 .cfa: $rsp 8 + .ra: .cfa -8 + ^
STACK CFI 174a3 .cfa: $rsp 16 + $rbx: .cfa -16 + ^
STACK CFI 174a7 .cfa: $rsp 48 +
STACK CFI 175e9 .cfa: $rsp 16 +
STACK CFI 175ea .cfa: $rsp 8 +
STACK CFI INIT 175ec 1c .cfa: $rsp 8 + .ra: .cfa -8 + ^
STACK CFI 175f0 .cfa: $rsp 32 +
STACK CFI 17607 .cfa: $rsp 8 +
STACK CFI INIT 17608 53 .cfa: $rsp 8 + .ra: .cfa -8 + ^
STACK CFI 1760c .cfa: $rsp 32 +
STACK CFI 1765a .cfa: $rsp 8 +
STACK CFI INIT 1765c b .cfa: $rsp 8 + .ra: .cfa -8 + ^
STACK CFI INIT 17667 4d .cfa: $rsp 8 + .ra: .cfa -8 + ^
STACK CFI 1766b .cfa: $rsp 48 +
STACK CFI 176b3 .cfa: $rsp 8 +
STACK CFI INIT 176b4 21 .cfa: $rsp 8 + .ra: .cfa -8 + ^
STACK CFI INIT 176d6 224 .cfa: $rsp 8 + .ra: .cfa -8 + ^
STACK CFI 176d7 .cfa: $rsp 16 + $rbx: .cfa -16 + ^
STACK CFI 176db .cfa: $rsp 64 +
STACK CFI 178f8 .cfa: $rsp 16 +
STACK CFI 178f9 .cfa: $rsp 8 +
STACK CFI INIT 178fa 48 .cfa: $rsp 8 + .ra: .cfa -8 + ^
STACK CFI 178fe .cfa: $rsp 32 +
STACK CFI 17941 .cfa: $rsp 8 +
STACK CFI INIT 17942 1c .cfa: $rsp 8 + .ra: .cfa -8 + ^
STACK CFI 17946 .cfa: $rsp 32 +
STACK CFI 1795d .cfa: $rsp 8 +
STACK CFI INIT 1795e 7 .cfa: $rsp 8 + .ra: .cfa -8 + ^
STACK CFI INIT 17966 27 .cfa: $rsp 8 + .ra: .cfa -8 + ^
STACK CFI 1796a .cfa: $rsp 32 +
STACK CFI 1798c .cfa: $rsp 8 +
STACK CFI INIT 1798e 23 .cfa: $rsp 8 + .ra: .cfa -8 + ^
STACK CFI 17992 .cfa: $rsp 32 +
STACK CFI 179b0 .cfa: $rsp 8 +
STACK CFI INIT 179b2 25 .cfa: $rsp 8 + .ra: .cfa -8 + ^
STACK CFI INIT 179d7 4d .cfa: $rsp 8 + .ra: .cfa -8 + ^
STACK CFI 179db .cfa: $rsp 48 +
STACK CFI 17a23 .cfa: $rsp 8 +
STACK CFI INIT 17a24 9f .cfa: $rsp 8 + .ra: .cfa -8 + ^
STACK CFI 17a25 .cfa: $rsp 16 + $rbx: .cfa -16 + ^
STACK CFI 17a29 .cfa: $rsp 80 +
STACK CFI 17ac1 .cfa: $rsp 16 +
STACK CFI 17ac2 .cfa: $rsp 8 +
STACK CFI INIT 17ac4 3b .cfa: $rsp 8 + .ra: .cfa -8 + ^
STACK CFI 17ac8 .cfa: $rsp 48 +
STACK CFI 17afe .cfa: $rsp 8 +
STACK CFI INIT 17aff b .cfa: $rsp 8 + .ra: .cfa -8 + ^
STACK CFI INIT 17b0a 27 .cfa: $rsp 8 + .ra: .cfa -8 + ^
STACK CFI 17b0e .cfa: $rsp 32 +
STACK CFI 17b30 .cfa: $rsp 8 +
STACK CFI INIT 17b31 3e .cfa: $rsp 8 + .ra: .cfa -8 + ^
STACK CFI 17b35 .cfa: $rsp 48 +
STACK CFI 17b6e .cfa: $rsp 8 +
STACK CFI INIT 17b70 fc .cfa: $rsp 8 + .ra: .cfa -8 + ^
STACK CFI 17b71 .cfa: $rsp 16 + $rbx: .cfa -16 + ^
STACK CFI 17b75 .cfa: $rsp 80 +
STACK CFI 17c6a .cfa: $rsp 16 +
STACK CFI 17c6b .cfa: $rsp 8 +
STACK CFI INIT 17c6c 34 .cfa: $rsp 8 + .ra: .cfa -8 + ^
STACK CFI 17c70 .cfa: $rsp 32 +
STACK CFI 17c9f .cfa: $rsp 8 +
STACK CFI INIT 17ca0 55 .cfa: $rsp 8 + .ra: .cfa -8 + ^
STACK CFI 17ca1 .cfa: $rsp 16 + $rbx: .cfa -16 + ^
STACK CFI 17ca5 .cfa: $rsp 48 +
STACK CFI 17cf3 .cfa: $rsp 16 +
STACK CFI 17cf4 .cfa: $rsp 8 +
STACK CFI INIT 17cf6 27 .cfa: $rsp 8 + .ra: .cfa -8 + ^
STACK CFI 17cfa .cfa: $rsp 32 +
STACK CFI 17d1c .cfa: $rsp 8 +
STACK CFI INIT 17d1e 23 .cfa: $rsp 8 + .ra: .cfa -8 + ^
STACK CFI 17d22 .cfa: $rsp 32 +
STACK CFI 17d40 .cfa: $rsp 8 +
STACK CFI INIT 17d42 21 .cfa: $rsp 8 + .ra: .cfa -8 + ^
STACK CFI INIT 17d63 4d .cfa: $rsp 8 + .ra: .cfa -8 + ^
STACK CFI 17d67 .cfa: $rsp 48 +
STACK CFI 17daf .cfa: $rsp 8 +
STACK CFI INIT 17db0 9f .cfa: $rsp 8 + .ra: .cfa -8 + ^
STACK CFI 17db1 .cfa: $rsp 16 + $rbx: .cfa -16 + ^
STACK CFI 17db5 .cfa: $rsp 80 +
STACK CFI 17e4d .cfa: $rsp 16 +
STACK CFI 17e4e .cfa: $rsp 8 +
STACK CFI INIT 17e50 3b .cfa: $rsp 8 + .ra: .cfa -8 + ^
STACK CFI 17e54 .cfa: $rsp 48 +
STACK CFI 17e8a .cfa: $rsp 8 +
STACK CFI INIT 17e8b b .cfa: $rsp 8 + .ra: .cfa -8 + ^
STACK CFI INIT 17e96 27 .cfa: $rsp 8 + .ra: .cfa -8 + ^
STACK CFI 17e9a .cfa: $rsp 32 +
STACK CFI 17ebc .cfa: $rsp 8 +
STACK CFI INIT 17ebd 9b .cfa: $rsp 8 + .ra: .cfa -8 + ^
STACK CFI 17ebe .cfa: $rsp 16 + $rbx: .cfa -16 + ^
STACK CFI 17ec2 .cfa: $rsp 64 +
STACK CFI 17f56 .cfa: $rsp 16 +
STACK CFI 17f57 .cfa: $rsp 8 +
STACK CFI INIT 17f58 fc .cfa: $rsp 8 + .ra: .cfa -8 + ^
STACK CFI 17f59 .cfa: $rsp 16 + $rbx: .cfa -16 + ^
STACK CFI 17f5d .cfa: $rsp 80 +
STACK CFI 18052 .cfa: $rsp 16 +
STACK CFI 18053 .cfa: $rsp 8 +
STACK CFI INIT 18054 34 .cfa: $rsp 8 + .ra: .cfa -8 + ^
STACK CFI 18058 .cfa: $rsp 32 +
STACK CFI 18087 .cfa: $rsp 8 +
STACK CFI INIT 18088 55 .cfa: $rsp 8 + .ra: .cfa -8 + ^
STACK CFI 18089 .cfa: $rsp 16 + $rbx: .cfa -16 + ^
STACK CFI 1808d .cfa: $rsp 48 +
STACK CFI 180db .cfa: $rsp 16 +
STACK CFI 180dc .cfa: $rsp 8 +
STACK CFI INIT 180de 7 .cfa: $rsp 8 + .ra: .cfa -8 + ^
STACK CFI INIT 180e6 58 .cfa: $rsp 8 + .ra: .cfa -8 + ^
STACK CFI 180ea .cfa: $rsp 32 +
STACK CFI 1813d .cfa: $rsp 8 +
STACK CFI INIT 1813e 4e .cfa: $rsp 8 + .ra: .cfa -8 + ^
STACK CFI 18142 .cfa: $rsp 32 +
STACK CFI 1818b .cfa: $rsp 8 +
STACK CFI INIT 1818c 20 .cfa: $rsp 8 + .ra: .cfa -8 + ^
STACK CFI 18190 .cfa: $rsp 32 +
STACK CFI 181ab .cfa: $rsp 8 +
STACK CFI INIT 181ac b .cfa: $rsp 8 + .ra: .cfa -8 + ^
STACK CFI INIT 181b8 19 .cfa: $rsp 8 + .ra: .cfa -8 + ^
STACK CFI INIT 181d1 c8 .cfa: $rsp 8 + .ra: .cfa -8 + ^
STACK CFI 181d2 .cfa: $rsp 16 + $rbx: .cfa -16 + ^
STACK CFI 181d6 .cfa: $rsp 64 +
STACK CFI 18297 .cfa: $rsp 16 +
STACK CFI 18298 .cfa: $rsp 8 +
STACK CFI INIT 18299 33 .cfa: $rsp 8 + .ra: .cfa -8 + ^
STACK CFI 1829d .cfa: $rsp 48 +
STACK CFI 182cb .cfa: $rsp 8 +
STACK CFI INIT 182cc 27 .cfa: $rsp 8 + .ra: .cfa -8 + ^
STACK CFI 182d0 .cfa: $rsp 32 +
STACK CFI 182f2 .cfa: $rsp 8 +
STACK CFI INIT 182f4 53 .cfa: $rsp 8 + .ra: .cfa -8 + ^
STACK CFI 182f5 .cfa: $rsp 16 + $rbx: .cfa -16 + ^
STACK CFI 182f9 .cfa: $rsp 48 +
STACK CFI 18345 .cfa: $rsp 16 +
STACK CFI 18346 .cfa: $rsp 8 +
STACK CFI INIT 18347 2b .cfa: $rsp 8 + .ra: .cfa -8 + ^
STACK CFI 1834b .cfa: $rsp 32 +
STACK CFI 18371 .cfa: $rsp 8 +
STACK CFI INIT 18372 58 .cfa: $rsp 8 + .ra: .cfa -8 + ^
STACK CFI 18376 .cfa: $rsp 32 +
STACK CFI 183c9 .cfa: $rsp 8 +
STACK CFI INIT 183ca 4e .cfa: $rsp 8 + .ra: .cfa -8 + ^
STACK CFI 183ce .cfa: $rsp 32 +
STACK CFI 18417 .cfa: $rsp 8 +
STACK CFI INIT 18418 20 .cfa: $rsp 8 + .ra: .cfa -8 + ^
STACK CFI 1841c .cfa: $rsp 32 +
STACK CFI 18437 .cfa: $rsp 8 +
STACK CFI INIT 18438 b .cfa: $rsp 8 + .ra: .cfa -8 + ^
STACK CFI INIT 18444 19 .cfa: $rsp 8 + .ra: .cfa -8 + ^
STACK CFI INIT 1845d c8 .cfa: $rsp 8 + .ra: .cfa -8 + ^
STACK CFI 1845e .cfa: $rsp 16 + $rbx: .cfa -16 + ^
STACK CFI 18462 .cfa: $rsp 64 +
STACK CFI 18523 .cfa: $rsp 16 +
STACK CFI 18524 .cfa: $rsp 8 +
STACK CFI INIT 18525 33 .cfa: $rsp 8 + .ra: .cfa -8 + ^
STACK CFI 18529 .cfa: $rsp 48 +
STACK CFI 18557 .cfa: $rsp 8 +
STACK CFI INIT 18558 27 .cfa: $rsp 8 + .ra: .cfa -8 + ^
STACK CFI 1855c .cfa: $rsp 32 +
STACK CFI 1857e .cfa: $rsp 8 +
STACK CFI INIT 1857f 27 .cfa: $rsp 8 + .ra: .cfa -8 + ^
STACK CFI 18583 .cfa: $rsp 32 +
STACK CFI 185a5 .cfa: $rsp 8 +
STACK CFI INIT 185a6 2b .cfa: $rsp 8 + .ra: .cfa -8 + ^
STACK CFI 185aa .cfa: $rsp 32 +
STACK CFI 185d0 .cfa: $rsp 8 +
STACK CFI INIT 185d2 27 .cfa: $rsp 8 + .ra: .cfa -8 + ^
STACK CFI 185d6 .cfa: $rsp 32 +
STACK CFI 185f8 .cfa: $rsp 8 +
STACK CFI INIT 185f9 1f .cfa: $rsp 8 + .ra: .cfa -8 + ^
STACK CFI 185fd .cfa: $rsp 32 +
STACK CFI 18617 .cfa: $rsp 8 +
STACK CFI INIT 18618 29 .cfa: $rsp 8 + .ra: .cfa -8 + ^
STACK CFI 1861c .cfa: $rsp 32 +
STACK CFI 18640 .cfa: $rsp 8 +
STACK CFI INIT 18642 1f .cfa: $rsp 8 + .ra: .cfa -8 + ^
STACK CFI INIT 18662 e .cfa: $rsp 8 + .ra: .cfa -8 + ^
STACK CFI INIT 18670 b .cfa: $rsp 8 + .ra: .cfa -8 + ^
STACK CFI INIT 1867b 3e .cfa: $rsp 8 + .ra: .cfa -8 + ^
STACK CFI 1867f .cfa: $rsp 48 +
STACK CFI 186b8 .cfa: $rsp 8 +
STACK CFI INIT 186ba 11 .cfa: $rsp 8 + .ra: .cfa -8 + ^
STACK CFI INIT 186cc c .cfa: $rsp 8 + .ra: .cfa -8 + ^
STACK CFI INIT 186d8 59 .cfa: $rsp 8 + .ra: .cfa -8 + ^
STACK CFI 186dc .cfa: $rsp 64 +
STACK CFI 18730 .cfa: $rsp 8 +
STACK CFI INIT 18731 1f .cfa: $rsp 8 + .ra: .cfa -8 + ^
STACK CFI 18735 .cfa: $rsp 32 +
STACK CFI 1874f .cfa: $rsp 8 +
STACK CFI INIT 18750 29 .cfa: $rsp 8 + .ra: .cfa -8 + ^
STACK CFI 18754 .cfa: $rsp 32 +
STACK CFI 18778 .cfa: $rsp 8 +
STACK CFI INIT 1877a 1f .cfa: $rsp 8 + .ra: .cfa -8 + ^
STACK CFI INIT 1879a e .cfa: $rsp 8 + .ra: .cfa -8 + ^
STACK CFI INIT 187a8 b .cfa: $rsp 8 + .ra: .cfa -8 + ^
STACK CFI INIT 187b3 3e .cfa: $rsp 8 + .ra: .cfa -8 + ^
STACK CFI 187b7 .cfa: $rsp 48 +
STACK CFI 187f0 .cfa: $rsp 8 +
STACK CFI INIT 187f2 11 .cfa: $rsp 8 + .ra: .cfa -8 + ^
STACK CFI INIT 18804 c .cfa: $rsp 8 + .ra: .cfa -8 + ^
STACK CFI INIT 18810 27 .cfa: $rsp 8 + .ra: .cfa -8 + ^
STACK CFI 18814 .cfa: $rsp 32 +
STACK CFI 18836 .cfa: $rsp 8 +
STACK CFI INIT 18838 55 .cfa: $rsp 8 + .ra: .cfa -8 + ^
STACK CFI 1883c .cfa: $rsp 64 +
STACK CFI 1888c .cfa: $rsp 8 +
STACK CFI INIT 1888e c .cfa: $rsp 8 + .ra: .cfa -8 + ^
STACK CFI INIT 1889a 10 .cfa: $rsp 8 + .ra: .cfa -8 + ^
STACK CFI INIT 188aa 36 .cfa: $rsp 8 + .ra: .cfa -8 + ^
STACK CFI 188ab .cfa: $rsp 16 + $rbx: .cfa -16 + ^
STACK CFI 188af .cfa: $rsp 32 +
STACK CFI 188de .cfa: $rsp 16 +
STACK CFI 188df .cfa: $rsp 8 +
STACK CFI INIT 188e0 3e .cfa: $rsp 8 + .ra: .cfa -8 + ^
STACK CFI 188e4 .cfa: $rsp 48 +
STACK CFI 1891d .cfa: $rsp 8 +
STACK CFI INIT 1891e d .cfa: $rsp 8 + .ra: .cfa -8 + ^
STACK CFI INIT 1892b 36 .cfa: $rsp 8 + .ra: .cfa -8 + ^
STACK CFI 1892c .cfa: $rsp 16 + $rbx: .cfa -16 + ^
STACK CFI 18930 .cfa: $rsp 32 +
STACK CFI 1895f .cfa: $rsp 16 +
STACK CFI 18960 .cfa: $rsp 8 +
STACK CFI INIT 18961 3e .cfa: $rsp 8 + .ra: .cfa -8 + ^
STACK CFI 18965 .cfa: $rsp 48 +
STACK CFI 1899e .cfa: $rsp 8 +
STACK CFI INIT 189a0 2c .cfa: $rsp 8 + .ra: .cfa -8 + ^
STACK CFI 189a4 .cfa: $rsp 32 +
STACK CFI 189cb .cfa: $rsp 8 +
STACK CFI INIT 189cc e .cfa: $rsp 8 + .ra: .cfa -8 + ^
STACK CFI INIT 189da 53 .cfa: $rsp 8 + .ra: .cfa -8 + ^
STACK CFI 189db .cfa: $rsp 16 + $rbx: .cfa -16 + ^
STACK CFI 189df .cfa: $rsp 48 +
STACK CFI 18a2b .cfa: $rsp 16 +
STACK CFI 18a2c .cfa: $rsp 8 +
STACK CFI INIT 18a2e e .cfa: $rsp 8 + .ra: .cfa -8 + ^
STACK CFI INIT 18a3c 44 .cfa: $rsp 8 + .ra: .cfa -8 + ^
STACK CFI 18a3d .cfa: $rsp 16 + $rbx: .cfa -16 + ^
STACK CFI 18a41 .cfa: $rsp 48 +
STACK CFI 18a7e .cfa: $rsp 16 +
STACK CFI 18a7f .cfa: $rsp 8 +
STACK CFI INIT 19486 f .cfa: $rsp 8 + .ra: .cfa -8 + ^
STACK CFI INIT 19495 6 .cfa: $rsp 8 + .ra: .cfa -8 + ^
STACK CFI INIT 18a80 4f .cfa: $rsp 8 + .ra: .cfa -8 + ^
STACK CFI 18a84 .cfa: $rsp 48 +
STACK CFI 18ace .cfa: $rsp 8 +
STACK CFI INIT 18acf 5f .cfa: $rsp 8 + .ra: .cfa -8 + ^
STACK CFI 18ad3 .cfa: $rsp 48 +
STACK CFI 18b2d .cfa: $rsp 8 +
STACK CFI INIT 18b2e 5f .cfa: $rsp 8 + .ra: .cfa -8 + ^
STACK CFI 18b32 .cfa: $rsp 48 +
STACK CFI 18b8c .cfa: $rsp 8 +
STACK CFI INIT 18b8d 60 .cfa: $rsp 8 + .ra: .cfa -8 + ^
STACK CFI 18b91 .cfa: $rsp 64 +
STACK CFI 18bec .cfa: $rsp 8 +
STACK CFI INIT 18bee 34 .cfa: $rsp 8 + .ra: .cfa -8 + ^
STACK CFI INIT 18c22 29 .cfa: $rsp 8 + .ra: .cfa -8 + ^
STACK CFI 18c26 .cfa: $rsp 32 +
STACK CFI 18c4a .cfa: $rsp 8 +
STACK CFI INIT 18c4c 69 .cfa: $rsp 8 + .ra: .cfa -8 + ^
STACK CFI 18c50 .cfa: $rsp 32 +
STACK CFI 18cb4 .cfa: $rsp 8 +
STACK CFI INIT 18cb6 52 .cfa: $rsp 8 + .ra: .cfa -8 + ^
STACK CFI 18cba .cfa: $rsp 32 +
STACK CFI 18d07 .cfa: $rsp 8 +
STACK CFI INIT 18d08 71 .cfa: $rsp 8 + .ra: .cfa -8 + ^
STACK CFI 18d0c .cfa: $rsp 48 +
STACK CFI 18d78 .cfa: $rsp 8 +
STACK CFI INIT 18d7a f2 .cfa: $rsp 8 + .ra: .cfa -8 + ^
STACK CFI 18d7e .cfa: $rsp 96 +
STACK CFI 18e6b .cfa: $rsp 8 +
STACK CFI INIT 18e6c fd .cfa: $rsp 8 + .ra: .cfa -8 + ^
STACK CFI 18e70 .cfa: $rsp 96 +
STACK CFI 18f68 .cfa: $rsp 8 +
STACK CFI INIT 18f6a 35 .cfa: $rsp 8 + .ra: .cfa -8 + ^
STACK CFI 18f6e .cfa: $rsp 48 +
STACK CFI 18f9e .cfa: $rsp 8 +
STACK CFI INIT 18fa0 35 .cfa: $rsp 8 + .ra: .cfa -8 + ^
STACK CFI 18fa4 .cfa: $rsp 48 +
STACK CFI 18fd4 .cfa: $rsp 8 +
STACK CFI INIT 18fd6 121 .cfa: $rsp 8 + .ra: .cfa -8 + ^
STACK CFI 18fd7 .cfa: $rsp 16 + $rbx: .cfa -16 + ^
STACK CFI 18fdb .cfa: $rsp 80 +
STACK CFI 190f5 .cfa: $rsp 16 +
STACK CFI 190f6 .cfa: $rsp 8 +
STACK CFI INIT 190f8 131 .cfa: $rsp 8 + .ra: .cfa -8 + ^
STACK CFI 190fc .cfa: $rsp 80 +
STACK CFI 19228 .cfa: $rsp 8 +
STACK CFI INIT 1922a 112 .cfa: $rsp 8 + .ra: .cfa -8 + ^
STACK CFI 1922e .cfa: $rsp 48 +
STACK CFI 1933b .cfa: $rsp 8 +
STACK CFI INIT 1933c 80 .cfa: $rsp 8 + .ra: .cfa -8 + ^
STACK CFI 19340 .cfa: $rsp 32 +
STACK CFI 193bb .cfa: $rsp 8 +
STACK CFI INIT 193bc ca .cfa: $rsp 8 + .ra: .cfa -8 + ^
STACK CFI 193c0 .cfa: $rsp 48 +
STACK CFI 19485 .cfa: $rsp 8 +
STACK CFI INIT 1949c f .cfa: $rsp 8 + .ra: .cfa -8 + ^
STACK CFI INIT 194ac 84 .cfa: $rsp 8 + .ra: .cfa -8 + ^
STACK CFI 194ad .cfa: $rsp 16 + $rbp: .cfa -16 + ^
STACK CFI 194ae .cfa: $rsp 24 + $rbx: .cfa -24 + ^
STACK CFI 194b2 .cfa: $rsp 64 +
STACK CFI 1952d .cfa: $rsp 24 +
STACK CFI 1952e .cfa: $rsp 16 +
STACK CFI 1952f .cfa: $rsp 8 +
STACK CFI INIT 19530 1cc .cfa: $rsp 8 + .ra: .cfa -8 + ^
STACK CFI 19531 .cfa: $rsp 16 + $rbx: .cfa -16 + ^
STACK CFI 19535 .cfa: $rsp 112 +
STACK CFI 196fa .cfa: $rsp 16 +
STACK CFI 196fb .cfa: $rsp 8 +
STACK CFI INIT 196fc 1c5 .cfa: $rsp 8 + .ra: .cfa -8 + ^
STACK CFI 196fd .cfa: $rsp 16 + $rbx: .cfa -16 + ^
STACK CFI 19701 .cfa: $rsp 112 +
STACK CFI 198bf .cfa: $rsp 16 +
STACK CFI 198c0 .cfa: $rsp 8 +
STACK CFI INIT 198c2 4a .cfa: $rsp 8 + .ra: .cfa -8 + ^
STACK CFI 198c6 .cfa: $rsp 32 +
STACK CFI 1990b .cfa: $rsp 8 +
STACK CFI INIT 1990c 29 .cfa: $rsp 8 + .ra: .cfa -8 + ^
STACK CFI 19910 .cfa: $rsp 32 +
STACK CFI 19934 .cfa: $rsp 8 +
STACK CFI INIT 19936 79 .cfa: $rsp 8 + .ra: .cfa -8 + ^
STACK CFI 1993a .cfa: $rsp 48 +
STACK CFI 199ae .cfa: $rsp 8 +
STACK CFI INIT 199b0 37 .cfa: $rsp 8 + .ra: .cfa -8 + ^
STACK CFI 199b4 .cfa: $rsp 32 +
STACK CFI 199e6 .cfa: $rsp 8 +
STACK CFI INIT 199e7 15d .cfa: $rsp 8 + .ra: .cfa -8 + ^
STACK CFI 199e8 .cfa: $rsp 16 + $rbx: .cfa -16 + ^
STACK CFI 199ec .cfa: $rsp 112 +
STACK CFI 19b42 .cfa: $rsp 16 +
STACK CFI 19b43 .cfa: $rsp 8 +
STACK CFI INIT 19b44 f5 .cfa: $rsp 8 + .ra: .cfa -8 + ^
STACK CFI 19b48 .cfa: $rsp 96 +
STACK CFI 19c38 .cfa: $rsp 8 +
STACK CFI INIT 19c39 161 .cfa: $rsp 8 + .ra: .cfa -8 + ^
STACK CFI 19c3a .cfa: $rsp 16 + $rbx: .cfa -16 + ^
STACK CFI 19c3e .cfa: $rsp 112 +
STACK CFI 19d98 .cfa: $rsp 16 +
STACK CFI 19d99 .cfa: $rsp 8 +
STACK CFI INIT 19d9a c1 .cfa: $rsp 8 + .ra: .cfa -8 + ^
STACK CFI 19d9e .cfa: $rsp 80 +
STACK CFI 19e5a .cfa: $rsp 8 +
STACK CFI INIT 19e5b 1c .cfa: $rsp 8 + .ra: .cfa -8 + ^
STACK CFI INIT 19e77 305 .cfa: $rsp 8 + .ra: .cfa -8 + ^
STACK CFI 19e78 .cfa: $rsp 16 + $rbx: .cfa -16 + ^
STACK CFI 19e7f .cfa: $rsp 160 +
STACK CFI 1a17a .cfa: $rsp 16 +
STACK CFI 1a17b .cfa: $rsp 8 +
STACK CFI INIT 1a17c 27 .cfa: $rsp 8 + .ra: .cfa -8 + ^
STACK CFI 1a180 .cfa: $rsp 32 +
STACK CFI 1a1a2 .cfa: $rsp 8 +
STACK CFI INIT 1a1a4 4d .cfa: $rsp 8 + .ra: .cfa -8 + ^
STACK CFI 1a1a8 .cfa: $rsp 48 +
STACK CFI 1a1f0 .cfa: $rsp 8 +
STACK CFI INIT 1a1f2 2a .cfa: $rsp 8 + .ra: .cfa -8 + ^
STACK CFI 1a1f6 .cfa: $rsp 32 +
STACK CFI 1a21b .cfa: $rsp 8 +
STACK CFI INIT 1a21c d4 .cfa: $rsp 8 + .ra: .cfa -8 + ^
STACK CFI 1a220 .cfa: $rsp 80 +
STACK CFI 1a2ef .cfa: $rsp 8 +
STACK CFI INIT 1a2f0 1e .cfa: $rsp 8 + .ra: .cfa -8 + ^
STACK CFI INIT 1a30e 23 .cfa: $rsp 8 + .ra: .cfa -8 + ^
STACK CFI INIT 1a332 91 .cfa: $rsp 8 + .ra: .cfa -8 + ^
STACK CFI 1a336 .cfa: $rsp 32 +
STACK CFI 1a3c2 .cfa: $rsp 8 +
STACK CFI INIT 1a3c4 1e .cfa: $rsp 8 + .ra: .cfa -8 + ^
STACK CFI INIT 1a3e2 19 .cfa: $rsp 8 + .ra: .cfa -8 + ^
STACK CFI INIT 1a3fc 2c .cfa: $rsp 8 + .ra: .cfa -8 + ^
STACK CFI 1a400 .cfa: $rsp 32 +
STACK CFI 1a427 .cfa: $rsp 8 +
STACK CFI INIT 1a428 23 .cfa: $rsp 8 + .ra: .cfa -8 + ^
STACK CFI INIT 1a44c 4a .cfa: $rsp 8 + .ra: .cfa -8 + ^
STACK CFI 1a450 .cfa: $rsp 32 +
STACK CFI 1a495 .cfa: $rsp 8 +
STACK CFI INIT 1a496 e .cfa: $rsp 8 + .ra: .cfa -8 + ^
STACK CFI INIT 1a4a4 5a .cfa: $rsp 8 + .ra: .cfa -8 + ^
STACK CFI 1a4a8 .cfa: $rsp 64 +
STACK CFI 1a4fd .cfa: $rsp 8 +
STACK CFI INIT 1a4fe 5b .cfa: $rsp 8 + .ra: .cfa -8 + ^
STACK CFI 1a502 .cfa: $rsp 64 +
STACK CFI 1a558 .cfa: $rsp 8 +
STACK CFI INIT 1a559 39 .cfa: $rsp 8 + .ra: .cfa -8 + ^
STACK CFI 1a55a .cfa: $rsp 16 + $rbx: .cfa -16 + ^
STACK CFI 1a55e .cfa: $rsp 32 +
STACK CFI 1a590 .cfa: $rsp 16 +
STACK CFI 1a591 .cfa: $rsp 8 +
STACK CFI INIT 1a592 1f .cfa: $rsp 8 + .ra: .cfa -8 + ^
STACK CFI INIT 1a5b2 e .cfa: $rsp 8 + .ra: .cfa -8 + ^
STACK CFI INIT 1a5c0 19 .cfa: $rsp 8 + .ra: .cfa -8 + ^
STACK CFI INIT 1a5da 2c .cfa: $rsp 8 + .ra: .cfa -8 + ^
STACK CFI 1a5de .cfa: $rsp 32 +
STACK CFI 1a605 .cfa: $rsp 8 +
STACK CFI INIT 1a606 e .cfa: $rsp 8 + .ra: .cfa -8 + ^
STACK CFI INIT 1a614 48 .cfa: $rsp 8 + .ra: .cfa -8 + ^
STACK CFI 1a618 .cfa: $rsp 32 +
STACK CFI 1a65b .cfa: $rsp 8 +
STACK CFI INIT 1a65c 1c .cfa: $rsp 8 + .ra: .cfa -8 + ^
STACK CFI INIT 1a678 b .cfa: $rsp 8 + .ra: .cfa -8 + ^
STACK CFI INIT 1a684 5a .cfa: $rsp 8 + .ra: .cfa -8 + ^
STACK CFI 1a688 .cfa: $rsp 64 +
STACK CFI 1a6dd .cfa: $rsp 8 +
STACK CFI INIT 1a6de 3f .cfa: $rsp 8 + .ra: .cfa -8 + ^
STACK CFI 1a6df .cfa: $rsp 16 + $rbx: .cfa -16 + ^
STACK CFI 1a6e3 .cfa: $rsp 32 +
STACK CFI 1a71b .cfa: $rsp 16 +
STACK CFI 1a71c .cfa: $rsp 8 +
STACK CFI INIT 1a71e 4f5 .cfa: $rsp 8 + .ra: .cfa -8 + ^
STACK CFI 1a71f .cfa: $rsp 16 + $rbp: .cfa -16 + ^
STACK CFI 1a720 .cfa: $rsp 24 + $rbx: .cfa -24 + ^
STACK CFI 1a724 .cfa: $rsp 144 +
STACK CFI 1ac10 .cfa: $rsp 24 +
STACK CFI 1ac11 .cfa: $rsp 16 +
STACK CFI 1ac12 .cfa: $rsp 8 +
STACK CFI INIT 1ac14 68 .cfa: $rsp 8 + .ra: .cfa -8 + ^
STACK CFI 1ac18 .cfa: $rsp 64 +
STACK CFI 1ac7b .cfa: $rsp 8 +
STACK CFI INIT 1ac7c 229 .cfa: $rsp 8 + .ra: .cfa -8 + ^
STACK CFI 1ac7d .cfa: $rsp 16 + $rbx: .cfa -16 + ^
STACK CFI 1ac81 .cfa: $rsp 64 +
STACK CFI 1aea3 .cfa: $rsp 16 +
STACK CFI 1aea4 .cfa: $rsp 8 +
STACK CFI INIT 1aea6 1c .cfa: $rsp 8 + .ra: .cfa -8 + ^
STACK CFI INIT 1aec2 b .cfa: $rsp 8 + .ra: .cfa -8 + ^
STACK CFI INIT 1aece b .cfa: $rsp 8 + .ra: .cfa -8 + ^
STACK CFI INIT 1aed9 2e .cfa: $rsp 8 + .ra: .cfa -8 + ^
STACK CFI 1aedd .cfa: $rsp 48 +
STACK CFI 1af06 .cfa: $rsp 8 +
STACK CFI INIT 1af08 51 .cfa: $rsp 8 + .ra: .cfa -8 + ^
STACK CFI 1af0c .cfa: $rsp 48 +
STACK CFI 1af58 .cfa: $rsp 8 +
STACK CFI INIT 1af59 3f .cfa: $rsp 8 + .ra: .cfa -8 + ^
STACK CFI 1af5a .cfa: $rsp 16 + $rbx: .cfa -16 + ^
STACK CFI 1af5e .cfa: $rsp 32 +
STACK CFI 1af96 .cfa: $rsp 16 +
STACK CFI 1af97 .cfa: $rsp 8 +
STACK CFI INIT 1af98 55 .cfa: $rsp 8 + .ra: .cfa -8 + ^
STACK CFI 1af99 .cfa: $rsp 16 + $rbx: .cfa -16 + ^
STACK CFI 1af9d .cfa: $rsp 48 +
STACK CFI 1afeb .cfa: $rsp 16 +
STACK CFI 1afec .cfa: $rsp 8 +
STACK CFI INIT 1afed 4d .cfa: $rsp 8 + .ra: .cfa -8 + ^
STACK CFI 1afee .cfa: $rsp 16 + $rbx: .cfa -16 + ^
STACK CFI 1aff2 .cfa: $rsp 48 +
STACK CFI 1b038 .cfa: $rsp 16 +
STACK CFI 1b039 .cfa: $rsp 8 +
STACK CFI INIT 1b03a 4e .cfa: $rsp 8 + .ra: .cfa -8 + ^
STACK CFI 1b03b .cfa: $rsp 16 + $rbx: .cfa -16 + ^
STACK CFI 1b03f .cfa: $rsp 48 +
STACK CFI 1b086 .cfa: $rsp 16 +
STACK CFI 1b087 .cfa: $rsp 8 +
STACK CFI INIT 1b088 36 .cfa: $rsp 8 + .ra: .cfa -8 + ^
STACK CFI 1b08c .cfa: $rsp 48 +
STACK CFI 1b0bd .cfa: $rsp 8 +
STACK CFI INIT 1b0be fc .cfa: $rsp 8 + .ra: .cfa -8 + ^
STACK CFI 1b0bf .cfa: $rsp 16 + $rbx: .cfa -16 + ^
STACK CFI 1b0c3 .cfa: $rsp 80 +
STACK CFI 1b1b8 .cfa: $rsp 16 +
STACK CFI 1b1b9 .cfa: $rsp 8 +
STACK CFI INIT 1b1ba 34 .cfa: $rsp 8 + .ra: .cfa -8 + ^
STACK CFI 1b1be .cfa: $rsp 32 +
STACK CFI 1b1ed .cfa: $rsp 8 +
STACK CFI INIT 1b1ee 55 .cfa: $rsp 8 + .ra: .cfa -8 + ^
STACK CFI 1b1ef .cfa: $rsp 16 + $rbx: .cfa -16 + ^
STACK CFI 1b1f3 .cfa: $rsp 48 +
STACK CFI 1b241 .cfa: $rsp 16 +
STACK CFI 1b242 .cfa: $rsp 8 +
STACK CFI INIT 1b244 3b .cfa: $rsp 8 + .ra: .cfa -8 + ^
STACK CFI 1b248 .cfa: $rsp 48 +
STACK CFI 1b27e .cfa: $rsp 8 +
STACK CFI INIT 1b27f 2d .cfa: $rsp 8 + .ra: .cfa -8 + ^
STACK CFI 1b283 .cfa: $rsp 48 +
STACK CFI 1b2ab .cfa: $rsp 8 +
STACK CFI INIT 1b2ac 27 .cfa: $rsp 8 + .ra: .cfa -8 + ^
STACK CFI 1b2b0 .cfa: $rsp 32 +
STACK CFI 1b2d2 .cfa: $rsp 8 +
STACK CFI INIT 1b2d3 4d .cfa: $rsp 8 + .ra: .cfa -8 + ^
STACK CFI 1b2d7 .cfa: $rsp 48 +
STACK CFI 1b31f .cfa: $rsp 8 +
STACK CFI INIT 1b320 35 .cfa: $rsp 8 + .ra: .cfa -8 + ^
STACK CFI 1b324 .cfa: $rsp 48 +
STACK CFI 1b354 .cfa: $rsp 8 +
STACK CFI INIT 1b355 1b .cfa: $rsp 8 + .ra: .cfa -8 + ^
STACK CFI 1b359 .cfa: $rsp 32 +
STACK CFI 1b36f .cfa: $rsp 8 +
STACK CFI INIT 1b370 57 .cfa: $rsp 8 + .ra: .cfa -8 + ^
STACK CFI 1b371 .cfa: $rsp 16 + $rbp: .cfa -16 + ^
STACK CFI 1b372 .cfa: $rsp 24 + $rbx: .cfa -24 + ^
STACK CFI 1b376 .cfa: $rsp 64 +
STACK CFI 1b3c4 .cfa: $rsp 24 +
STACK CFI 1b3c5 .cfa: $rsp 16 +
STACK CFI 1b3c6 .cfa: $rsp 8 +
STACK CFI INIT 1b3c7 1b .cfa: $rsp 8 + .ra: .cfa -8 + ^
STACK CFI 1b3cb .cfa: $rsp 32 +
STACK CFI 1b3e1 .cfa: $rsp 8 +
STACK CFI INIT 1b3e2 3f .cfa: $rsp 8 + .ra: .cfa -8 + ^
STACK CFI INIT 1b421 37 .cfa: $rsp 8 + .ra: .cfa -8 + ^
STACK CFI 1b425 .cfa: $rsp 64 +
STACK CFI 1b457 .cfa: $rsp 8 +
STACK CFI INIT 1b458 23 .cfa: $rsp 8 + .ra: .cfa -8 + ^
STACK CFI 1b45c .cfa: $rsp 32 +
STACK CFI 1b47a .cfa: $rsp 8 +
STACK CFI INIT 1b47b 2b .cfa: $rsp 8 + .ra: .cfa -8 + ^
STACK CFI 1b47f .cfa: $rsp 32 +
STACK CFI 1b4a5 .cfa: $rsp 8 +
STACK CFI INIT 1b4a6 4d .cfa: $rsp 8 + .ra: .cfa -8 + ^
STACK CFI 1b4aa .cfa: $rsp 48 +
STACK CFI 1b4f2 .cfa: $rsp 8 +
STACK CFI INIT 1b4f3 33 .cfa: $rsp 8 + .ra: .cfa -8 + ^
STACK CFI 1b4f7 .cfa: $rsp 48 +
STACK CFI 1b525 .cfa: $rsp 8 +
STACK CFI INIT 1b526 2b .cfa: $rsp 8 + .ra: .cfa -8 + ^
STACK CFI 1b52a .cfa: $rsp 48 +
STACK CFI 1b550 .cfa: $rsp 8 +
STACK CFI INIT 1b551 c .cfa: $rsp 8 + .ra: .cfa -8 + ^
STACK CFI INIT 1b55e 19 .cfa: $rsp 8 + .ra: .cfa -8 + ^
STACK CFI INIT 1b577 35 .cfa: $rsp 8 + .ra: .cfa -8 + ^
STACK CFI 1b57b .cfa: $rsp 64 +
STACK CFI 1b5ab .cfa: $rsp 8 +
STACK CFI INIT 1b5ac b .cfa: $rsp 8 + .ra: .cfa -8 + ^
STACK CFI INIT 1b5b7 37 .cfa: $rsp 8 + .ra: .cfa -8 + ^
STACK CFI 1b5bb .cfa: $rsp 64 +
STACK CFI 1b5ed .cfa: $rsp 8 +
STACK CFI INIT 1b5ee 32 .cfa: $rsp 8 + .ra: .cfa -8 + ^
STACK CFI 1b5f2 .cfa: $rsp 48 +
STACK CFI 1b61f .cfa: $rsp 8 +
STACK CFI INIT 1b620 1b .cfa: $rsp 8 + .ra: .cfa -8 + ^
STACK CFI 1b624 .cfa: $rsp 32 +
STACK CFI 1b63a .cfa: $rsp 8 +
STACK CFI INIT 1b63c b .cfa: $rsp 8 + .ra: .cfa -8 + ^
STACK CFI INIT 1b648 46 .cfa: $rsp 8 + .ra: .cfa -8 + ^
STACK CFI 1b64c .cfa: $rsp 48 +
STACK CFI 1b68d .cfa: $rsp 8 +
STACK CFI INIT 1b68e 26 .cfa: $rsp 8 + .ra: .cfa -8 + ^
STACK CFI 1b692 .cfa: $rsp 48 +
STACK CFI 1b6b3 .cfa: $rsp 8 +
STACK CFI INIT 1b6b4 57 .cfa: $rsp 8 + .ra: .cfa -8 + ^
STACK CFI 1b6b8 .cfa: $rsp 48 +
STACK CFI 1b70a .cfa: $rsp 8 +
STACK CFI INIT 1b70b 30 .cfa: $rsp 8 + .ra: .cfa -8 + ^
STACK CFI 1b70f .cfa: $rsp 48 +
STACK CFI 1b73a .cfa: $rsp 8 +
STACK CFI INIT 1b73b 7d .cfa: $rsp 8 + .ra: .cfa -8 + ^
STACK CFI 1b73f .cfa: $rsp 64 +
STACK CFI 1b7b7 .cfa: $rsp 8 +
STACK CFI INIT 1b7b8 3d .cfa: $rsp 8 + .ra: .cfa -8 + ^
STACK CFI 1b7bc .cfa: $rsp 48 +
STACK CFI 1b7f4 .cfa: $rsp 8 +
STACK CFI INIT 1b7f6 10 .cfa: $rsp 8 + .ra: .cfa -8 + ^
STACK CFI INIT 1b806 4b .cfa: $rsp 8 + .ra: .cfa -8 + ^
STACK CFI 1b807 .cfa: $rsp 16 + $rbx: .cfa -16 + ^
STACK CFI 1b80b .cfa: $rsp 48 +
STACK CFI 1b84f .cfa: $rsp 16 +
STACK CFI 1b850 .cfa: $rsp 8 +
STACK CFI INIT 1b851 4f .cfa: $rsp 8 + .ra: .cfa -8 + ^
STACK CFI INIT 1b8a0 19 .cfa: $rsp 8 + .ra: .cfa -8 + ^
STACK CFI 1b8a4 .cfa: $rsp 32 +
STACK CFI 1b8b8 .cfa: $rsp 8 +
STACK CFI INIT 1b8b9 57 .cfa: $rsp 8 + .ra: .cfa -8 + ^
STACK CFI 1b8ba .cfa: $rsp 16 + $rbp: .cfa -16 + ^
STACK CFI 1b8bb .cfa: $rsp 24 + $rbx: .cfa -24 + ^
STACK CFI 1b8bf .cfa: $rsp 64 +
STACK CFI 1b90d .cfa: $rsp 24 +
STACK CFI 1b90e .cfa: $rsp 16 +
STACK CFI 1b90f .cfa: $rsp 8 +
STACK CFI INIT 1b910 18 .cfa: $rsp 8 + .ra: .cfa -8 + ^
STACK CFI 1b914 .cfa: $rsp 32 +
STACK CFI 1b927 .cfa: $rsp 8 +
STACK CFI INIT 1b928 37 .cfa: $rsp 8 + .ra: .cfa -8 + ^
STACK CFI 1b92c .cfa: $rsp 64 +
STACK CFI 1b95e .cfa: $rsp 8 +
STACK CFI INIT 1b960 e .cfa: $rsp 8 + .ra: .cfa -8 + ^
STACK CFI INIT 1b96e 67 .cfa: $rsp 8 + .ra: .cfa -8 + ^
STACK CFI 1b972 .cfa: $rsp 64 +
STACK CFI 1b9d4 .cfa: $rsp 8 +
STACK CFI INIT 1b9d5 92 .cfa: $rsp 8 + .ra: .cfa -8 + ^
STACK CFI 1b9d7 .cfa: $rsp 16 + $r12: .cfa -16 + ^
STACK CFI 1b9d8 .cfa: $rsp 24 + $rbp: .cfa -24 + ^
STACK CFI 1b9d9 .cfa: $rsp 32 + $rbx: .cfa -32 + ^
STACK CFI 1b9dd .cfa: $rsp 96 +
STACK CFI 1ba62 .cfa: $rsp 32 +
STACK CFI 1ba63 .cfa: $rsp 24 +
STACK CFI 1ba64 .cfa: $rsp 16 +
STACK CFI 1ba66 .cfa: $rsp 8 +
STACK CFI INIT 1ba67 2c .cfa: $rsp 8 + .ra: .cfa -8 + ^
STACK CFI 1ba6b .cfa: $rsp 32 +
STACK CFI 1ba92 .cfa: $rsp 8 +
STACK CFI INIT 1ba93 1c .cfa: $rsp 8 + .ra: .cfa -8 + ^
STACK CFI INIT 1baaf 160 .cfa: $rsp 8 + .ra: .cfa -8 + ^
STACK CFI 1bab3 .cfa: $rsp 80 +
STACK CFI 1bc0e .cfa: $rsp 8 +
STACK CFI INIT 1bc0f ec .cfa: $rsp 8 + .ra: .cfa -8 + ^
STACK CFI 1bc13 .cfa: $rsp 64 +
STACK CFI 1bcfa .cfa: $rsp 8 +
STACK CFI INIT 1bcfb 1fa .cfa: $rsp 8 + .ra: .cfa -8 + ^
STACK CFI 1bcff .cfa: $rsp 112 +
STACK CFI 1bef4 .cfa: $rsp 8 +
STACK CFI INIT 1bef5 1f3 .cfa: $rsp 8 + .ra: .cfa -8 + ^
STACK CFI 1bef9 .cfa: $rsp 112 +
STACK CFI 1c0e7 .cfa: $rsp 8 +
STACK CFI INIT 1c0e8 1cb .cfa: $rsp 8 + .ra: .cfa -8 + ^
STACK CFI 1c0ec .cfa: $rsp 112 +
STACK CFI 1c2b2 .cfa: $rsp 8 +
STACK CFI INIT 1c2b3 1e3 .cfa: $rsp 8 + .ra: .cfa -8 + ^
STACK CFI 1c2b7 .cfa: $rsp 112 +
STACK CFI 1c495 .cfa: $rsp 8 +
STACK CFI INIT 1c496 16 .cfa: $rsp 8 + .ra: .cfa -8 + ^
STACK CFI INIT 1c4ac 16 .cfa: $rsp 8 + .ra: .cfa -8 + ^
STACK CFI INIT 1c4c2 1a1 .cfa: $rsp 8 + .ra: .cfa -8 + ^
STACK CFI 1c4c6 .cfa: $rsp 80 +
STACK CFI 1c662 .cfa: $rsp 8 +
STACK CFI INIT 1c663 18 .cfa: $rsp 8 + .ra: .cfa -8 + ^
STACK CFI INIT 1c67b 18 .cfa: $rsp 8 + .ra: .cfa -8 + ^
STACK CFI INIT 1c693 180 .cfa: $rsp 8 + .ra: .cfa -8 + ^
STACK CFI 1c697 .cfa: $rsp 80 +
STACK CFI 1c812 .cfa: $rsp 8 +
STACK CFI INIT 1c813 16 .cfa: $rsp 8 + .ra: .cfa -8 + ^
STACK CFI INIT 1c82a 73 .cfa: $rsp 8 + .ra: .cfa -8 + ^
STACK CFI 1c82e .cfa: $rsp 32 +
STACK CFI 1c89c .cfa: $rsp 8 +
STACK CFI INIT 1c89d 18 .cfa: $rsp 8 + .ra: .cfa -8 + ^
STACK CFI INIT 1c8b5 b .cfa: $rsp 8 + .ra: .cfa -8 + ^
STACK CFI INIT 1c8c0 3e .cfa: $rsp 8 + .ra: .cfa -8 + ^
STACK CFI 1c8c4 .cfa: $rsp 48 +
STACK CFI 1c8fd .cfa: $rsp 8 +
STACK CFI INIT 1c8fe 213 .cfa: $rsp 8 + .ra: .cfa -8 + ^
STACK CFI 1c8ff .cfa: $rsp 16 + $rbx: .cfa -16 + ^
STACK CFI 1c903 .cfa: $rsp 64 +
STACK CFI 1cb0f .cfa: $rsp 16 +
STACK CFI 1cb10 .cfa: $rsp 8 +
STACK CFI INIT 1cb11 3e .cfa: $rsp 8 + .ra: .cfa -8 + ^
STACK CFI 1cb15 .cfa: $rsp 48 +
STACK CFI 1cb4e .cfa: $rsp 8 +
STACK CFI INIT 1cb50 fc .cfa: $rsp 8 + .ra: .cfa -8 + ^
STACK CFI 1cb51 .cfa: $rsp 16 + $rbx: .cfa -16 + ^
STACK CFI 1cb55 .cfa: $rsp 80 +
STACK CFI 1cc4a .cfa: $rsp 16 +
STACK CFI 1cc4b .cfa: $rsp 8 +
STACK CFI INIT 1cc4c 34 .cfa: $rsp 8 + .ra: .cfa -8 + ^
STACK CFI 1cc50 .cfa: $rsp 32 +
STACK CFI 1cc7f .cfa: $rsp 8 +
STACK CFI INIT 1cc80 25 .cfa: $rsp 8 + .ra: .cfa -8 + ^
STACK CFI INIT 1cca6 b .cfa: $rsp 8 + .ra: .cfa -8 + ^
STACK CFI INIT 1ccb1 55 .cfa: $rsp 8 + .ra: .cfa -8 + ^
STACK CFI 1ccb2 .cfa: $rsp 16 + $rbx: .cfa -16 + ^
STACK CFI 1ccb6 .cfa: $rsp 48 +
STACK CFI 1cd04 .cfa: $rsp 16 +
STACK CFI 1cd05 .cfa: $rsp 8 +
STACK CFI INIT 1cd06 27 .cfa: $rsp 8 + .ra: .cfa -8 + ^
STACK CFI 1cd0a .cfa: $rsp 32 +
STACK CFI 1cd2c .cfa: $rsp 8 +
STACK CFI INIT 1cd2d 4d .cfa: $rsp 8 + .ra: .cfa -8 + ^
STACK CFI 1cd31 .cfa: $rsp 48 +
STACK CFI 1cd79 .cfa: $rsp 8 +
STACK CFI INIT 1cd7a 3b .cfa: $rsp 8 + .ra: .cfa -8 + ^
STACK CFI 1cd7e .cfa: $rsp 48 +
STACK CFI 1cdb4 .cfa: $rsp 8 +
STACK CFI INIT 1cdb6 53 .cfa: $rsp 8 + .ra: .cfa -8 + ^
STACK CFI 1cdb7 .cfa: $rsp 16 + $rbx: .cfa -16 + ^
STACK CFI 1cdbb .cfa: $rsp 48 +
STACK CFI 1ce07 .cfa: $rsp 16 +
STACK CFI 1ce08 .cfa: $rsp 8 +
STACK CFI INIT 1ce0a 23 .cfa: $rsp 8 + .ra: .cfa -8 + ^
STACK CFI 1ce0e .cfa: $rsp 32 +
STACK CFI 1ce2c .cfa: $rsp 8 +
STACK CFI INIT 1ce2d 2b .cfa: $rsp 8 + .ra: .cfa -8 + ^
STACK CFI 1ce31 .cfa: $rsp 32 +
STACK CFI 1ce57 .cfa: $rsp 8 +
STACK CFI INIT 1ce58 4d .cfa: $rsp 8 + .ra: .cfa -8 + ^
STACK CFI 1ce5c .cfa: $rsp 48 +
STACK CFI 1cea4 .cfa: $rsp 8 +
STACK CFI INIT 1cea5 c8 .cfa: $rsp 8 + .ra: .cfa -8 + ^
STACK CFI 1cea6 .cfa: $rsp 16 + $rbx: .cfa -16 + ^
STACK CFI 1ceaa .cfa: $rsp 64 +
STACK CFI 1cf6b .cfa: $rsp 16 +
STACK CFI 1cf6c .cfa: $rsp 8 +
STACK CFI INIT 1cf6d 27 .cfa: $rsp 8 + .ra: .cfa -8 + ^
STACK CFI 1cf71 .cfa: $rsp 32 +
STACK CFI 1cf93 .cfa: $rsp 8 +
STACK CFI INIT 1cf94 b .cfa: $rsp 8 + .ra: .cfa -8 + ^
STACK CFI INIT 1cf9f 33 .cfa: $rsp 8 + .ra: .cfa -8 + ^
STACK CFI 1cfa3 .cfa: $rsp 48 +
STACK CFI 1cfd1 .cfa: $rsp 8 +
STACK CFI INIT 1cfd2 20 .cfa: $rsp 8 + .ra: .cfa -8 + ^
STACK CFI 1cfd6 .cfa: $rsp 32 +
STACK CFI 1cff1 .cfa: $rsp 8 +
STACK CFI INIT 1cff2 b .cfa: $rsp 8 + .ra: .cfa -8 + ^
STACK CFI INIT 1cffe 59 .cfa: $rsp 8 + .ra: .cfa -8 + ^
STACK CFI 1d002 .cfa: $rsp 64 +
STACK CFI 1d056 .cfa: $rsp 8 +
STACK CFI INIT 1d058 19 .cfa: $rsp 8 + .ra: .cfa -8 + ^
STACK CFI INIT 1d071 29 .cfa: $rsp 8 + .ra: .cfa -8 + ^
STACK CFI 1d075 .cfa: $rsp 32 +
STACK CFI 1d099 .cfa: $rsp 8 +
STACK CFI INIT 1d09a 1f .cfa: $rsp 8 + .ra: .cfa -8 + ^
STACK CFI INIT 1d0ba e .cfa: $rsp 8 + .ra: .cfa -8 + ^
STACK CFI INIT 1d0c8 b .cfa: $rsp 8 + .ra: .cfa -8 + ^
STACK CFI INIT 1d0d3 3e .cfa: $rsp 8 + .ra: .cfa -8 + ^
STACK CFI 1d0d7 .cfa: $rsp 48 +
STACK CFI 1d110 .cfa: $rsp 8 +
STACK CFI INIT 1d112 c .cfa: $rsp 8 + .ra: .cfa -8 + ^
STACK CFI INIT 1d11e 11 .cfa: $rsp 8 + .ra: .cfa -8 + ^
STACK CFI INIT 1d12f 1f .cfa: $rsp 8 + .ra: .cfa -8 + ^
STACK CFI 1d133 .cfa: $rsp 32 +
STACK CFI 1d14d .cfa: $rsp 8 +
STACK CFI INIT 1d14e 36 .cfa: $rsp 8 + .ra: .cfa -8 + ^
STACK CFI 1d14f .cfa: $rsp 16 + $rbx: .cfa -16 + ^
STACK CFI 1d153 .cfa: $rsp 32 +
STACK CFI 1d182 .cfa: $rsp 16 +
STACK CFI 1d183 .cfa: $rsp 8 +
STACK CFI INIT 1d184 3e .cfa: $rsp 8 + .ra: .cfa -8 + ^
STACK CFI 1d188 .cfa: $rsp 48 +
STACK CFI 1d1c1 .cfa: $rsp 8 +
STACK CFI INIT 1d1c2 10 .cfa: $rsp 8 + .ra: .cfa -8 + ^
STACK CFI INIT 1d1d2 e .cfa: $rsp 8 + .ra: .cfa -8 + ^
STACK CFI INIT 1d1e0 53 .cfa: $rsp 8 + .ra: .cfa -8 + ^
STACK CFI 1d1e1 .cfa: $rsp 16 + $rbx: .cfa -16 + ^
STACK CFI 1d1e5 .cfa: $rsp 48 +
STACK CFI 1d231 .cfa: $rsp 16 +
STACK CFI 1d232 .cfa: $rsp 8 +
STACK CFI INIT 1d234 56 .cfa: $rsp 8 + .ra: .cfa -8 + ^
STACK CFI 1d238 .cfa: $rsp 48 +
STACK CFI 1d289 .cfa: $rsp 8 +
STACK CFI INIT 1d28a 92 .cfa: $rsp 8 + .ra: .cfa -8 + ^
STACK CFI 1d28c .cfa: $rsp 16 + $r12: .cfa -16 + ^
STACK CFI 1d28d .cfa: $rsp 24 + $rbp: .cfa -24 + ^
STACK CFI 1d28e .cfa: $rsp 32 + $rbx: .cfa -32 + ^
STACK CFI 1d292 .cfa: $rsp 96 +
STACK CFI 1d317 .cfa: $rsp 32 +
STACK CFI 1d318 .cfa: $rsp 24 +
STACK CFI 1d319 .cfa: $rsp 16 +
STACK CFI 1d31b .cfa: $rsp 8 +
STACK CFI INIT 1d31c 8a .cfa: $rsp 8 + .ra: .cfa -8 + ^
STACK CFI 1d31d .cfa: $rsp 16 + $rbx: .cfa -16 + ^
STACK CFI 1d321 .cfa: $rsp 48 +
STACK CFI 1d3a4 .cfa: $rsp 16 +
STACK CFI 1d3a5 .cfa: $rsp 8 +
STACK CFI INIT 1d3a6 13a .cfa: $rsp 8 + .ra: .cfa -8 + ^
STACK CFI 1d3a7 .cfa: $rsp 16 + $rbx: .cfa -16 + ^
STACK CFI 1d3ab .cfa: $rsp 112 +
STACK CFI 1d4de .cfa: $rsp 16 +
STACK CFI 1d4df .cfa: $rsp 8 +
STACK CFI INIT 1db66 1c .cfa: $rsp 8 + .ra: .cfa -8 + ^
STACK CFI 1db6a .cfa: $rsp 32 +
STACK CFI 1db81 .cfa: $rsp 8 +
STACK CFI INIT 1db82 1c .cfa: $rsp 8 + .ra: .cfa -8 + ^
STACK CFI 1db86 .cfa: $rsp 32 +
STACK CFI 1db9d .cfa: $rsp 8 +
STACK CFI INIT 1d4e0 1b3 .cfa: $rsp 8 + .ra: .cfa -8 + ^
STACK CFI 1d4e1 .cfa: $rsp 16 + $rbx: .cfa -16 + ^
STACK CFI 1d4e8 .cfa: $rsp 224 +
STACK CFI 1d691 .cfa: $rsp 16 +
STACK CFI 1d692 .cfa: $rsp 8 +
STACK CFI INIT 1d693 153 .cfa: $rsp 8 + .ra: .cfa -8 + ^
STACK CFI 1d697 .cfa: $rsp 96 +
STACK CFI 1d7e5 .cfa: $rsp 8 +
STACK CFI INIT 1d7e6 45 .cfa: $rsp 8 + .ra: .cfa -8 + ^
STACK CFI 1d7ea .cfa: $rsp 32 +
STACK CFI 1d82a .cfa: $rsp 8 +
STACK CFI INIT 1d82c c9 .cfa: $rsp 8 + .ra: .cfa -8 + ^
STACK CFI 1d82d .cfa: $rsp 16 + $rbx: .cfa -16 + ^
STACK CFI 1d831 .cfa: $rsp 64 +
STACK CFI 1d8f3 .cfa: $rsp 16 +
STACK CFI 1d8f4 .cfa: $rsp 8 +
STACK CFI INIT 1d8f5 ce .cfa: $rsp 8 + .ra: .cfa -8 + ^
STACK CFI 1d8f6 .cfa: $rsp 16 + $rbx: .cfa -16 + ^
STACK CFI 1d8fa .cfa: $rsp 80 +
STACK CFI 1d9c1 .cfa: $rsp 16 +
STACK CFI 1d9c2 .cfa: $rsp 8 +
STACK CFI INIT 1d9c4 12e .cfa: $rsp 8 + .ra: .cfa -8 + ^
STACK CFI 1d9c5 .cfa: $rsp 16 + $rbx: .cfa -16 + ^
STACK CFI 1d9c9 .cfa: $rsp 96 +
STACK CFI 1daf0 .cfa: $rsp 16 +
STACK CFI 1daf1 .cfa: $rsp 8 +
STACK CFI INIT 1daf2 74 .cfa: $rsp 8 + .ra: .cfa -8 + ^
STACK CFI 1daf3 .cfa: $rsp 16 + $rbx: .cfa -16 + ^
STACK CFI 1daf7 .cfa: $rsp 48 +
STACK CFI 1db64 .cfa: $rsp 16 +
STACK CFI 1db65 .cfa: $rsp 8 +
STACK CFI INIT 1db9e 1c .cfa: $rsp 8 + .ra: .cfa -8 + ^
STACK CFI 1dba2 .cfa: $rsp 32 +
STACK CFI 1dbb9 .cfa: $rsp 8 +
STACK CFI INIT 1dbba a9 .cfa: $rsp 8 + .ra: .cfa -8 + ^
STACK CFI 1dbbb .cfa: $rsp 16 + $rbx: .cfa -16 + ^
STACK CFI 1dbbf .cfa: $rsp 64 +
STACK CFI 1dc61 .cfa: $rsp 16 +
STACK CFI 1dc62 .cfa: $rsp 8 +
STACK CFI INIT 1dc64 49 .cfa: $rsp 8 + .ra: .cfa -8 + ^
STACK CFI 1dc68 .cfa: $rsp 32 +
STACK CFI 1dcac .cfa: $rsp 8 +
STACK CFI INIT 1dcae 51 .cfa: $rsp 8 + .ra: .cfa -8 + ^
STACK CFI 1dcb2 .cfa: $rsp 48 +
STACK CFI 1dcfe .cfa: $rsp 8 +
STACK CFI INIT 1dd00 51 .cfa: $rsp 8 + .ra: .cfa -8 + ^
STACK CFI 1dd04 .cfa: $rsp 48 +
STACK CFI 1dd50 .cfa: $rsp 8 +
STACK CFI INIT 1dd51 39 .cfa: $rsp 8 + .ra: .cfa -8 + ^
STACK CFI 1dd52 .cfa: $rsp 16 + $rbx: .cfa -16 + ^
STACK CFI 1dd56 .cfa: $rsp 32 +
STACK CFI 1dd88 .cfa: $rsp 16 +
STACK CFI 1dd89 .cfa: $rsp 8 +
STACK CFI INIT 1dd8a 1f .cfa: $rsp 8 + .ra: .cfa -8 + ^
STACK CFI INIT 1ddaa e .cfa: $rsp 8 + .ra: .cfa -8 + ^
STACK CFI INIT 1ddb8 8f .cfa: $rsp 8 + .ra: .cfa -8 + ^
STACK CFI 1ddbc .cfa: $rsp 32 +
STACK CFI 1de46 .cfa: $rsp 8 +
STACK CFI INIT 1de48 1c .cfa: $rsp 8 + .ra: .cfa -8 + ^
STACK CFI INIT 1de64 52 .cfa: $rsp 8 + .ra: .cfa -8 + ^
STACK CFI 1de68 .cfa: $rsp 48 +
STACK CFI 1deb5 .cfa: $rsp 8 +
STACK CFI INIT 1deb6 1c .cfa: $rsp 8 + .ra: .cfa -8 + ^
STACK CFI 1deba .cfa: $rsp 32 +
STACK CFI 1ded1 .cfa: $rsp 8 +
STACK CFI INIT 1ded2 27 .cfa: $rsp 8 + .ra: .cfa -8 + ^
STACK CFI 1ded6 .cfa: $rsp 32 +
STACK CFI 1def8 .cfa: $rsp 8 +
STACK CFI INIT 1defa 27 .cfa: $rsp 8 + .ra: .cfa -8 + ^
STACK CFI 1defe .cfa: $rsp 32 +
STACK CFI 1df20 .cfa: $rsp 8 +
STACK CFI INIT 1df22 158 .cfa: $rsp 8 + .ra: .cfa -8 + ^
STACK CFI 1df23 .cfa: $rsp 16 + $rbx: .cfa -16 + ^
STACK CFI 1df27 .cfa: $rsp 48 +
STACK CFI 1e078 .cfa: $rsp 16 +
STACK CFI 1e079 .cfa: $rsp 8 +
STACK CFI INIT 1e07a 1c .cfa: $rsp 8 + .ra: .cfa -8 + ^
STACK CFI 1e07e .cfa: $rsp 32 +
STACK CFI 1e095 .cfa: $rsp 8 +
STACK CFI INIT 1e096 57 .cfa: $rsp 8 + .ra: .cfa -8 + ^
STACK CFI 1e09a .cfa: $rsp 32 +
STACK CFI 1e0ec .cfa: $rsp 8 +
STACK CFI INIT 1e0ee 1c .cfa: $rsp 8 + .ra: .cfa -8 + ^
STACK CFI INIT 1e10a b .cfa: $rsp 8 + .ra: .cfa -8 + ^
STACK CFI INIT 1e116 224 .cfa: $rsp 8 + .ra: .cfa -8 + ^
STACK CFI 1e117 .cfa: $rsp 16 + $rbx: .cfa -16 + ^
STACK CFI 1e11b .cfa: $rsp 64 +
STACK CFI 1e338 .cfa: $rsp 16 +
STACK CFI 1e339 .cfa: $rsp 8 +
STACK CFI INIT 1e33a 48 .cfa: $rsp 8 + .ra: .cfa -8 + ^
STACK CFI 1e33e .cfa: $rsp 32 +
STACK CFI 1e381 .cfa: $rsp 8 +
STACK CFI INIT 1e382 1c .cfa: $rsp 8 + .ra: .cfa -8 + ^
STACK CFI 1e386 .cfa: $rsp 32 +
STACK CFI 1e39d .cfa: $rsp 8 +
STACK CFI INIT 1e39e 7 .cfa: $rsp 8 + .ra: .cfa -8 + ^
STACK CFI INIT 1e3a6 c .cfa: $rsp 8 + .ra: .cfa -8 + ^
STACK CFI INIT 1e3b2 27 .cfa: $rsp 8 + .ra: .cfa -8 + ^
STACK CFI 1e3b6 .cfa: $rsp 32 +
STACK CFI 1e3d8 .cfa: $rsp 8 +
STACK CFI INIT 1e3da 25 .cfa: $rsp 8 + .ra: .cfa -8 + ^
STACK CFI INIT 1e400 9f .cfa: $rsp 8 + .ra: .cfa -8 + ^
STACK CFI 1e401 .cfa: $rsp 16 + $rbx: .cfa -16 + ^
STACK CFI 1e405 .cfa: $rsp 80 +
STACK CFI 1e49d .cfa: $rsp 16 +
STACK CFI 1e49e .cfa: $rsp 8 +
STACK CFI INIT 1e49f 9b .cfa: $rsp 8 + .ra: .cfa -8 + ^
STACK CFI 1e4a0 .cfa: $rsp 16 + $rbx: .cfa -16 + ^
STACK CFI 1e4a4 .cfa: $rsp 64 +
STACK CFI 1e538 .cfa: $rsp 16 +
STACK CFI 1e539 .cfa: $rsp 8 +
STACK CFI INIT 1e53a 7 .cfa: $rsp 8 + .ra: .cfa -8 + ^
STACK CFI INIT 1e542 27 .cfa: $rsp 8 + .ra: .cfa -8 + ^
STACK CFI 1e546 .cfa: $rsp 32 +
STACK CFI 1e568 .cfa: $rsp 8 +
STACK CFI INIT 1e569 27 .cfa: $rsp 8 + .ra: .cfa -8 + ^
STACK CFI 1e56d .cfa: $rsp 32 +
STACK CFI 1e58f .cfa: $rsp 8 +
STACK CFI INIT 1e590 58 .cfa: $rsp 8 + .ra: .cfa -8 + ^
STACK CFI 1e594 .cfa: $rsp 32 +
STACK CFI 1e5e7 .cfa: $rsp 8 +
STACK CFI INIT 1e5e8 4e .cfa: $rsp 8 + .ra: .cfa -8 + ^
STACK CFI 1e5ec .cfa: $rsp 32 +
STACK CFI 1e635 .cfa: $rsp 8 +
STACK CFI INIT 1e636 27 .cfa: $rsp 8 + .ra: .cfa -8 + ^
STACK CFI 1e63a .cfa: $rsp 32 +
STACK CFI 1e65c .cfa: $rsp 8 +
STACK CFI INIT 1e65e 2c .cfa: $rsp 8 + .ra: .cfa -8 + ^
STACK CFI 1e662 .cfa: $rsp 32 +
STACK CFI 1e689 .cfa: $rsp 8 +
STACK CFI INIT 1e782 4d .cfa: $rsp 8 + .ra: .cfa -8 + ^
STACK CFI INIT 1e7cf ae .cfa: $rsp 8 + .ra: .cfa -8 + ^
STACK CFI 1e7d3 .cfa: $rsp 48 +
STACK CFI 1e87c .cfa: $rsp 8 +
STACK CFI INIT 1e87d 23 .cfa: $rsp 8 + .ra: .cfa -8 + ^
STACK CFI 1e881 .cfa: $rsp 16 +
STACK CFI 1e89f .cfa: $rsp 8 +
STACK CFI INIT 1e8a0 2a .cfa: $rsp 8 + .ra: .cfa -8 + ^
STACK CFI 1e8a4 .cfa: $rsp 16 +
STACK CFI 1e8c9 .cfa: $rsp 8 +
STACK CFI INIT 1e8ca 95 .cfa: $rsp 8 + .ra: .cfa -8 + ^
STACK CFI 1e8ce .cfa: $rsp 64 +
STACK CFI 1e95e .cfa: $rsp 8 +
STACK CFI INIT 1e95f 4e .cfa: $rsp 8 + .ra: .cfa -8 + ^
STACK CFI 1e960 .cfa: $rsp 16 + $rbx: .cfa -16 + ^
STACK CFI 1e964 .cfa: $rsp 48 +
STACK CFI 1e9ab .cfa: $rsp 16 +
STACK CFI 1e9ac .cfa: $rsp 8 +
STACK CFI INIT 1e68a 1b .cfa: $rsp 8 + .ra: .cfa -8 + ^
STACK CFI 1e68e .cfa: $rsp 32 +
STACK CFI 1e6a4 .cfa: $rsp 8 +
STACK CFI INIT 1e6a5 dd .cfa: $rsp 8 + .ra: .cfa -8 + ^
STACK CFI 1e6a6 .cfa: $rsp 16 + $rbx: .cfa -16 + ^
STACK CFI 1e6aa .cfa: $rsp 64 +
STACK CFI 1e731 .cfa: $rsp 72 +
STACK CFI 1e733 .cfa: $rsp 80 +
STACK CFI 1e753 .cfa: $rsp 64 +
STACK CFI 1e780 .cfa: $rsp 16 +
STACK CFI 1e781 .cfa: $rsp 8 +
STACK CFI INIT 1e9ad 36 .cfa: $rsp 8 + .ra: .cfa -8 + ^
STACK CFI INIT 1e9e3 62 .cfa: $rsp 8 + .ra: .cfa -8 + ^
STACK CFI INIT 1ea45 87 .cfa: $rsp 8 + .ra: .cfa -8 + ^
STACK CFI INIT 1eacc a9 .cfa: $rsp 8 + .ra: .cfa -8 + ^
STACK CFI INIT 1eb75 4e .cfa: $rsp 8 + .ra: .cfa -8 + ^
STACK CFI INIT 1ebc3 89 .cfa: $rsp 8 + .ra: .cfa -8 + ^
STACK CFI INIT 1ec4c 48 .cfa: $rsp 8 + .ra: .cfa -8 + ^
STACK CFI INIT 1ec94 46 .cfa: $rsp 8 + .ra: .cfa -8 + ^
STACK CFI INIT 1ecda 5c .cfa: $rsp 8 + .ra: .cfa -8 + ^
STACK CFI INIT 1ed36 ce .cfa: $rsp 8 + .ra: .cfa -8 + ^
STACK CFI INIT 1ee04 72 .cfa: $rsp 8 + .ra: .cfa -8 + ^
STACK CFI INIT 1ee76 4b .cfa: $rsp 8 + .ra: .cfa -8 + ^
STACK CFI INIT 1eec1 90 .cfa: $rsp 8 + .ra: .cfa -8 + ^
STACK CFI INIT 1ef51 91 .cfa: $rsp 8 + .ra: .cfa -8 + ^
STACK CFI 1ef55 .cfa: $rsp 64 +
STACK CFI 1efe1 .cfa: $rsp 8 +
STACK CFI INIT 1efe2 7f .cfa: $rsp 8 + .ra: .cfa -8 + ^
STACK CFI 1efe6 .cfa: $rsp 64 +
STACK CFI 1f060 .cfa: $rsp 8 +
STACK CFI INIT 1f492 20 .cfa: $rsp 8 + .ra: .cfa -8 + ^
STACK CFI INIT 1f4b2 3b .cfa: $rsp 8 + .ra: .cfa -8 + ^
STACK CFI INIT 1f062 4f .cfa: $rsp 8 + .ra: .cfa -8 + ^
STACK CFI 1f066 .cfa: $rsp 48 +
STACK CFI 1f0b0 .cfa: $rsp 8 +
STACK CFI INIT 1f0b1 57 .cfa: $rsp 8 + .ra: .cfa -8 + ^
STACK CFI 1f0b5 .cfa: $rsp 48 +
STACK CFI 1f107 .cfa: $rsp 8 +
STACK CFI INIT 1f108 56 .cfa: $rsp 8 + .ra: .cfa -8 + ^
STACK CFI 1f10c .cfa: $rsp 48 +
STACK CFI 1f15d .cfa: $rsp 8 +
STACK CFI INIT 1f15e 5f .cfa: $rsp 8 + .ra: .cfa -8 + ^
STACK CFI 1f162 .cfa: $rsp 48 +
STACK CFI 1f1bc .cfa: $rsp 8 +
STACK CFI INIT 1f1bd 92 .cfa: $rsp 8 + .ra: .cfa -8 + ^
STACK CFI 1f1bf .cfa: $rsp 16 + $r12: .cfa -16 + ^
STACK CFI 1f1c0 .cfa: $rsp 24 + $rbp: .cfa -24 + ^
STACK CFI 1f1c1 .cfa: $rsp 32 + $rbx: .cfa -32 + ^
STACK CFI 1f1c5 .cfa: $rsp 96 +
STACK CFI 1f24a .cfa: $rsp 32 +
STACK CFI 1f24b .cfa: $rsp 24 +
STACK CFI 1f24c .cfa: $rsp 16 +
STACK CFI 1f24e .cfa: $rsp 8 +
STACK CFI INIT 1f250 1c .cfa: $rsp 8 + .ra: .cfa -8 + ^
STACK CFI 1f254 .cfa: $rsp 32 +
STACK CFI 1f26b .cfa: $rsp 8 +
STACK CFI INIT 1f26c 40 .cfa: $rsp 8 + .ra: .cfa -8 + ^
STACK CFI 1f270 .cfa: $rsp 48 +
STACK CFI 1f2ab .cfa: $rsp 8 +
STACK CFI INIT 1f2ac 1c .cfa: $rsp 8 + .ra: .cfa -8 + ^
STACK CFI 1f2b0 .cfa: $rsp 32 +
STACK CFI 1f2c7 .cfa: $rsp 8 +
STACK CFI INIT 1f2c8 162 .cfa: $rsp 8 + .ra: .cfa -8 + ^
STACK CFI 1f2cf .cfa: $rsp 240 +
STACK CFI 1f429 .cfa: $rsp 8 +
STACK CFI INIT 1f42a 67 .cfa: $rsp 8 + .ra: .cfa -8 + ^
STACK CFI 1f42b .cfa: $rsp 16 + $rbx: .cfa -16 + ^
STACK CFI 1f42f .cfa: $rsp 32 +
STACK CFI 1f48f .cfa: $rsp 16 +
STACK CFI 1f490 .cfa: $rsp 8 +
STACK CFI INIT 1f4ed 5f .cfa: $rsp 8 + .ra: .cfa -8 + ^
STACK CFI 1f4f1 .cfa: $rsp 64 +
STACK CFI 1f54b .cfa: $rsp 8 +
STACK CFI INIT 1f54c 69 .cfa: $rsp 8 + .ra: .cfa -8 + ^
STACK CFI 1f550 .cfa: $rsp 64 +
STACK CFI 1f5b4 .cfa: $rsp 8 +
STACK CFI INIT 1fa0a 1a .cfa: $rsp 8 + .ra: .cfa -8 + ^
STACK CFI INIT 1fa24 37 .cfa: $rsp 8 + .ra: .cfa -8 + ^
STACK CFI 1fa28 .cfa: $rsp 32 +
STACK CFI 1fa5a .cfa: $rsp 8 +
STACK CFI INIT 1fa5c 28 .cfa: $rsp 8 + .ra: .cfa -8 + ^
STACK CFI 1fa60 .cfa: $rsp 32 +
STACK CFI 1fa83 .cfa: $rsp 8 +
STACK CFI INIT 1f5b6 4f .cfa: $rsp 8 + .ra: .cfa -8 + ^
STACK CFI 1f5ba .cfa: $rsp 48 +
STACK CFI 1f604 .cfa: $rsp 8 +
STACK CFI INIT 1f605 60 .cfa: $rsp 8 + .ra: .cfa -8 + ^
STACK CFI 1f609 .cfa: $rsp 64 +
STACK CFI 1f664 .cfa: $rsp 8 +
STACK CFI INIT 1f665 5f .cfa: $rsp 8 + .ra: .cfa -8 + ^
STACK CFI 1f669 .cfa: $rsp 48 +
STACK CFI 1f6c3 .cfa: $rsp 8 +
STACK CFI INIT 1f6c4 4e .cfa: $rsp 8 + .ra: .cfa -8 + ^
STACK CFI 1f6c8 .cfa: $rsp 48 +
STACK CFI 1f711 .cfa: $rsp 8 +
STACK CFI INIT 1f712 3b .cfa: $rsp 8 + .ra: .cfa -8 + ^
STACK CFI 1f716 .cfa: $rsp 32 +
STACK CFI 1f74c .cfa: $rsp 8 +
STACK CFI INIT 1f74e 40 .cfa: $rsp 8 + .ra: .cfa -8 + ^
STACK CFI 1f752 .cfa: $rsp 32 +
STACK CFI 1f78d .cfa: $rsp 8 +
STACK CFI INIT 1f78e 28 .cfa: $rsp 8 + .ra: .cfa -8 + ^
STACK CFI 1f792 .cfa: $rsp 32 +
STACK CFI 1f7b5 .cfa: $rsp 8 +
STACK CFI INIT 1f7b6 217 .cfa: $rsp 8 + .ra: .cfa -8 + ^
STACK CFI 1f7bd .cfa: $rsp 224 +
STACK CFI 1f9cc .cfa: $rsp 8 +
STACK CFI INIT 1f9ce 3b .cfa: $rsp 8 + .ra: .cfa -8 + ^
STACK CFI 1f9cf .cfa: $rsp 16 + $rbx: .cfa -16 + ^
STACK CFI 1f9d3 .cfa: $rsp 32 +
STACK CFI 1fa07 .cfa: $rsp 16 +
STACK CFI 1fa08 .cfa: $rsp 8 +
STACK CFI INIT 1fa84 12 .cfa: $rsp 8 + .ra: .cfa -8 + ^
STACK CFI INIT 1fa96 3a6 .cfa: $rsp 8 + .ra: .cfa -8 + ^
STACK CFI 1fa9a .cfa: $rsp 32 +
STACK CFI 1fe3b .cfa: $rsp 8 +
STACK CFI INIT 1fe3c 75 .cfa: $rsp 8 + .ra: .cfa -8 + ^
STACK CFI 1fe40 .cfa: $rsp 48 +
STACK CFI 1feb0 .cfa: $rsp 8 +
STACK CFI INIT 1feb2 78 .cfa: $rsp 8 + .ra: .cfa -8 + ^
STACK CFI 1feb6 .cfa: $rsp 48 +
STACK CFI 1ff29 .cfa: $rsp 8 +
STACK CFI INIT 1ff2a 12 .cfa: $rsp 8 + .ra: .cfa -8 + ^
STACK CFI INIT 1ff3c 12 .cfa: $rsp 8 + .ra: .cfa -8 + ^
STACK CFI INIT 1ff4e 36f .cfa: $rsp 8 + .ra: .cfa -8 + ^
STACK CFI 1ff52 .cfa: $rsp 64 +
STACK CFI 202bc .cfa: $rsp 8 +
STACK CFI INIT 202bd 1b1 .cfa: $rsp 8 + .ra: .cfa -8 + ^
STACK CFI INIT 2046e 1ab .cfa: $rsp 8 + .ra: .cfa -8 + ^
STACK CFI INIT 20619 303 .cfa: $rsp 8 + .ra: .cfa -8 + ^
STACK CFI INIT 2091c 181 .cfa: $rsp 8 + .ra: .cfa -8 + ^
STACK CFI INIT 20a9d 64 .cfa: $rsp 8 + .ra: .cfa -8 + ^
STACK CFI 20aa1 .cfa: $rsp 40 +
STACK CFI 20b00 .cfa: $rsp 8 +
STACK CFI INIT 20b01 341 .cfa: $rsp 8 + .ra: .cfa -8 + ^
STACK CFI 20b05 .cfa: $rsp 80 +
STACK CFI 20e41 .cfa: $rsp 8 +
STACK CFI INIT 20e42 241 .cfa: $rsp 8 + .ra: .cfa -8 + ^
STACK CFI INIT 21083 29e .cfa: $rsp 8 + .ra: .cfa -8 + ^
STACK CFI 21087 .cfa: $rsp 80 +
STACK CFI 21320 .cfa: $rsp 8 +
STACK CFI INIT 21330 65 .cfa: $rsp 8 + .ra: .cfa -8 + ^
STACK CFI 21332 .cfa: $rsp 16 + $r15: .cfa -16 + ^
STACK CFI 21334 .cfa: $rsp 24 + $r14: .cfa -24 + ^
STACK CFI 21339 .cfa: $rsp 32 + $r13: .cfa -32 + ^
STACK CFI 2133b .cfa: $rsp 40 + $r12: .cfa -40 + ^
STACK CFI 21343 .cfa: $rsp 48 + $rbp: .cfa -48 + ^
STACK CFI 2134b .cfa: $rsp 56 + $rbx: .cfa -56 + ^
STACK CFI 21358 .cfa: $rsp 64 +
STACK CFI 2138a .cfa: $rsp 56 +
STACK CFI 2138b .cfa: $rsp 48 +
STACK CFI 2138c .cfa: $rsp 40 +
STACK CFI 2138e .cfa: $rsp 32 +
STACK CFI 21390 .cfa: $rsp 24 +
STACK CFI 21392 .cfa: $rsp 16 +
STACK CFI 21394 .cfa: $rsp 8 +
STACK CFI INIT 213a0 2 .cfa: $rsp 8 + .ra: .cfa -8 + ^
