STACK CFI INIT 1170 1a0 .cfa: $rsp 432 + .ra: .cfa -8 + ^
STACK CFI INIT 1310 70 .cfa: $rsp 48 + .ra: .cfa -8 + ^
STACK CFI INIT 1380 8 .cfa: $rsp 8 + .ra: .cfa -8 + ^
STACK CFI 1381 .cfa: $rsp 16 +
STACK CFI INIT 1390 18 .cfa: $rsp 8 + .ra: .cfa -8 + ^
STACK CFI INIT 13b0 10 .cfa: $rsp 8 + .ra: .cfa -8 + ^
STACK CFI 13b1 .cfa: $rsp 16 +
STACK CFI INIT 13c0 24 .cfa: $rsp 8 + .ra: .cfa -8 + ^
STACK CFI INIT 13f0 10 .cfa: $rsp 8 + .ra: .cfa -8 + ^
STACK CFI 13f1 .cfa: $rsp 16 +
STACK CFI INIT 1400 50 .cfa: $rsp 32 + .ra: .cfa -8 + ^
STACK CFI INIT 1450 90 .cfa: $rsp 48 + .ra: .cfa -8 + ^
STACK CFI INIT 14e0 10 .cfa: $rsp 8 + .ra: .cfa -8 + ^
STACK CFI 14e1 .cfa: $rsp 16 +
STACK CFI INIT 14f0 f0 .cfa: $rsp 32 + .ra: .cfa -8 + ^
STACK CFI INIT 15e0 100 .cfa: $rsp 80 + .ra: .cfa -8 + ^
STACK CFI INIT 16e0 c0 .cfa: $rsp 64 + .ra: .cfa -8 + ^
STACK CFI INIT 17a0 110 .cfa: $rsp 96 + .ra: .cfa -8 + ^
STACK CFI INIT 18b0 40 .cfa: $rsp 48 + .ra: .cfa -8 + ^
STACK CFI INIT 18f0 2e0 .cfa: $rsp 192 + .ra: .cfa -8 + ^
STACK CFI INIT 1bd0 40 .cfa: $rsp 48 + .ra: .cfa -8 + ^
STACK CFI INIT 1c10 2e0 .cfa: $rsp 192 + .ra: .cfa -8 + ^
STACK CFI INIT 1ef0 150 .cfa: $rsp 112 + .ra: .cfa -8 + ^
STACK CFI INIT 2040 90 .cfa: $rsp 32 + .ra: .cfa -8 + ^
STACK CFI INIT 20d0 f .cfa: $rsp 8 + .ra: .cfa -8 + ^
STACK CFI INIT 20e0 160 .cfa: $rsp 80 + .ra: .cfa -8 + ^
STACK CFI INIT 2240 170 .cfa: $rsp 64 + .ra: .cfa -8 + ^
STACK CFI INIT 23b0 120 .cfa: $rsp 48 + .ra: .cfa -8 + ^
STACK CFI INIT 24d0 6 .cfa: $rsp 8 + .ra: .cfa -8 + ^
STACK CFI INIT 24e0 30 .cfa: $rsp 32 + .ra: .cfa -8 + ^
STACK CFI INIT 2510 b0 .cfa: $rsp 64 + .ra: .cfa -8 + ^
STACK CFI INIT 25c0 12 .cfa: $rsp 8 + .ra: .cfa -8 + ^
STACK CFI INIT 25e0 10 .cfa: $rsp 8 + .ra: .cfa -8 + ^
STACK CFI 25e1 .cfa: $rsp 16 +
STACK CFI INIT 25f0 50 .cfa: $rsp 32 + .ra: .cfa -8 + ^
STACK CFI INIT 2640 50 .cfa: $rsp 32 + .ra: .cfa -8 + ^
STACK CFI INIT 2690 50 .cfa: $rsp 48 + .ra: .cfa -8 + ^
STACK CFI INIT 29f0 20 .cfa: $rsp 32 + .ra: .cfa -8 + ^
STACK CFI INIT 2a10 d .cfa: $rsp 8 + .ra: .cfa -8 + ^
STACK CFI INIT 2a20 10 .cfa: $rsp 8 + .ra: .cfa -8 + ^
STACK CFI 2a21 .cfa: $rsp 16 +
STACK CFI INIT 2a30 46 .cfa: $rsp 8 + .ra: .cfa -8 + ^
STACK CFI INIT 2a80 10 .cfa: $rsp 8 + .ra: .cfa -8 + ^
STACK CFI 2a81 .cfa: $rsp 16 +
STACK CFI INIT 2a90 140 .cfa: $rsp 128 + .ra: .cfa -8 + ^
STACK CFI INIT 2bd0 1b0 .cfa: $rsp 208 + .ra: .cfa -8 + ^
STACK CFI INIT 2d80 70 .cfa: $rsp 32 + .ra: .cfa -8 + ^
STACK CFI INIT 2df0 23 .cfa: $rsp 8 + .ra: .cfa -8 + ^
STACK CFI 2df1 .cfa: $rsp 16 +
STACK CFI INIT 2e20 400 .cfa: $rsp 96 + .ra: .cfa -8 + ^
STACK CFI INIT 3220 50 .cfa: $rsp 32 + .ra: .cfa -8 + ^
STACK CFI INIT 3270 33 .cfa: $rsp 8 + .ra: .cfa -8 + ^
STACK CFI INIT 32b0 33 .cfa: $rsp 8 + .ra: .cfa -8 + ^
STACK CFI INIT 32f0 100 .cfa: $rsp 160 + .ra: .cfa -8 + ^
STACK CFI INIT 33f0 160 .cfa: $rsp 128 + .ra: .cfa -8 + ^
STACK CFI INIT 3550 90 .cfa: $rsp 32 + .ra: .cfa -8 + ^
STACK CFI INIT 35e0 f0 .cfa: $rsp 80 + .ra: .cfa -8 + ^
STACK CFI INIT 36d0 8 .cfa: $rsp 8 + .ra: .cfa -8 + ^
STACK CFI INIT 36e0 23 .cfa: $rsp 8 + .ra: .cfa -8 + ^
STACK CFI 36e1 .cfa: $rsp 16 +
STACK CFI INIT 3710 140 .cfa: $rsp 256 + .ra: .cfa -8 + ^ $rbx: .cfa -16 + ^
STACK CFI INIT 3850 140 .cfa: $rsp 224 + .ra: .cfa -8 + ^ $rbx: .cfa -16 + ^
STACK CFI INIT 61a0 f0 .cfa: $rsp 48 + .ra: .cfa -8 + ^
STACK CFI INIT 6290 320 .cfa: $rsp 336 + .ra: .cfa -8 + ^
STACK CFI INIT 65b0 f0 .cfa: $rsp 144 + .ra: .cfa -8 + ^
STACK CFI INIT 66a0 40 .cfa: $rsp 48 + .ra: .cfa -8 + ^
STACK CFI INIT 66e0 b8 .cfa: $rsp 8 + .ra: .cfa -8 + ^
STACK CFI INIT 67a0 300 .cfa: $rsp 304 + .ra: .cfa -8 + ^
STACK CFI INIT 6aa0 10 .cfa: $rsp 8 + .ra: .cfa -8 + ^
STACK CFI 6aa1 .cfa: $rsp 16 +
STACK CFI INIT 6ab0 30 .cfa: $rsp 32 + .ra: .cfa -8 + ^
STACK CFI INIT 6ae0 6 .cfa: $rsp 8 + .ra: .cfa -8 + ^
STACK CFI INIT 6af0 10 .cfa: $rsp 8 + .ra: .cfa -8 + ^
STACK CFI INIT 6b00 f0 .cfa: $rsp 56 + .ra: .cfa -8 + ^
STACK CFI INIT 6bf0 200 .cfa: $rsp 256 + .ra: .cfa -8 + ^
STACK CFI INIT 6df0 140 .cfa: $rsp 176 + .ra: .cfa -8 + ^
STACK CFI INIT 6f30 150 .cfa: $rsp 192 + .ra: .cfa -8 + ^
STACK CFI INIT 7080 1a .cfa: $rsp 8 + .ra: .cfa -8 + ^
STACK CFI INIT 70a0 220 .cfa: $rsp 304 + .ra: .cfa -8 + ^
STACK CFI INIT 72c0 110 .cfa: $rsp 160 + .ra: .cfa -8 + ^
STACK CFI INIT 73d0 f .cfa: $rsp 8 + .ra: .cfa -8 + ^
STACK CFI INIT 73e0 120 .cfa: $rsp 176 + .ra: .cfa -8 + ^
STACK CFI INIT 7500 4d0 .cfa: $rsp 528 + .ra: .cfa -8 + ^
STACK CFI INIT 79d0 70 .cfa: $rsp 80 + .ra: .cfa -8 + ^
STACK CFI INIT 7a40 1d .cfa: $rsp 8 + .ra: .cfa -8 + ^
STACK CFI 7a41 .cfa: $rsp 16 +
STACK CFI INIT 7a60 30 .cfa: $rsp 32 + .ra: .cfa -8 + ^
STACK CFI INIT 7a90 4c0 .cfa: $rsp 560 + .ra: .cfa -8 + ^ $rbx: .cfa -16 + ^
STACK CFI INIT 7f50 40 .cfa: $rsp 48 + .ra: .cfa -8 + ^
STACK CFI INIT 7f90 400 .cfa: $rsp 432 + .ra: .cfa -8 + ^
STACK CFI INIT 8390 10 .cfa: $rsp 8 + .ra: .cfa -8 + ^
STACK CFI 8391 .cfa: $rsp 16 +
STACK CFI INIT 83a0 210 .cfa: $rsp 256 + .ra: .cfa -8 + ^
STACK CFI INIT 85b0 2f0 .cfa: $rsp 192 + .ra: .cfa -8 + ^
STACK CFI INIT 88a0 1a .cfa: $rsp 8 + .ra: .cfa -8 + ^
STACK CFI INIT 88c0 30 .cfa: $rsp 32 + .ra: .cfa -8 + ^
STACK CFI INIT 88f0 1b .cfa: $rsp 8 + .ra: .cfa -8 + ^
STACK CFI INIT 8910 230 .cfa: $rsp 304 + .ra: .cfa -8 + ^
STACK CFI INIT 8b40 1b0 .cfa: $rsp 176 + .ra: .cfa -8 + ^
STACK CFI INIT 8cf0 120 .cfa: $rsp 112 + .ra: .cfa -8 + ^
STACK CFI INIT 8e10 30 .cfa: $rsp 32 + .ra: .cfa -8 + ^
STACK CFI INIT 8e40 190 .cfa: $rsp 208 + .ra: .cfa -8 + ^
STACK CFI INIT 8fd0 110 .cfa: $rsp 144 + .ra: .cfa -8 + ^
STACK CFI INIT 90e0 e0 .cfa: $rsp 128 + .ra: .cfa -8 + ^
STACK CFI INIT 91c0 30 .cfa: $rsp 32 + .ra: .cfa -8 + ^
STACK CFI INIT 91f0 6 .cfa: $rsp 8 + .ra: .cfa -8 + ^
STACK CFI INIT 9200 370 .cfa: $rsp 432 + .ra: .cfa -8 + ^
STACK CFI INIT 9570 10 .cfa: $rsp 8 + .ra: .cfa -8 + ^
STACK CFI INIT 9580 100 .cfa: $rsp 56 + .ra: .cfa -8 + ^
STACK CFI INIT 9680 18 .cfa: $rsp 8 + .ra: .cfa -8 + ^
STACK CFI INIT 96a0 d10 .cfa: $rsp 720 + .ra: .cfa -8 + ^
STACK CFI INIT a3b0 470 .cfa: $rsp 416 + .ra: .cfa -8 + ^
STACK CFI INIT a820 2c0 .cfa: $rsp 272 + .ra: .cfa -8 + ^
STACK CFI INIT aae0 3b0 .cfa: $rsp 352 + .ra: .cfa -8 + ^
STACK CFI INIT ae90 1b0 .cfa: $rsp 160 + .ra: .cfa -8 + ^
STACK CFI INIT b040 4c0 .cfa: $rsp 304 + .ra: .cfa -8 + ^
STACK CFI INIT b500 70 .cfa: $rsp 32 + .ra: .cfa -8 + ^
STACK CFI INIT b570 470 .cfa: $rsp 448 + .ra: .cfa -8 + ^
STACK CFI INIT b9e0 50 .cfa: $rsp 32 + .ra: .cfa -8 + ^
STACK CFI INIT ba30 120 .cfa: $rsp 160 + .ra: .cfa -8 + ^
STACK CFI INIT bb50 30 .cfa: $rsp 32 + .ra: .cfa -8 + ^
STACK CFI INIT bb80 70 .cfa: $rsp 48 + .ra: .cfa -8 + ^
STACK CFI INIT bbf0 1d0 .cfa: $rsp 320 + .ra: .cfa -8 + ^
STACK CFI INIT bdc0 540 .cfa: $rsp 448 + .ra: .cfa -8 + ^ $rbx: .cfa -16 + ^
STACK CFI INIT c300 60 .cfa: $rsp 32 + .ra: .cfa -8 + ^
STACK CFI INIT c360 160 .cfa: $rsp 192 + .ra: .cfa -8 + ^
STACK CFI INIT c4c0 60 .cfa: $rsp 48 + .ra: .cfa -8 + ^
STACK CFI INIT c520 30 .cfa: $rsp 32 + .ra: .cfa -8 + ^
STACK CFI INIT c550 1b0 .cfa: $rsp 144 + .ra: .cfa -8 + ^
STACK CFI INIT c700 10 .cfa: $rsp 8 + .ra: .cfa -8 + ^
STACK CFI c701 .cfa: $rsp 16 +
STACK CFI INIT c710 10 .cfa: $rsp 8 + .ra: .cfa -8 + ^
STACK CFI c711 .cfa: $rsp 16 +
STACK CFI INIT c720 70 .cfa: $rsp 80 + .ra: .cfa -8 + ^
STACK CFI INIT c790 460 .cfa: $rsp 400 + .ra: .cfa -8 + ^
STACK CFI INIT cbf0 40 .cfa: $rsp 48 + .ra: .cfa -8 + ^
STACK CFI INIT cc30 e0 .cfa: $rsp 48 + .ra: .cfa -8 + ^
STACK CFI INIT cd10 f0 .cfa: $rsp 48 + .ra: .cfa -8 + ^
STACK CFI INIT ce00 f .cfa: $rsp 8 + .ra: .cfa -8 + ^
STACK CFI ce01 .cfa: $rsp 16 +
STACK CFI INIT ce10 10 .cfa: $rsp 8 + .ra: .cfa -8 + ^
STACK CFI ce11 .cfa: $rsp 16 +
STACK CFI INIT ce20 100 .cfa: $rsp 48 + .ra: .cfa -8 + ^
STACK CFI INIT cf20 110 .cfa: $rsp 656 + .ra: .cfa -8 + ^
STACK CFI INIT d030 680 .cfa: $rsp 736 + .ra: .cfa -8 + ^
STACK CFI INIT d6b0 100 .cfa: $rsp 368 + .ra: .cfa -8 + ^ $rbx: .cfa -16 + ^
STACK CFI INIT d7b0 670 .cfa: $rsp 832 + .ra: .cfa -8 + ^
STACK CFI INIT de20 20 .cfa: $rsp 32 + .ra: .cfa -8 + ^
STACK CFI INIT de40 38 .cfa: $rsp 8 + .ra: .cfa -8 + ^
STACK CFI INIT de80 10 .cfa: $rsp 8 + .ra: .cfa -8 + ^
STACK CFI de81 .cfa: $rsp 16 +
STACK CFI INIT de90 650 .cfa: $rsp 528 + .ra: .cfa -8 + ^
STACK CFI INIT e4e0 24 .cfa: $rsp 8 + .ra: .cfa -8 + ^
STACK CFI e4e1 .cfa: $rsp 16 +
STACK CFI INIT e510 60 .cfa: $rsp 32 + .ra: .cfa -8 + ^
STACK CFI INIT e570 10 .cfa: $rsp 8 + .ra: .cfa -8 + ^
STACK CFI e571 .cfa: $rsp 16 +
STACK CFI INIT e580 2b0 .cfa: $rsp 736 + .ra: .cfa -8 + ^
STACK CFI INIT e830 180 .cfa: $rsp 48 + .ra: .cfa -8 + ^
STACK CFI INIT e9b0 1c0 .cfa: $rsp 64 + .ra: .cfa -8 + ^
STACK CFI INIT eb70 80 .cfa: $rsp 80 + .ra: .cfa -8 + ^
STACK CFI INIT ebf0 3a0 .cfa: $rsp 176 + .ra: .cfa -8 + ^
STACK CFI INIT ef90 e .cfa: $rsp 8 + .ra: .cfa -8 + ^
STACK CFI INIT efa0 30 .cfa: $rsp 8 + .ra: .cfa -8 + ^
STACK CFI INIT efd0 30 .cfa: $rsp 32 + .ra: .cfa -8 + ^
STACK CFI INIT f000 60 .cfa: $rsp 48 + .ra: .cfa -8 + ^
STACK CFI INIT f060 60 .cfa: $rsp 32 + .ra: .cfa -8 + ^
STACK CFI INIT f0c0 30 .cfa: $rsp 32 + .ra: .cfa -8 + ^
STACK CFI INIT f0f0 e .cfa: $rsp 8 + .ra: .cfa -8 + ^
STACK CFI INIT f100 11 .cfa: $rsp 8 + .ra: .cfa -8 + ^
STACK CFI INIT f120 40 .cfa: $rsp 32 + .ra: .cfa -8 + ^
STACK CFI INIT f160 1e .cfa: $rsp 8 + .ra: .cfa -8 + ^
STACK CFI INIT f180 18 .cfa: $rsp 8 + .ra: .cfa -8 + ^
STACK CFI INIT f1a0 18 .cfa: $rsp 8 + .ra: .cfa -8 + ^
STACK CFI INIT f1c0 80 .cfa: $rsp 32 + .ra: .cfa -8 + ^
STACK CFI INIT f240 19 .cfa: $rsp 8 + .ra: .cfa -8 + ^
STACK CFI INIT f260 170 .cfa: $rsp 112 + .ra: .cfa -8 + ^
STACK CFI INIT f3d0 6 .cfa: $rsp 8 + .ra: .cfa -8 + ^
STACK CFI INIT f3e0 10 .cfa: $rsp 8 + .ra: .cfa -8 + ^
STACK CFI f3e1 .cfa: $rsp 16 +
STACK CFI INIT f3f0 30 .cfa: $rsp 32 + .ra: .cfa -8 + ^
STACK CFI INIT f420 4b0 .cfa: $rsp 1344 + .ra: .cfa -8 + ^
STACK CFI INIT f8d0 10 .cfa: $rsp 8 + .ra: .cfa -8 + ^
STACK CFI f8d1 .cfa: $rsp 16 +
STACK CFI INIT f8e0 10 .cfa: $rsp 8 + .ra: .cfa -8 + ^
STACK CFI f8e1 .cfa: $rsp 16 +
STACK CFI INIT f8f0 10 .cfa: $rsp 8 + .ra: .cfa -8 + ^
STACK CFI f8f1 .cfa: $rsp 16 +
STACK CFI INIT f900 210 .cfa: $rsp 112 + .ra: .cfa -8 + ^
STACK CFI INIT fb10 e .cfa: $rsp 8 + .ra: .cfa -8 + ^
STACK CFI INIT fb20 b0 .cfa: $rsp 32 + .ra: .cfa -8 + ^
STACK CFI INIT fbd0 10 .cfa: $rsp 8 + .ra: .cfa -8 + ^
STACK CFI fbd1 .cfa: $rsp 16 +
STACK CFI INIT fbe0 10 .cfa: $rsp 8 + .ra: .cfa -8 + ^
STACK CFI fbe1 .cfa: $rsp 16 +
STACK CFI INIT fbf0 30 .cfa: $rsp 32 + .ra: .cfa -8 + ^
STACK CFI INIT fc20 19 .cfa: $rsp 8 + .ra: .cfa -8 + ^
STACK CFI INIT fc40 640 .cfa: $rsp 608 + .ra: .cfa -8 + ^
STACK CFI INIT 10280 420 .cfa: $rsp 416 + .ra: .cfa -8 + ^
STACK CFI INIT 106a0 2f0 .cfa: $rsp 288 + .ra: .cfa -8 + ^
STACK CFI INIT 10990 b40 .cfa: $rsp 1968 + .ra: .cfa -8 + ^
STACK CFI INIT 114d0 450 .cfa: $rsp 320 + .ra: .cfa -8 + ^ $rbp: .cfa -16 + ^ $rbx: .cfa -24 + ^
STACK CFI INIT 11920 310 .cfa: $rsp 416 + .ra: .cfa -8 + ^
STACK CFI INIT 11fa0 1b0 .cfa: $rsp 160 + .ra: .cfa -8 + ^
STACK CFI INIT 12150 a0 .cfa: $rsp 32 + .ra: .cfa -8 + ^
STACK CFI INIT 121f0 90 .cfa: $rsp 48 + .ra: .cfa -8 + ^
STACK CFI INIT 12280 12 .cfa: $rsp 8 + .ra: .cfa -8 + ^
STACK CFI INIT 122a0 e .cfa: $rsp 8 + .ra: .cfa -8 + ^
STACK CFI INIT 122b0 d0 .cfa: $rsp 80 + .ra: .cfa -8 + ^
STACK CFI INIT 12380 10 .cfa: $rsp 8 + .ra: .cfa -8 + ^
STACK CFI 12381 .cfa: $rsp 16 +
STACK CFI INIT 12390 10 .cfa: $rsp 8 + .ra: .cfa -8 + ^
STACK CFI 12391 .cfa: $rsp 16 +
STACK CFI INIT 123a0 1d0 .cfa: $rsp 176 + .ra: .cfa -8 + ^
STACK CFI INIT 12570 3c0 .cfa: $rsp 336 + .ra: .cfa -8 + ^
STACK CFI INIT 12930 30 .cfa: $rsp 32 + .ra: .cfa -8 + ^
STACK CFI INIT 12960 50 .cfa: $rsp 48 + .ra: .cfa -8 + ^
STACK CFI INIT 129b0 10 .cfa: $rsp 8 + .ra: .cfa -8 + ^
STACK CFI 129b1 .cfa: $rsp 16 +
STACK CFI INIT 129c0 21 .cfa: $rsp 8 + .ra: .cfa -8 + ^
STACK CFI INIT 129f0 b0 .cfa: $rsp 64 + .ra: .cfa -8 + ^
STACK CFI INIT 12aa0 a0 .cfa: $rsp 48 + .ra: .cfa -8 + ^
STACK CFI INIT 12b40 b0 .cfa: $rsp 64 + .ra: .cfa -8 + ^
STACK CFI INIT 12bf0 290 .cfa: $rsp 880 + .ra: .cfa -8 + ^
STACK CFI INIT 12e80 330 .cfa: $rsp 1408 + .ra: .cfa -8 + ^
STACK CFI INIT 131b0 b0 .cfa: $rsp 64 + .ra: .cfa -8 + ^
STACK CFI INIT 13260 1d .cfa: $rsp 8 + .ra: .cfa -8 + ^
STACK CFI INIT 13280 21 .cfa: $rsp 8 + .ra: .cfa -8 + ^
STACK CFI INIT 132b0 70 .cfa: $rsp 32 + .ra: .cfa -8 + ^
STACK CFI INIT 13320 12 .cfa: $rsp 8 + .ra: .cfa -8 + ^
STACK CFI INIT 13340 10 .cfa: $rsp 8 + .ra: .cfa -8 + ^
STACK CFI 13341 .cfa: $rsp 16 +
STACK CFI INIT 13350 70 .cfa: $rsp 32 + .ra: .cfa -8 + ^
STACK CFI INIT 133c0 12 .cfa: $rsp 8 + .ra: .cfa -8 + ^
STACK CFI INIT 133e0 10 .cfa: $rsp 8 + .ra: .cfa -8 + ^
STACK CFI 133e1 .cfa: $rsp 16 +
STACK CFI INIT 133f0 230 .cfa: $rsp 208 + .ra: .cfa -8 + ^
STACK CFI INIT 13620 2e0 .cfa: $rsp 1168 + .ra: .cfa -8 + ^
STACK CFI INIT 13900 30 .cfa: $rsp 32 + .ra: .cfa -8 + ^
STACK CFI INIT 13930 b0 .cfa: $rsp 64 + .ra: .cfa -8 + ^
STACK CFI INIT 139e0 12 .cfa: $rsp 8 + .ra: .cfa -8 + ^
STACK CFI INIT 13a00 c0 .cfa: $rsp 64 + .ra: .cfa -8 + ^
STACK CFI INIT 13ac0 10 .cfa: $rsp 8 + .ra: .cfa -8 + ^
STACK CFI 13ac1 .cfa: $rsp 16 +
STACK CFI INIT 13ad0 30 .cfa: $rsp 32 + .ra: .cfa -8 + ^
STACK CFI INIT 13b00 b0 .cfa: $rsp 64 + .ra: .cfa -8 + ^
STACK CFI INIT 13bb0 12 .cfa: $rsp 8 + .ra: .cfa -8 + ^
STACK CFI INIT 13bd0 c0 .cfa: $rsp 64 + .ra: .cfa -8 + ^
STACK CFI INIT 13c90 10 .cfa: $rsp 8 + .ra: .cfa -8 + ^
STACK CFI 13c91 .cfa: $rsp 16 +
STACK CFI INIT 13ca0 280 .cfa: $rsp 1248 + .ra: .cfa -8 + ^
STACK CFI INIT 13f20 70 .cfa: $rsp 32 + .ra: .cfa -8 + ^
STACK CFI INIT 13f90 12 .cfa: $rsp 8 + .ra: .cfa -8 + ^
STACK CFI INIT 13fb0 10 .cfa: $rsp 8 + .ra: .cfa -8 + ^
STACK CFI 13fb1 .cfa: $rsp 16 +
STACK CFI INIT 13fc0 70 .cfa: $rsp 32 + .ra: .cfa -8 + ^
STACK CFI INIT 14030 12 .cfa: $rsp 8 + .ra: .cfa -8 + ^
STACK CFI INIT 14050 10 .cfa: $rsp 8 + .ra: .cfa -8 + ^
STACK CFI 14051 .cfa: $rsp 16 +
STACK CFI INIT 14060 880 .cfa: $rsp 560 + .ra: .cfa -8 + ^
STACK CFI INIT 148e0 90 .cfa: $rsp 64 + .ra: .cfa -8 + ^
STACK CFI INIT 14970 30 .cfa: $rsp 32 + .ra: .cfa -8 + ^
STACK CFI INIT 149a0 f .cfa: $rsp 8 + .ra: .cfa -8 + ^
STACK CFI INIT 149b0 f .cfa: $rsp 8 + .ra: .cfa -8 + ^
STACK CFI INIT 149c0 f .cfa: $rsp 8 + .ra: .cfa -8 + ^
STACK CFI INIT 149d0 d0 .cfa: $rsp 64 + .ra: .cfa -8 + ^
STACK CFI INIT 14aa0 e .cfa: $rsp 8 + .ra: .cfa -8 + ^
STACK CFI INIT 14f80 e .cfa: $rsp 8 + .ra: .cfa -8 + ^
STACK CFI INIT 14f90 30 .cfa: $rsp 32 + .ra: .cfa -8 + ^
STACK CFI INIT 14fc0 170 .cfa: $rsp 64 + .ra: .cfa -8 + ^
STACK CFI INIT 15130 12 .cfa: $rsp 8 + .ra: .cfa -8 + ^
STACK CFI INIT 15150 10 .cfa: $rsp 8 + .ra: .cfa -8 + ^
STACK CFI 15151 .cfa: $rsp 16 +
STACK CFI INIT 15160 10 .cfa: $rsp 8 + .ra: .cfa -8 + ^
STACK CFI 15161 .cfa: $rsp 16 +
STACK CFI INIT 15170 30 .cfa: $rsp 32 + .ra: .cfa -8 + ^
STACK CFI INIT 151a0 2b .cfa: $rsp 8 + .ra: .cfa -8 + ^
STACK CFI INIT 151d0 c0 .cfa: $rsp 64 + .ra: .cfa -8 + ^
STACK CFI INIT 15290 12 .cfa: $rsp 8 + .ra: .cfa -8 + ^
STACK CFI INIT 152b0 c0 .cfa: $rsp 64 + .ra: .cfa -8 + ^
STACK CFI INIT 15370 10 .cfa: $rsp 8 + .ra: .cfa -8 + ^
STACK CFI 15371 .cfa: $rsp 16 +
STACK CFI INIT 15380 70 .cfa: $rsp 32 + .ra: .cfa -8 + ^
STACK CFI INIT 153f0 12 .cfa: $rsp 8 + .ra: .cfa -8 + ^
STACK CFI INIT 15410 10 .cfa: $rsp 8 + .ra: .cfa -8 + ^
STACK CFI 15411 .cfa: $rsp 16 +
STACK CFI INIT 15420 70 .cfa: $rsp 32 + .ra: .cfa -8 + ^
STACK CFI INIT 15490 12 .cfa: $rsp 8 + .ra: .cfa -8 + ^
STACK CFI INIT 154b0 10 .cfa: $rsp 8 + .ra: .cfa -8 + ^
STACK CFI 154b1 .cfa: $rsp 16 +
STACK CFI INIT 154c0 50 .cfa: $rsp 32 + .ra: .cfa -8 + ^
STACK CFI INIT 15510 10 .cfa: $rsp 8 + .ra: .cfa -8 + ^
STACK CFI 15511 .cfa: $rsp 16 +
STACK CFI INIT 15520 10 .cfa: $rsp 8 + .ra: .cfa -8 + ^
STACK CFI 15521 .cfa: $rsp 16 +
STACK CFI INIT 15530 1a0 .cfa: $rsp 240 + .ra: .cfa -8 + ^
STACK CFI INIT 156d0 10 .cfa: $rsp 8 + .ra: .cfa -8 + ^
STACK CFI INIT 156e0 30 .cfa: $rsp 32 + .ra: .cfa -8 + ^
STACK CFI INIT 15710 70 .cfa: $rsp 48 + .ra: .cfa -8 + ^
STACK CFI INIT 15780 110 .cfa: $rsp 96 + .ra: .cfa -8 + ^
STACK CFI INIT 15890 e .cfa: $rsp 8 + .ra: .cfa -8 + ^
STACK CFI INIT 158a0 10 .cfa: $rsp 8 + .ra: .cfa -8 + ^
STACK CFI 158a1 .cfa: $rsp 16 +
STACK CFI INIT 158b0 10 .cfa: $rsp 8 + .ra: .cfa -8 + ^
STACK CFI 158b1 .cfa: $rsp 16 +
STACK CFI INIT 158c0 40 .cfa: $rsp 32 + .ra: .cfa -8 + ^
STACK CFI INIT 15900 10 .cfa: $rsp 8 + .ra: .cfa -8 + ^
STACK CFI 15901 .cfa: $rsp 16 +
STACK CFI INIT 15910 1d0 .cfa: $rsp 256 + .ra: .cfa -8 + ^
STACK CFI INIT 15ae0 40 .cfa: $rsp 32 + .ra: .cfa -8 + ^
STACK CFI INIT 15b20 e .cfa: $rsp 8 + .ra: .cfa -8 + ^
STACK CFI INIT 15b30 10 .cfa: $rsp 8 + .ra: .cfa -8 + ^
STACK CFI 15b31 .cfa: $rsp 16 +
STACK CFI INIT 15b40 1d0 .cfa: $rsp 256 + .ra: .cfa -8 + ^
STACK CFI INIT 15d10 6 .cfa: $rsp 8 + .ra: .cfa -8 + ^
STACK CFI INIT 15d20 270 .cfa: $rsp 336 + .ra: .cfa -8 + ^
STACK CFI INIT 15f90 30 .cfa: $rsp 32 + .ra: .cfa -8 + ^
STACK CFI INIT 15fc0 130 .cfa: $rsp 176 + .ra: .cfa -8 + ^
STACK CFI INIT 160f0 30 .cfa: $rsp 8 + .ra: .cfa -8 + ^
STACK CFI INIT 16120 40 .cfa: $rsp 48 + .ra: .cfa -8 + ^
STACK CFI INIT 16160 400 .cfa: $rsp 432 + .ra: .cfa -8 + ^
STACK CFI INIT 16560 10 .cfa: $rsp 8 + .ra: .cfa -8 + ^
STACK CFI 16561 .cfa: $rsp 16 +
STACK CFI INIT 16570 1e0 .cfa: $rsp 224 + .ra: .cfa -8 + ^
STACK CFI INIT 16750 70 .cfa: $rsp 64 + .ra: .cfa -8 + ^
STACK CFI INIT 167c0 260 .cfa: $rsp 80 + .ra: .cfa -8 + ^
STACK CFI INIT 16a20 2f0 .cfa: $rsp 192 + .ra: .cfa -8 + ^
STACK CFI INIT 16d10 1a .cfa: $rsp 8 + .ra: .cfa -8 + ^
STACK CFI INIT 16d30 210 .cfa: $rsp 272 + .ra: .cfa -8 + ^
STACK CFI INIT 16f40 50 .cfa: $rsp 32 + .ra: .cfa -8 + ^
STACK CFI INIT 16f90 50 .cfa: $rsp 32 + .ra: .cfa -8 + ^
STACK CFI INIT 16fe0 50 .cfa: $rsp 48 + .ra: .cfa -8 + ^
STACK CFI INIT 17030 6 .cfa: $rsp 8 + .ra: .cfa -8 + ^
STACK CFI INIT 17040 50 .cfa: $rsp 32 + .ra: .cfa -8 + ^
STACK CFI INIT 17090 50 .cfa: $rsp 32 + .ra: .cfa -8 + ^
STACK CFI INIT 170e0 50 .cfa: $rsp 48 + .ra: .cfa -8 + ^
STACK CFI INIT 17130 6 .cfa: $rsp 8 + .ra: .cfa -8 + ^
STACK CFI INIT 17140 60 .cfa: $rsp 32 + .ra: .cfa -8 + ^
STACK CFI INIT 171a0 50 .cfa: $rsp 32 + .ra: .cfa -8 + ^
STACK CFI INIT 171f0 50 .cfa: $rsp 48 + .ra: .cfa -8 + ^
STACK CFI INIT 17240 6 .cfa: $rsp 8 + .ra: .cfa -8 + ^
STACK CFI INIT 17250 60 .cfa: $rsp 32 + .ra: .cfa -8 + ^
STACK CFI INIT 172b0 50 .cfa: $rsp 32 + .ra: .cfa -8 + ^
STACK CFI INIT 17300 50 .cfa: $rsp 48 + .ra: .cfa -8 + ^
STACK CFI INIT 17350 6 .cfa: $rsp 8 + .ra: .cfa -8 + ^
STACK CFI INIT 17360 30 .cfa: $rsp 32 + .ra: .cfa -8 + ^
STACK CFI INIT 17390 6 .cfa: $rsp 8 + .ra: .cfa -8 + ^
STACK CFI INIT 173a0 3b0 .cfa: $rsp 432 + .ra: .cfa -8 + ^
STACK CFI INIT 17750 10 .cfa: $rsp 8 + .ra: .cfa -8 + ^
STACK CFI INIT 17760 100 .cfa: $rsp 56 + .ra: .cfa -8 + ^
STACK CFI INIT 17860 50 .cfa: $rsp 32 + .ra: .cfa -8 + ^
STACK CFI INIT 178b0 50 .cfa: $rsp 32 + .ra: .cfa -8 + ^
STACK CFI INIT 17900 50 .cfa: $rsp 48 + .ra: .cfa -8 + ^
STACK CFI INIT 17950 6 .cfa: $rsp 8 + .ra: .cfa -8 + ^
STACK CFI INIT 17960 50 .cfa: $rsp 32 + .ra: .cfa -8 + ^
STACK CFI INIT 179b0 50 .cfa: $rsp 32 + .ra: .cfa -8 + ^
STACK CFI INIT 17a00 50 .cfa: $rsp 48 + .ra: .cfa -8 + ^
STACK CFI INIT 17a50 6 .cfa: $rsp 8 + .ra: .cfa -8 + ^
STACK CFI INIT 17a60 60 .cfa: $rsp 32 + .ra: .cfa -8 + ^
STACK CFI INIT 17ac0 50 .cfa: $rsp 32 + .ra: .cfa -8 + ^
STACK CFI INIT 17b10 50 .cfa: $rsp 48 + .ra: .cfa -8 + ^
STACK CFI INIT 17b60 6 .cfa: $rsp 8 + .ra: .cfa -8 + ^
STACK CFI INIT 17b70 50 .cfa: $rsp 32 + .ra: .cfa -8 + ^
STACK CFI INIT 17bc0 50 .cfa: $rsp 32 + .ra: .cfa -8 + ^
STACK CFI INIT 17c10 50 .cfa: $rsp 48 + .ra: .cfa -8 + ^
STACK CFI INIT 17c60 6 .cfa: $rsp 8 + .ra: .cfa -8 + ^
STACK CFI INIT 17c70 50 .cfa: $rsp 32 + .ra: .cfa -8 + ^
STACK CFI INIT 17cc0 50 .cfa: $rsp 32 + .ra: .cfa -8 + ^
STACK CFI INIT 17d10 50 .cfa: $rsp 48 + .ra: .cfa -8 + ^
STACK CFI INIT 17d60 6 .cfa: $rsp 8 + .ra: .cfa -8 + ^
STACK CFI INIT 17d70 60 .cfa: $rsp 32 + .ra: .cfa -8 + ^
STACK CFI INIT 17dd0 50 .cfa: $rsp 32 + .ra: .cfa -8 + ^
STACK CFI INIT 17e20 50 .cfa: $rsp 48 + .ra: .cfa -8 + ^
STACK CFI INIT 17e70 6 .cfa: $rsp 8 + .ra: .cfa -8 + ^
STACK CFI INIT 17e80 60 .cfa: $rsp 32 + .ra: .cfa -8 + ^
STACK CFI INIT 17ee0 50 .cfa: $rsp 32 + .ra: .cfa -8 + ^
STACK CFI INIT 17f30 50 .cfa: $rsp 48 + .ra: .cfa -8 + ^
STACK CFI INIT 17f80 6 .cfa: $rsp 8 + .ra: .cfa -8 + ^
STACK CFI INIT 17f90 50 .cfa: $rsp 32 + .ra: .cfa -8 + ^
STACK CFI INIT 17fe0 50 .cfa: $rsp 32 + .ra: .cfa -8 + ^
STACK CFI INIT 18030 50 .cfa: $rsp 48 + .ra: .cfa -8 + ^
STACK CFI INIT 18080 6 .cfa: $rsp 8 + .ra: .cfa -8 + ^
STACK CFI INIT 18090 40 .cfa: $rsp 48 + .ra: .cfa -8 + ^
STACK CFI INIT 180d0 80 .cfa: $rsp 64 + .ra: .cfa -8 + ^
STACK CFI INIT 18150 40 .cfa: $rsp 48 + .ra: .cfa -8 + ^
STACK CFI INIT 18190 80 .cfa: $rsp 64 + .ra: .cfa -8 + ^
STACK CFI INIT 18f70 d .cfa: $rsp 8 + .ra: .cfa -8 + ^
STACK CFI INIT 19c70 208 .cfa: $rsp 8 + .ra: .cfa -8 + ^
STACK CFI INIT 19e80 209 .cfa: $rsp 8 + .ra: .cfa -8 + ^
STACK CFI INIT 1a090 3dd .cfa: $rsp 8 + .ra: .cfa -8 + ^
STACK CFI INIT 1a480 70 .cfa: $rsp 48 + .ra: .cfa -8 + ^
STACK CFI INIT 1a4f0 248 .cfa: $rsp 8 + .ra: .cfa -8 + ^
STACK CFI INIT 1a7a0 450 .cfa: $rsp 96 + .ra: .cfa -8 + ^
STACK CFI INIT 1abf0 2f1 .cfa: $rsp 8 + .ra: .cfa -8 + ^
STACK CFI INIT 1af00 360 .cfa: $rsp 96 + .ra: .cfa -8 + ^
STACK CFI INIT 1b260 4d .cfa: $rsp 8 + .ra: .cfa -8 + ^
STACK CFI INIT 1b2b0 1b0 .cfa: $rsp 48 + .ra: .cfa -8 + ^
STACK CFI INIT 1b460 1220 .cfa: $rsp 8 + .ra: .cfa -8 + ^
STACK CFI INIT 1c680 130 .cfa: $rsp 48 + .ra: .cfa -8 + ^
STACK CFI INIT 1c7b0 450 .cfa: $rsp 496 + .ra: .cfa -8 + ^
STACK CFI INIT 1cc00 910 .cfa: $rsp 848 + .ra: .cfa -8 + ^
STACK CFI INIT 1d510 1c0 .cfa: $rsp 208 + .ra: .cfa -8 + ^
STACK CFI INIT 1d6d0 f0 .cfa: $rsp 80 + .ra: .cfa -8 + ^
STACK CFI INIT 1d7c0 460 .cfa: $rsp 496 + .ra: .cfa -8 + ^
STACK CFI INIT 1dc20 a0 .cfa: $rsp 64 + .ra: .cfa -8 + ^
STACK CFI INIT 1dcc0 690 .cfa: $rsp 656 + .ra: .cfa -8 + ^
STACK CFI INIT 1e350 30 .cfa: $rsp 32 + .ra: .cfa -8 + ^
STACK CFI INIT 1e380 60 .cfa: $rsp 48 + .ra: .cfa -8 + ^
STACK CFI INIT 1e3e0 e .cfa: $rsp 8 + .ra: .cfa -8 + ^
STACK CFI INIT 1e3f0 27 .cfa: $rsp 8 + .ra: .cfa -8 + ^
STACK CFI INIT 1e420 10 .cfa: $rsp 8 + .ra: .cfa -8 + ^
STACK CFI 1e421 .cfa: $rsp 16 +
STACK CFI INIT 1e430 120 .cfa: $rsp 160 + .ra: .cfa -8 + ^
STACK CFI INIT 1e550 1a .cfa: $rsp 8 + .ra: .cfa -8 + ^
STACK CFI INIT 1e570 30 .cfa: $rsp 32 + .ra: .cfa -8 + ^
STACK CFI INIT 1e5a0 2c0 .cfa: $rsp 320 + .ra: .cfa -8 + ^
STACK CFI INIT 1e860 6 .cfa: $rsp 8 + .ra: .cfa -8 + ^
STACK CFI INIT 1e870 40 .cfa: $rsp 48 + .ra: .cfa -8 + ^
STACK CFI INIT 1e8b0 110 .cfa: $rsp 64 + .ra: .cfa -8 + ^
STACK CFI INIT 1e9c0 420 .cfa: $rsp 384 + .ra: .cfa -8 + ^
STACK CFI INIT 1ede0 10 .cfa: $rsp 8 + .ra: .cfa -8 + ^
STACK CFI 1ede1 .cfa: $rsp 16 +
STACK CFI INIT 1edf0 10 .cfa: $rsp 8 + .ra: .cfa -8 + ^
STACK CFI INIT 1ee00 100 .cfa: $rsp 56 + .ra: .cfa -8 + ^
STACK CFI INIT 1ef00 210 .cfa: $rsp 256 + .ra: .cfa -8 + ^
STACK CFI INIT 1f110 2f0 .cfa: $rsp 192 + .ra: .cfa -8 + ^
STACK CFI INIT 1f400 230 .cfa: $rsp 304 + .ra: .cfa -8 + ^
STACK CFI INIT 1f630 330 .cfa: $rsp 336 + .ra: .cfa -8 + ^
STACK CFI INIT 1f960 f0 .cfa: $rsp 144 + .ra: .cfa -8 + ^
STACK CFI INIT 1fa50 ba .cfa: $rsp 8 + .ra: .cfa -8 + ^
STACK CFI INIT 1fb10 310 .cfa: $rsp 304 + .ra: .cfa -8 + ^
STACK CFI INIT 1fe20 18 .cfa: $rsp 8 + .ra: .cfa -8 + ^
STACK CFI INIT 1fe40 70 .cfa: $rsp 32 + .ra: .cfa -8 + ^
STACK CFI INIT 1feb0 50 .cfa: $rsp 48 + .ra: .cfa -8 + ^
STACK CFI INIT 1ff00 30 .cfa: $rsp 32 + .ra: .cfa -8 + ^
STACK CFI INIT 20050 120 .cfa: $rsp 1232 + .ra: .cfa -8 + ^
STACK CFI INIT 20170 198 .cfa: $rsp 8 + .ra: .cfa -8 + ^
STACK CFI INIT 20310 100 .cfa: $rsp 48 + .ra: .cfa -8 + ^
STACK CFI INIT 20410 30 .cfa: $rsp 32 + .ra: .cfa -8 + ^
STACK CFI INIT 20440 110 .cfa: $rsp 64 + .ra: .cfa -8 + ^
STACK CFI INIT 20550 40 .cfa: $rsp 48 + .ra: .cfa -8 + ^
STACK CFI INIT 20590 6 .cfa: $rsp 8 + .ra: .cfa -8 + ^
STACK CFI INIT 205a0 10 .cfa: $rsp 8 + .ra: .cfa -8 + ^
STACK CFI 205a1 .cfa: $rsp 16 +
STACK CFI INIT 205b0 51a .cfa: $rsp 8 + .ra: .cfa -8 + ^
STACK CFI INIT 20ad0 50 .cfa: $rsp 48 + .ra: .cfa -8 + ^
STACK CFI INIT 20cb0 d0 .cfa: $rsp 80 + .ra: .cfa -8 + ^
STACK CFI INIT 20d80 180 .cfa: $rsp 240 + .ra: .cfa -8 + ^
STACK CFI INIT 20f00 b0 .cfa: $rsp 80 + .ra: .cfa -8 + ^
STACK CFI INIT 20fb0 260 .cfa: $rsp 96 + .ra: .cfa -8 + ^
STACK CFI INIT 21210 b0 .cfa: $rsp 80 + .ra: .cfa -8 + ^
STACK CFI INIT 212c0 90 .cfa: $rsp 48 + .ra: .cfa -8 + ^
STACK CFI INIT 21350 410 .cfa: $rsp 496 + .ra: .cfa -8 + ^
STACK CFI INIT 21760 b0 .cfa: $rsp 64 + .ra: .cfa -8 + ^
STACK CFI INIT 21810 2b .cfa: $rsp 8 + .ra: .cfa -8 + ^
STACK CFI 21811 .cfa: $rsp 16 +
STACK CFI INIT 21840 10 .cfa: $rsp 8 + .ra: .cfa -8 + ^
STACK CFI 21841 .cfa: $rsp 16 +
STACK CFI INIT 21850 2b .cfa: $rsp 8 + .ra: .cfa -8 + ^
STACK CFI 21851 .cfa: $rsp 16 +
STACK CFI INIT 21880 77 .cfa: $rsp 8 + .ra: .cfa -8 + ^
STACK CFI 21881 .cfa: $rsp 16 +
STACK CFI INIT 21900 c3 .cfa: $rsp 8 + .ra: .cfa -8 + ^
STACK CFI 21901 .cfa: $rsp 16 +
STACK CFI INIT 219d0 10 .cfa: $rsp 8 + .ra: .cfa -8 + ^
STACK CFI 219d1 .cfa: $rsp 16 +
STACK CFI INIT 219e0 cb .cfa: $rsp 8 + .ra: .cfa -8 + ^
STACK CFI 219e1 .cfa: $rsp 16 +
STACK CFI INIT 21ab0 10 .cfa: $rsp 8 + .ra: .cfa -8 + ^
STACK CFI 21ab1 .cfa: $rsp 16 +
STACK CFI INIT 21ac0 2b .cfa: $rsp 8 + .ra: .cfa -8 + ^
STACK CFI 21ac1 .cfa: $rsp 16 +
STACK CFI INIT 21af0 110 .cfa: $rsp 32 + .ra: .cfa -8 + ^
STACK CFI INIT 21c00 8a .cfa: $rsp 8 + .ra: .cfa -8 + ^
STACK CFI 21c01 .cfa: $rsp 16 +
STACK CFI INIT 21c90 9d .cfa: $rsp 8 + .ra: .cfa -8 + ^
STACK CFI 21c91 .cfa: $rsp 16 +
STACK CFI INIT 21d30 360 .cfa: $rsp 32 + .ra: .cfa -8 + ^
STACK CFI INIT 22090 d .cfa: $rsp 8 + .ra: .cfa -8 + ^
STACK CFI INIT 220a0 11 .cfa: $rsp 8 + .ra: .cfa -8 + ^
STACK CFI INIT 220c0 c0 .cfa: $rsp 48 + .ra: .cfa -8 + ^
STACK CFI INIT 22180 61 .cfa: $rsp 8 + .ra: .cfa -8 + ^
STACK CFI INIT 221f0 40 .cfa: $rsp 48 + .ra: .cfa -8 + ^
STACK CFI INIT 22230 50 .cfa: $rsp 32 + .ra: .cfa -8 + ^
STACK CFI INIT 22280 10 .cfa: $rsp 8 + .ra: .cfa -8 + ^
STACK CFI 22281 .cfa: $rsp 16 +
STACK CFI INIT 22290 110 .cfa: $rsp 64 + .ra: .cfa -8 + ^
STACK CFI INIT 223a0 2f0 .cfa: $rsp 144 + .ra: .cfa -8 + ^
STACK CFI INIT 22690 110 .cfa: $rsp 96 + .ra: .cfa -8 + ^
STACK CFI INIT 227a0 150 .cfa: $rsp 144 + .ra: .cfa -8 + ^
STACK CFI INIT 228f0 100 .cfa: $rsp 64 + .ra: .cfa -8 + ^
STACK CFI INIT 229f0 75 .cfa: $rsp 8 + .ra: .cfa -8 + ^
STACK CFI INIT 22a70 6 .cfa: $rsp 8 + .ra: .cfa -8 + ^
STACK CFI INIT 22a80 120 .cfa: $rsp 96 + .ra: .cfa -8 + ^
STACK CFI INIT 22ba0 3b0 .cfa: $rsp 352 + .ra: .cfa -8 + ^
STACK CFI INIT 22f50 30 .cfa: $rsp 32 + .ra: .cfa -8 + ^
STACK CFI INIT 22f80 e .cfa: $rsp 8 + .ra: .cfa -8 + ^
STACK CFI INIT 22f90 b0 .cfa: $rsp 32 + .ra: .cfa -8 + ^
STACK CFI INIT 23040 10 .cfa: $rsp 8 + .ra: .cfa -8 + ^
STACK CFI 23041 .cfa: $rsp 16 +
STACK CFI INIT 245e0 18 .cfa: $rsp 8 + .ra: .cfa -8 + ^
STACK CFI INIT 24600 30 .cfa: $rsp 32 + .ra: .cfa -8 + ^
STACK CFI INIT 24630 70 .cfa: $rsp 48 + .ra: .cfa -8 + ^
STACK CFI INIT 246a0 d .cfa: $rsp 8 + .ra: .cfa -8 + ^
STACK CFI INIT 246b0 c0 .cfa: $rsp 64 + .ra: .cfa -8 + ^
STACK CFI INIT 24770 23 .cfa: $rsp 8 + .ra: .cfa -8 + ^
STACK CFI INIT 247a0 80 .cfa: $rsp 48 + .ra: .cfa -8 + ^
STACK CFI INIT 24820 19 .cfa: $rsp 8 + .ra: .cfa -8 + ^
STACK CFI 24821 .cfa: $rsp 16 +
STACK CFI INIT 24840 49 .cfa: $rsp 8 + .ra: .cfa -8 + ^
STACK CFI INIT 24890 30 .cfa: $rsp 32 + .ra: .cfa -8 + ^
STACK CFI INIT 248c0 c0 .cfa: $rsp 80 + .ra: .cfa -8 + ^
STACK CFI INIT 24980 20 .cfa: $rsp 32 + .ra: .cfa -8 + ^
STACK CFI INIT 249a0 c0 .cfa: $rsp 48 + .ra: .cfa -8 + ^
STACK CFI INIT 24a60 13 .cfa: $rsp 8 + .ra: .cfa -8 + ^
STACK CFI 24a61 .cfa: $rsp 16 +
STACK CFI INIT 24a80 e .cfa: $rsp 8 + .ra: .cfa -8 + ^
STACK CFI INIT 24a90 3c .cfa: $rsp 8 + .ra: .cfa -8 + ^
STACK CFI INIT 24ad0 f0 .cfa: $rsp 96 + .ra: .cfa -8 + ^
STACK CFI INIT 24bc0 70 .cfa: $rsp 64 + .ra: .cfa -8 + ^
STACK CFI INIT 24c30 60 .cfa: $rsp 48 + .ra: .cfa -8 + ^
STACK CFI INIT 24c90 d .cfa: $rsp 8 + .ra: .cfa -8 + ^
STACK CFI INIT 24ca0 e0 .cfa: $rsp 48 + .ra: .cfa -8 + ^
STACK CFI INIT 24d80 a0 .cfa: $rsp 32 + .ra: .cfa -8 + ^
STACK CFI INIT 24e20 10 .cfa: $rsp 8 + .ra: .cfa -8 + ^
STACK CFI 24e21 .cfa: $rsp 16 +
STACK CFI INIT 24e30 1c .cfa: $rsp 8 + .ra: .cfa -8 + ^
STACK CFI INIT 24e50 20 .cfa: $rsp 32 + .ra: .cfa -8 + ^
STACK CFI INIT 24e70 60 .cfa: $rsp 32 + .ra: .cfa -8 + ^
STACK CFI INIT 24ed0 10 .cfa: $rsp 8 + .ra: .cfa -8 + ^
STACK CFI 24ed1 .cfa: $rsp 16 +
STACK CFI INIT 24ee0 100 .cfa: $rsp 64 + .ra: .cfa -8 + ^
STACK CFI INIT 24fe0 80 .cfa: $rsp 48 + .ra: .cfa -8 + ^
STACK CFI INIT 25060 30 .cfa: $rsp 32 + .ra: .cfa -8 + ^
STACK CFI INIT 25090 1c .cfa: $rsp 8 + .ra: .cfa -8 + ^
STACK CFI INIT 250b0 20 .cfa: $rsp 32 + .ra: .cfa -8 + ^
STACK CFI INIT 250d0 a8 .cfa: $rsp 64 + .ra: .cfa -8 + ^
